

Microchip MPLAB XC8 Assembler V3.00 build 20241204225717 
                                                                                               Mon Nov 10 00:24:45 2025

Microchip MPLAB XC8 C Compiler v3.00 (Free license) build 20241204225717 Og1 
     1                           	processor	18F4580
     2                           	fnconf	rparam,??,?,0
     3                           	pagewidth 120
     4                           	opt	flic
     5                           	psect	mediumconst,global,reloc=2,class=MEDIUMCONST,space=0,delta=1,noexec
     6                           	psect	cinit,global,reloc=2,class=CODE,space=0,delta=1
     7                           	psect	bssCOMRAM,global,class=COMRAM,space=1,delta=1,lowdata,noexec
     8                           	psect	bssBANK0,global,class=BANK0,space=1,delta=1,lowdata,noexec
     9                           	psect	cstackCOMRAM,global,class=COMRAM,space=1,delta=1,lowdata,noexec
    10                           	psect	text0,global,reloc=2,class=CODE,space=0,delta=1
    11                           	psect	text1,global,reloc=2,class=CODE,space=0,delta=1
    12                           	psect	text2,global,reloc=2,class=CODE,space=0,delta=1
    13                           	psect	text3,global,reloc=2,class=CODE,space=0,delta=1
    14                           	psect	text4,global,reloc=2,class=CODE,space=0,delta=1
    15                           	psect	text5,global,reloc=2,class=CODE,space=0,delta=1,group=2
    16                           	psect	text6,global,reloc=2,class=CODE,space=0,delta=1,group=2
    17                           	psect	text7,global,reloc=2,class=CODE,space=0,delta=1
    18                           	psect	text8,global,reloc=2,class=CODE,space=0,delta=1,group=3
    19                           	psect	text9,global,reloc=2,class=CODE,space=0,delta=1,group=1
    20                           	psect	text10,global,reloc=2,class=CODE,space=0,delta=1,group=1
    21                           	psect	text11,global,reloc=2,class=CODE,space=0,delta=1,group=3
    22                           	psect	text12,global,reloc=2,class=CODE,space=0,delta=1,group=3
    23                           	psect	text13,global,reloc=2,class=CODE,space=0,delta=1,group=2
    24                           	psect	text14,global,reloc=2,class=CODE,space=0,delta=1,group=2
    25                           	psect	text15,global,reloc=2,class=CODE,space=0,delta=1
    26                           	psect	text16,global,reloc=2,class=CODE,space=0,delta=1
    27                           	psect	text17,global,reloc=2,class=CODE,space=0,delta=1
    28                           	psect	text18,global,reloc=2,class=CODE,space=0,delta=1,group=3
    29                           	psect	text19,global,reloc=2,class=CODE,space=0,delta=1
    30                           	psect	text20,global,reloc=2,class=CODE,space=0,delta=1
    31                           	psect	text21,global,reloc=2,class=CODE,space=0,delta=1
    32                           	psect	text22,global,reloc=2,class=CODE,space=0,delta=1
    33                           	psect	text23,global,reloc=2,class=CODE,space=0,delta=1
    34                           	psect	text24,global,reloc=2,class=CODE,space=0,delta=1
    35                           	psect	text25,global,reloc=2,class=CODE,space=0,delta=1
    36                           	psect	text26,global,reloc=2,class=CODE,space=0,delta=1
    37                           	psect	text27,global,reloc=2,class=CODE,space=0,delta=1
    38                           	psect	text28,global,reloc=2,class=CODE,space=0,delta=1
    39                           	psect	text29,global,reloc=2,class=CODE,space=0,delta=1
    40                           	psect	text30,global,reloc=2,class=CODE,space=0,delta=1,group=2
    41                           	psect	text31,global,reloc=2,class=CODE,space=0,delta=1,group=2
    42                           	psect	text32,global,reloc=2,class=CODE,space=0,delta=1,group=2
    43                           	psect	intcode,global,reloc=2,class=CODE,space=0,delta=1
    44                           	psect	intcode_body,global,reloc=2,class=CODE,space=0,delta=1
    45                           	psect	text34,global,reloc=2,class=CODE,space=0,delta=1
    46                           	psect	intsave_regs,global,class=BIGRAM,space=1,delta=1,noexec
    47                           	psect	rparam,global,class=COMRAM,space=1,delta=1,noexec
    48                           	psect	temp,global,ovrld,common,class=COMRAM,space=1,delta=1,lowdata
    49                           	psect	config,global,abs,ovrld,class=CONFIG,space=4,delta=1,noexec
    50   000000                     
    51                           ; Generated 17/10/2023 GMT
    52                           ; 
    53                           ; Copyright © 2023, Microchip Technology Inc. and its subsidiaries ("Microchip")
    54                           ; All rights reserved.
    55                           ; 
    56                           ; This software is developed by Microchip Technology Inc. and its subsidiaries ("Microch
      +                          ip").
    57                           ; 
    58                           ; Redistribution and use in source and binary forms, with or without modification, are
    59                           ; permitted provided that the following conditions are met:
    60                           ; 
    61                           ;     1. Redistributions of source code must retain the above copyright notice, this lis
      +                          t of
    62                           ;        conditions and the following disclaimer.
    63                           ; 
    64                           ;     2. Redistributions in binary form must reproduce the above copyright notice, this 
      +                          list
    65                           ;        of conditions and the following disclaimer in the documentation and/or other
    66                           ;        materials provided with the distribution. Publication is not required when
    67                           ;        this file is used in an embedded application.
    68                           ; 
    69                           ;     3. Microchip's name may not be used to endorse or promote products derived from th
      +                          is
    70                           ;        software without specific prior written permission.
    71                           ; 
    72                           ; THIS SOFTWARE IS PROVIDED BY MICROCHIP "AS IS" AND ANY EXPRESS OR IMPLIED WARRANTIES,
    73                           ; INCLUDING, BUT NOT LIMITED TO, THE IMPLIED WARRANTIES OF MERCHANTABILITY AND FITNESS F
      +                          OR
    74                           ; PURPOSE ARE DISCLAIMED.  IN NO EVENT SHALL MICROCHIP BE LIABLE FOR ANY DIRECT, INDIREC
      +                          T,
    75                           ; INCIDENTAL, SPECIAL, EXEMPLARY, OR CONSEQUENTIAL DAMAGES (INCLUDING BUT NOT LIMITED TO
    76                           ; PROCUREMENT OF SUBSTITUTE GOODS OR SERVICES; LOSS OF USE, DATA OR PROFITS; OR BUSINESS
    77                           ; INTERRUPTION) HOWSOEVER CAUSED AND ON ANY THEORY OF LIABILITY, WHETHER IN CONTRACT, ST
      +                          RICT
    78                           ; LIABILITY, OR TORT (INCLUDING NEGLIGENCE OR OTHERWISE) ARISING IN ANY WAY OUT OF THE U
      +                          SE OF
    79                           ; THIS SOFTWARE, EVEN IF ADVISED OF THE POSSIBILITY OF SUCH DAMAGE.
    80                           ; 
    81                           ; 
    82                           ; Code-generator required, PIC18F4580 Definitions
    83                           ; 
    84                           ; SFR Addresses
    85   000FE0                     bsr             equ	4064
    86   000FE9                     fsr0            equ	4073
    87   000FEA                     fsr0h           equ	4074
    88   000FE9                     fsr0l           equ	4073
    89   000FE1                     fsr1            equ	4065
    90   000FE2                     fsr1h           equ	4066
    91   000FE1                     fsr1l           equ	4065
    92   000FD9                     fsr2            equ	4057
    93   000FDA                     fsr2h           equ	4058
    94   000FD9                     fsr2l           equ	4057
    95   000FEF                     indf0           equ	4079
    96   000FE7                     indf1           equ	4071
    97   000FDF                     indf2           equ	4063
    98   000FF2                     intcon          equ	4082
    99   000000                     nvmcon          equ	0
   100   000FF9                     pcl             equ	4089
   101   000FFA                     pclath          equ	4090
   102   000FFB                     pclatu          equ	4091
   103   000FEB                     plusw0          equ	4075
   104   000FE3                     plusw1          equ	4067
   105   000FDB                     plusw2          equ	4059
   106   000FED                     postdec0        equ	4077
   107   000FE5                     postdec1        equ	4069
   108   000FDD                     postdec2        equ	4061
   109   000FEE                     postinc0        equ	4078
   110   000FE6                     postinc1        equ	4070
   111   000FDE                     postinc2        equ	4062
   112   000FEC                     preinc0         equ	4076
   113   000FE4                     preinc1         equ	4068
   114   000FDC                     preinc2         equ	4060
   115   000FF3                     prod            equ	4083
   116   000FF4                     prodh           equ	4084
   117   000FF3                     prodl           equ	4083
   118   000FD8                     status          equ	4056
   119   000FF5                     tablat          equ	4085
   120   000FF6                     tblptr          equ	4086
   121   000FF7                     tblptrh         equ	4087
   122   000FF6                     tblptrl         equ	4086
   123   000FF8                     tblptru         equ	4088
   124   000FFD                     tosl            equ	4093
   125   000FE8                     wreg            equ	4072
   126   000D60                     RXF6SIDH        equ	3424	;# 
   127   000D61                     RXF6SIDL        equ	3425	;# 
   128   000D62                     RXF6EIDH        equ	3426	;# 
   129   000D63                     RXF6EIDL        equ	3427	;# 
   130   000D64                     RXF7SIDH        equ	3428	;# 
   131   000D65                     RXF7SIDL        equ	3429	;# 
   132   000D66                     RXF7EIDH        equ	3430	;# 
   133   000D67                     RXF7EIDL        equ	3431	;# 
   134   000D68                     RXF8SIDH        equ	3432	;# 
   135   000D69                     RXF8SIDL        equ	3433	;# 
   136   000D6A                     RXF8EIDH        equ	3434	;# 
   137   000D6B                     RXF8EIDL        equ	3435	;# 
   138   000D70                     RXF9SIDH        equ	3440	;# 
   139   000D71                     RXF9SIDL        equ	3441	;# 
   140   000D72                     RXF9EIDH        equ	3442	;# 
   141   000D73                     RXF9EIDL        equ	3443	;# 
   142   000D74                     RXF10SIDH       equ	3444	;# 
   143   000D75                     RXF10SIDL       equ	3445	;# 
   144   000D76                     RXF10EIDH       equ	3446	;# 
   145   000D77                     RXF10EIDL       equ	3447	;# 
   146   000D78                     RXF11SIDH       equ	3448	;# 
   147   000D79                     RXF11SIDL       equ	3449	;# 
   148   000D7A                     RXF11EIDH       equ	3450	;# 
   149   000D7B                     RXF11EIDL       equ	3451	;# 
   150   000D80                     RXF12SIDH       equ	3456	;# 
   151   000D81                     RXF12SIDL       equ	3457	;# 
   152   000D82                     RXF12EIDH       equ	3458	;# 
   153   000D83                     RXF12EIDL       equ	3459	;# 
   154   000D84                     RXF13SIDH       equ	3460	;# 
   155   000D85                     RXF13SIDL       equ	3461	;# 
   156   000D86                     RXF13EIDH       equ	3462	;# 
   157   000D87                     RXF13EIDL       equ	3463	;# 
   158   000D88                     RXF14SIDH       equ	3464	;# 
   159   000D89                     RXF14SIDL       equ	3465	;# 
   160   000D8A                     RXF14EIDH       equ	3466	;# 
   161   000D8B                     RXF14EIDL       equ	3467	;# 
   162   000D90                     RXF15SIDH       equ	3472	;# 
   163   000D91                     RXF15SIDL       equ	3473	;# 
   164   000D92                     RXF15EIDH       equ	3474	;# 
   165   000D93                     RXF15EIDL       equ	3475	;# 
   166   000DD4                     RXFCON0         equ	3540	;# 
   167   000DD5                     RXFCON1         equ	3541	;# 
   168   000DD8                     SDFLC           equ	3544	;# 
   169   000DE0                     RXFBCON0        equ	3552	;# 
   170   000DE1                     RXFBCON1        equ	3553	;# 
   171   000DE2                     RXFBCON2        equ	3554	;# 
   172   000DE3                     RXFBCON3        equ	3555	;# 
   173   000DE4                     RXFBCON4        equ	3556	;# 
   174   000DE5                     RXFBCON5        equ	3557	;# 
   175   000DE6                     RXFBCON6        equ	3558	;# 
   176   000DE7                     RXFBCON7        equ	3559	;# 
   177   000DF0                     MSEL0           equ	3568	;# 
   178   000DF1                     MSEL1           equ	3569	;# 
   179   000DF2                     MSEL2           equ	3570	;# 
   180   000DF3                     MSEL3           equ	3571	;# 
   181   000DF8                     BSEL0           equ	3576	;# 
   182   000DFA                     BIE0            equ	3578	;# 
   183   000DFC                     TXBIE           equ	3580	;# 
   184   000E20                     B0CON           equ	3616	;# 
   185   000E21                     B0SIDH          equ	3617	;# 
   186   000E22                     B0SIDL          equ	3618	;# 
   187   000E23                     B0EIDH          equ	3619	;# 
   188   000E24                     B0EIDL          equ	3620	;# 
   189   000E25                     B0DLC           equ	3621	;# 
   190   000E26                     B0D0            equ	3622	;# 
   191   000E27                     B0D1            equ	3623	;# 
   192   000E28                     B0D2            equ	3624	;# 
   193   000E29                     B0D3            equ	3625	;# 
   194   000E2A                     B0D4            equ	3626	;# 
   195   000E2B                     B0D5            equ	3627	;# 
   196   000E2C                     B0D6            equ	3628	;# 
   197   000E2D                     B0D7            equ	3629	;# 
   198   000E2E                     CANSTAT_RO9     equ	3630	;# 
   199   000E2F                     CANCON_RO9      equ	3631	;# 
   200   000E30                     B1CON           equ	3632	;# 
   201   000E31                     B1SIDH          equ	3633	;# 
   202   000E32                     B1SIDL          equ	3634	;# 
   203   000E33                     B1EIDH          equ	3635	;# 
   204   000E34                     B1EIDL          equ	3636	;# 
   205   000E35                     B1DLC           equ	3637	;# 
   206   000E36                     B1D0            equ	3638	;# 
   207   000E37                     B1D1            equ	3639	;# 
   208   000E38                     B1D2            equ	3640	;# 
   209   000E39                     B1D3            equ	3641	;# 
   210   000E3A                     B1D4            equ	3642	;# 
   211   000E3B                     B1D5            equ	3643	;# 
   212   000E3C                     B1D6            equ	3644	;# 
   213   000E3D                     B1D7            equ	3645	;# 
   214   000E3E                     CANSTAT_RO8     equ	3646	;# 
   215   000E3F                     CANCON_RO8      equ	3647	;# 
   216   000E40                     B2CON           equ	3648	;# 
   217   000E41                     B2SIDH          equ	3649	;# 
   218   000E42                     B2SIDL          equ	3650	;# 
   219   000E43                     B2EIDH          equ	3651	;# 
   220   000E44                     B2EIDL          equ	3652	;# 
   221   000E45                     B2DLC           equ	3653	;# 
   222   000E46                     B2D0            equ	3654	;# 
   223   000E47                     B2D1            equ	3655	;# 
   224   000E48                     B2D2            equ	3656	;# 
   225   000E49                     B2D3            equ	3657	;# 
   226   000E4A                     B2D4            equ	3658	;# 
   227   000E4B                     B2D5            equ	3659	;# 
   228   000E4C                     B2D6            equ	3660	;# 
   229   000E4D                     B2D7            equ	3661	;# 
   230   000E4E                     CANSTAT_RO7     equ	3662	;# 
   231   000E4F                     CANCON_RO7      equ	3663	;# 
   232   000E50                     B3CON           equ	3664	;# 
   233   000E51                     B3SIDH          equ	3665	;# 
   234   000E52                     B3SIDL          equ	3666	;# 
   235   000E53                     B3EIDH          equ	3667	;# 
   236   000E54                     B3EIDL          equ	3668	;# 
   237   000E55                     B3DLC           equ	3669	;# 
   238   000E56                     B3D0            equ	3670	;# 
   239   000E57                     B3D1            equ	3671	;# 
   240   000E58                     B3D2            equ	3672	;# 
   241   000E59                     B3D3            equ	3673	;# 
   242   000E5A                     B3D4            equ	3674	;# 
   243   000E5B                     B3D5            equ	3675	;# 
   244   000E5C                     B3D6            equ	3676	;# 
   245   000E5D                     B3D7            equ	3677	;# 
   246   000E5E                     CANSTAT_RO6     equ	3678	;# 
   247   000E5F                     CANCON_RO6      equ	3679	;# 
   248   000E60                     B4CON           equ	3680	;# 
   249   000E61                     B4SIDH          equ	3681	;# 
   250   000E62                     B4SIDL          equ	3682	;# 
   251   000E63                     B4EIDH          equ	3683	;# 
   252   000E64                     B4EIDL          equ	3684	;# 
   253   000E65                     B4DLC           equ	3685	;# 
   254   000E66                     B4D0            equ	3686	;# 
   255   000E67                     B4D1            equ	3687	;# 
   256   000E68                     B4D2            equ	3688	;# 
   257   000E69                     B4D3            equ	3689	;# 
   258   000E6A                     B4D4            equ	3690	;# 
   259   000E6B                     B4D5            equ	3691	;# 
   260   000E6C                     B4D6            equ	3692	;# 
   261   000E6D                     B4D7            equ	3693	;# 
   262   000E6E                     CANSTAT_RO5     equ	3694	;# 
   263   000E6F                     CANCON_RO5      equ	3695	;# 
   264   000E70                     B5CON           equ	3696	;# 
   265   000E71                     B5SIDH          equ	3697	;# 
   266   000E72                     B5SIDL          equ	3698	;# 
   267   000E73                     B5EIDH          equ	3699	;# 
   268   000E74                     B5EIDL          equ	3700	;# 
   269   000E75                     B5DLC           equ	3701	;# 
   270   000E76                     B5D0            equ	3702	;# 
   271   000E77                     B5D1            equ	3703	;# 
   272   000E78                     B5D2            equ	3704	;# 
   273   000E79                     B5D3            equ	3705	;# 
   274   000E7A                     B5D4            equ	3706	;# 
   275   000E7B                     B5D5            equ	3707	;# 
   276   000E7C                     B5D6            equ	3708	;# 
   277   000E7D                     B5D7            equ	3709	;# 
   278   000E7E                     CANSTAT_RO4     equ	3710	;# 
   279   000E7F                     CANCON_RO4      equ	3711	;# 
   280   000F00                     RXF0SIDH        equ	3840	;# 
   281   000F01                     RXF0SIDL        equ	3841	;# 
   282   000F02                     RXF0EIDH        equ	3842	;# 
   283   000F03                     RXF0EIDL        equ	3843	;# 
   284   000F04                     RXF1SIDH        equ	3844	;# 
   285   000F05                     RXF1SIDL        equ	3845	;# 
   286   000F06                     RXF1EIDH        equ	3846	;# 
   287   000F07                     RXF1EIDL        equ	3847	;# 
   288   000F08                     RXF2SIDH        equ	3848	;# 
   289   000F09                     RXF2SIDL        equ	3849	;# 
   290   000F0A                     RXF2EIDH        equ	3850	;# 
   291   000F0B                     RXF2EIDL        equ	3851	;# 
   292   000F0C                     RXF3SIDH        equ	3852	;# 
   293   000F0D                     RXF3SIDL        equ	3853	;# 
   294   000F0E                     RXF3EIDH        equ	3854	;# 
   295   000F0F                     RXF3EIDL        equ	3855	;# 
   296   000F10                     RXF4SIDH        equ	3856	;# 
   297   000F11                     RXF4SIDL        equ	3857	;# 
   298   000F12                     RXF4EIDH        equ	3858	;# 
   299   000F13                     RXF4EIDL        equ	3859	;# 
   300   000F14                     RXF5SIDH        equ	3860	;# 
   301   000F15                     RXF5SIDL        equ	3861	;# 
   302   000F16                     RXF5EIDH        equ	3862	;# 
   303   000F17                     RXF5EIDL        equ	3863	;# 
   304   000F18                     RXM0SIDH        equ	3864	;# 
   305   000F19                     RXM0SIDL        equ	3865	;# 
   306   000F1A                     RXM0EIDH        equ	3866	;# 
   307   000F1B                     RXM0EIDL        equ	3867	;# 
   308   000F1C                     RXM1SIDH        equ	3868	;# 
   309   000F1D                     RXM1SIDL        equ	3869	;# 
   310   000F1E                     RXM1EIDH        equ	3870	;# 
   311   000F1F                     RXM1EIDL        equ	3871	;# 
   312   000F20                     TXB2CON         equ	3872	;# 
   313   000F21                     TXB2SIDH        equ	3873	;# 
   314   000F22                     TXB2SIDL        equ	3874	;# 
   315   000F23                     TXB2EIDH        equ	3875	;# 
   316   000F24                     TXB2EIDL        equ	3876	;# 
   317   000F25                     TXB2DLC         equ	3877	;# 
   318   000F26                     TXB2D0          equ	3878	;# 
   319   000F27                     TXB2D1          equ	3879	;# 
   320   000F28                     TXB2D2          equ	3880	;# 
   321   000F29                     TXB2D3          equ	3881	;# 
   322   000F2A                     TXB2D4          equ	3882	;# 
   323   000F2B                     TXB2D5          equ	3883	;# 
   324   000F2C                     TXB2D6          equ	3884	;# 
   325   000F2D                     TXB2D7          equ	3885	;# 
   326   000F2E                     CANSTAT_RO3     equ	3886	;# 
   327   000F2F                     CANCON_RO3      equ	3887	;# 
   328   000F30                     TXB1CON         equ	3888	;# 
   329   000F31                     TXB1SIDH        equ	3889	;# 
   330   000F32                     TXB1SIDL        equ	3890	;# 
   331   000F33                     TXB1EIDH        equ	3891	;# 
   332   000F34                     TXB1EIDL        equ	3892	;# 
   333   000F35                     TXB1DLC         equ	3893	;# 
   334   000F36                     TXB1D0          equ	3894	;# 
   335   000F37                     TXB1D1          equ	3895	;# 
   336   000F38                     TXB1D2          equ	3896	;# 
   337   000F39                     TXB1D3          equ	3897	;# 
   338   000F3A                     TXB1D4          equ	3898	;# 
   339   000F3B                     TXB1D5          equ	3899	;# 
   340   000F3C                     TXB1D6          equ	3900	;# 
   341   000F3D                     TXB1D7          equ	3901	;# 
   342   000F3E                     CANSTAT_RO2     equ	3902	;# 
   343   000F3F                     CANCON_RO2      equ	3903	;# 
   344   000F40                     TXB0CON         equ	3904	;# 
   345   000F41                     TXB0SIDH        equ	3905	;# 
   346   000F42                     TXB0SIDL        equ	3906	;# 
   347   000F43                     TXB0EIDH        equ	3907	;# 
   348   000F44                     TXB0EIDL        equ	3908	;# 
   349   000F45                     TXB0DLC         equ	3909	;# 
   350   000F46                     TXB0D0          equ	3910	;# 
   351   000F47                     TXB0D1          equ	3911	;# 
   352   000F48                     TXB0D2          equ	3912	;# 
   353   000F49                     TXB0D3          equ	3913	;# 
   354   000F4A                     TXB0D4          equ	3914	;# 
   355   000F4B                     TXB0D5          equ	3915	;# 
   356   000F4C                     TXB0D6          equ	3916	;# 
   357   000F4D                     TXB0D7          equ	3917	;# 
   358   000F4E                     CANSTAT_RO1     equ	3918	;# 
   359   000F4F                     CANCON_RO1      equ	3919	;# 
   360   000F50                     RXB1CON         equ	3920	;# 
   361   000F51                     RXB1SIDH        equ	3921	;# 
   362   000F52                     RXB1SIDL        equ	3922	;# 
   363   000F53                     RXB1EIDH        equ	3923	;# 
   364   000F54                     RXB1EIDL        equ	3924	;# 
   365   000F55                     RXB1DLC         equ	3925	;# 
   366   000F56                     RXB1D0          equ	3926	;# 
   367   000F57                     RXB1D1          equ	3927	;# 
   368   000F58                     RXB1D2          equ	3928	;# 
   369   000F59                     RXB1D3          equ	3929	;# 
   370   000F5A                     RXB1D4          equ	3930	;# 
   371   000F5B                     RXB1D5          equ	3931	;# 
   372   000F5C                     RXB1D6          equ	3932	;# 
   373   000F5D                     RXB1D7          equ	3933	;# 
   374   000F5E                     CANSTAT_RO0     equ	3934	;# 
   375   000F5F                     CANCON_RO0      equ	3935	;# 
   376   000F60                     RXB0CON         equ	3936	;# 
   377   000F61                     RXB0SIDH        equ	3937	;# 
   378   000F62                     RXB0SIDL        equ	3938	;# 
   379   000F63                     RXB0EIDH        equ	3939	;# 
   380   000F64                     RXB0EIDL        equ	3940	;# 
   381   000F65                     RXB0DLC         equ	3941	;# 
   382   000F66                     RXB0D0          equ	3942	;# 
   383   000F67                     RXB0D1          equ	3943	;# 
   384   000F68                     RXB0D2          equ	3944	;# 
   385   000F69                     RXB0D3          equ	3945	;# 
   386   000F6A                     RXB0D4          equ	3946	;# 
   387   000F6B                     RXB0D5          equ	3947	;# 
   388   000F6C                     RXB0D6          equ	3948	;# 
   389   000F6D                     RXB0D7          equ	3949	;# 
   390   000F6E                     CANSTAT         equ	3950	;# 
   391   000F6F                     CANCON          equ	3951	;# 
   392   000F70                     BRGCON1         equ	3952	;# 
   393   000F71                     BRGCON2         equ	3953	;# 
   394   000F72                     BRGCON3         equ	3954	;# 
   395   000F73                     CIOCON          equ	3955	;# 
   396   000F74                     COMSTAT         equ	3956	;# 
   397   000F75                     RXERRCNT        equ	3957	;# 
   398   000F76                     TXERRCNT        equ	3958	;# 
   399   000F77                     ECANCON         equ	3959	;# 
   400   000F80                     PORTA           equ	3968	;# 
   401   000F81                     PORTB           equ	3969	;# 
   402   000F82                     PORTC           equ	3970	;# 
   403   000F83                     PORTD           equ	3971	;# 
   404   000F84                     PORTE           equ	3972	;# 
   405   000F89                     LATA            equ	3977	;# 
   406   000F8A                     LATB            equ	3978	;# 
   407   000F8B                     LATC            equ	3979	;# 
   408   000F8C                     LATD            equ	3980	;# 
   409   000F8D                     LATE            equ	3981	;# 
   410   000F92                     TRISA           equ	3986	;# 
   411   000F92                     DDRA            equ	3986	;# 
   412   000F93                     TRISB           equ	3987	;# 
   413   000F93                     DDRB            equ	3987	;# 
   414   000F94                     TRISC           equ	3988	;# 
   415   000F94                     DDRC            equ	3988	;# 
   416   000F95                     TRISD           equ	3989	;# 
   417   000F95                     DDRD            equ	3989	;# 
   418   000F96                     TRISE           equ	3990	;# 
   419   000F96                     DDRE            equ	3990	;# 
   420   000F9B                     OSCTUNE         equ	3995	;# 
   421   000F9D                     PIE1            equ	3997	;# 
   422   000F9E                     PIR1            equ	3998	;# 
   423   000F9F                     IPR1            equ	3999	;# 
   424   000FA0                     PIE2            equ	4000	;# 
   425   000FA1                     PIR2            equ	4001	;# 
   426   000FA2                     IPR2            equ	4002	;# 
   427   000FA3                     PIE3            equ	4003	;# 
   428   000FA4                     PIR3            equ	4004	;# 
   429   000FA5                     IPR3            equ	4005	;# 
   430   000FA6                     EECON1          equ	4006	;# 
   431   000FA7                     EECON2          equ	4007	;# 
   432   000FA8                     EEDATA          equ	4008	;# 
   433   000FA9                     EEADR           equ	4009	;# 
   434   000FAB                     RCSTA           equ	4011	;# 
   435   000FAB                     RCSTA1          equ	4011	;# 
   436   000FAC                     TXSTA           equ	4012	;# 
   437   000FAC                     TXSTA1          equ	4012	;# 
   438   000FAD                     TXREG           equ	4013	;# 
   439   000FAD                     TXREG1          equ	4013	;# 
   440   000FAE                     RCREG           equ	4014	;# 
   441   000FAE                     RCREG1          equ	4014	;# 
   442   000FAF                     SPBRG           equ	4015	;# 
   443   000FAF                     SPBRG1          equ	4015	;# 
   444   000FB0                     SPBRGH          equ	4016	;# 
   445   000FB1                     T3CON           equ	4017	;# 
   446   000FB2                     TMR3            equ	4018	;# 
   447   000FB2                     TMR3L           equ	4018	;# 
   448   000FB3                     TMR3H           equ	4019	;# 
   449   000FB4                     CMCON           equ	4020	;# 
   450   000FB5                     CVRCON          equ	4021	;# 
   451   000FB6                     ECCP1AS         equ	4022	;# 
   452   000FB7                     ECCP1DEL        equ	4023	;# 
   453   000FB8                     BAUDCON         equ	4024	;# 
   454   000FB8                     BAUDCTL         equ	4024	;# 
   455   000FBA                     ECCP1CON        equ	4026	;# 
   456   000FBB                     ECCPR1          equ	4027	;# 
   457   000FBB                     ECCPR1L         equ	4027	;# 
   458   000FBC                     ECCPR1H         equ	4028	;# 
   459   000FBD                     CCP1CON         equ	4029	;# 
   460   000FBE                     CCPR1           equ	4030	;# 
   461   000FBE                     CCPR1L          equ	4030	;# 
   462   000FBF                     CCPR1H          equ	4031	;# 
   463   000FC0                     ADCON2          equ	4032	;# 
   464   000FC1                     ADCON1          equ	4033	;# 
   465   000FC2                     ADCON0          equ	4034	;# 
   466   000FC3                     ADRES           equ	4035	;# 
   467   000FC3                     ADRESL          equ	4035	;# 
   468   000FC4                     ADRESH          equ	4036	;# 
   469   000FC5                     SSPCON2         equ	4037	;# 
   470   000FC6                     SSPCON1         equ	4038	;# 
   471   000FC7                     SSPSTAT         equ	4039	;# 
   472   000FC8                     SSPADD          equ	4040	;# 
   473   000FC9                     SSPBUF          equ	4041	;# 
   474   000FCA                     T2CON           equ	4042	;# 
   475   000FCB                     PR2             equ	4043	;# 
   476   000FCB                     MEMCON          equ	4043	;# 
   477   000FCC                     TMR2            equ	4044	;# 
   478   000FCD                     T1CON           equ	4045	;# 
   479   000FCE                     TMR1            equ	4046	;# 
   480   000FCE                     TMR1L           equ	4046	;# 
   481   000FCF                     TMR1H           equ	4047	;# 
   482   000FD0                     RCON            equ	4048	;# 
   483   000FD1                     WDTCON          equ	4049	;# 
   484   000FD2                     HLVDCON         equ	4050	;# 
   485   000FD2                     LVDCON          equ	4050	;# 
   486   000FD3                     OSCCON          equ	4051	;# 
   487   000FD5                     T0CON           equ	4053	;# 
   488   000FD6                     TMR0            equ	4054	;# 
   489   000FD6                     TMR0L           equ	4054	;# 
   490   000FD7                     TMR0H           equ	4055	;# 
   491   000FD8                     STATUS          equ	4056	;# 
   492   000FD9                     FSR2            equ	4057	;# 
   493   000FD9                     FSR2L           equ	4057	;# 
   494   000FDA                     FSR2H           equ	4058	;# 
   495   000FDB                     PLUSW2          equ	4059	;# 
   496   000FDC                     PREINC2         equ	4060	;# 
   497   000FDD                     POSTDEC2        equ	4061	;# 
   498   000FDE                     POSTINC2        equ	4062	;# 
   499   000FDF                     INDF2           equ	4063	;# 
   500   000FE0                     BSR             equ	4064	;# 
   501   000FE1                     FSR1            equ	4065	;# 
   502   000FE1                     FSR1L           equ	4065	;# 
   503   000FE2                     FSR1H           equ	4066	;# 
   504   000FE3                     PLUSW1          equ	4067	;# 
   505   000FE4                     PREINC1         equ	4068	;# 
   506   000FE5                     POSTDEC1        equ	4069	;# 
   507   000FE6                     POSTINC1        equ	4070	;# 
   508   000FE7                     INDF1           equ	4071	;# 
   509   000FE8                     WREG            equ	4072	;# 
   510   000FE9                     FSR0            equ	4073	;# 
   511   000FE9                     FSR0L           equ	4073	;# 
   512   000FEA                     FSR0H           equ	4074	;# 
   513   000FEB                     PLUSW0          equ	4075	;# 
   514   000FEC                     PREINC0         equ	4076	;# 
   515   000FED                     POSTDEC0        equ	4077	;# 
   516   000FEE                     POSTINC0        equ	4078	;# 
   517   000FEF                     INDF0           equ	4079	;# 
   518   000FF0                     INTCON3         equ	4080	;# 
   519   000FF1                     INTCON2         equ	4081	;# 
   520   000FF2                     INTCON          equ	4082	;# 
   521   000FF3                     PROD            equ	4083	;# 
   522   000FF3                     PRODL           equ	4083	;# 
   523   000FF4                     PRODH           equ	4084	;# 
   524   000FF5                     TABLAT          equ	4085	;# 
   525   000FF6                     TBLPTR          equ	4086	;# 
   526   000FF6                     TBLPTRL         equ	4086	;# 
   527   000FF7                     TBLPTRH         equ	4087	;# 
   528   000FF8                     TBLPTRU         equ	4088	;# 
   529   000FF9                     PCLAT           equ	4089	;# 
   530   000FF9                     PC              equ	4089	;# 
   531   000FF9                     PCL             equ	4089	;# 
   532   000FFA                     PCLATH          equ	4090	;# 
   533   000FFB                     PCLATU          equ	4091	;# 
   534   000FFC                     STKPTR          equ	4092	;# 
   535   000FFD                     TOS             equ	4093	;# 
   536   000FFD                     TOSL            equ	4093	;# 
   537   000FFE                     TOSH            equ	4094	;# 
   538   000FFF                     TOSU            equ	4095	;# 
   539                           
   540                           	psect	mediumconst
   541   007E16                     __pmediumconst:
   542                           	callstack 0
   543   007E16  00                 	db	0
   544   007E17                     _TEXT5x8:
   545                           	callstack 0
   546   007E17  00                 	db	0
   547   007E18  00                 	db	0
   548   007E19  00                 	db	0
   549   007E1A  00                 	db	0
   550   007E1B  00                 	db	0
   551   007E1C  00                 	db	0
   552   007E1D  00                 	db	0
   553   007E1E  5F                 	db	95
   554   007E1F  00                 	db	0
   555   007E20  00                 	db	0
   556   007E21  00                 	db	0
   557   007E22  03                 	db	3
   558   007E23  00                 	db	0
   559   007E24  03                 	db	3
   560   007E25  00                 	db	0
   561   007E26  14                 	db	20
   562   007E27  3E                 	db	62
   563   007E28  14                 	db	20
   564   007E29  3E                 	db	62
   565   007E2A  14                 	db	20
   566   007E2B  24                 	db	36
   567   007E2C  2A                 	db	42
   568   007E2D  7F                 	db	127
   569   007E2E  2A                 	db	42
   570   007E2F  12                 	db	18
   571   007E30  43                 	db	67
   572   007E31  33                 	db	51
   573   007E32  08                 	db	8
   574   007E33  66                 	db	102
   575   007E34  61                 	db	97
   576   007E35  36                 	db	54
   577   007E36  49                 	db	73
   578   007E37  55                 	db	85
   579   007E38  22                 	db	34
   580   007E39  50                 	db	80
   581   007E3A  00                 	db	0
   582   007E3B  05                 	db	5
   583   007E3C  03                 	db	3
   584   007E3D  00                 	db	0
   585   007E3E  00                 	db	0
   586   007E3F  00                 	db	0
   587   007E40  1C                 	db	28
   588   007E41  22                 	db	34
   589   007E42  41                 	db	65
   590   007E43  00                 	db	0
   591   007E44  00                 	db	0
   592   007E45  41                 	db	65
   593   007E46  22                 	db	34
   594   007E47  1C                 	db	28
   595   007E48  00                 	db	0
   596   007E49  14                 	db	20
   597   007E4A  08                 	db	8
   598   007E4B  3E                 	db	62
   599   007E4C  08                 	db	8
   600   007E4D  14                 	db	20
   601   007E4E  08                 	db	8
   602   007E4F  08                 	db	8
   603   007E50  3E                 	db	62
   604   007E51  08                 	db	8
   605   007E52  08                 	db	8
   606   007E53  00                 	db	0
   607   007E54  50                 	db	80
   608   007E55  30                 	db	48
   609   007E56  00                 	db	0
   610   007E57  00                 	db	0
   611   007E58  08                 	db	8
   612   007E59  08                 	db	8
   613   007E5A  08                 	db	8
   614   007E5B  08                 	db	8
   615   007E5C  08                 	db	8
   616   007E5D  00                 	db	0
   617   007E5E  60                 	db	96
   618   007E5F  60                 	db	96
   619   007E60  00                 	db	0
   620   007E61  00                 	db	0
   621   007E62  20                 	db	32
   622   007E63  10                 	db	16
   623   007E64  08                 	db	8
   624   007E65  04                 	db	4
   625   007E66  02                 	db	2
   626   007E67  3E                 	db	62
   627   007E68  51                 	db	81
   628   007E69  49                 	db	73
   629   007E6A  45                 	db	69
   630   007E6B  3E                 	db	62
   631   007E6C  04                 	db	4
   632   007E6D  02                 	db	2
   633   007E6E  7F                 	db	127
   634   007E6F  00                 	db	0
   635   007E70  00                 	db	0
   636   007E71  42                 	db	66
   637   007E72  61                 	db	97
   638   007E73  51                 	db	81
   639   007E74  49                 	db	73
   640   007E75  46                 	db	70
   641   007E76  22                 	db	34
   642   007E77  41                 	db	65
   643   007E78  49                 	db	73
   644   007E79  49                 	db	73
   645   007E7A  36                 	db	54
   646   007E7B  18                 	db	24
   647   007E7C  14                 	db	20
   648   007E7D  12                 	db	18
   649   007E7E  7F                 	db	127
   650   007E7F  10                 	db	16
   651   007E80  27                 	db	39
   652   007E81  45                 	db	69
   653   007E82  45                 	db	69
   654   007E83  45                 	db	69
   655   007E84  39                 	db	57
   656   007E85  3E                 	db	62
   657   007E86  49                 	db	73
   658   007E87  49                 	db	73
   659   007E88  49                 	db	73
   660   007E89  32                 	db	50
   661   007E8A  01                 	db	1
   662   007E8B  01                 	db	1
   663   007E8C  71                 	db	113
   664   007E8D  09                 	db	9
   665   007E8E  07                 	db	7
   666   007E8F  36                 	db	54
   667   007E90  49                 	db	73
   668   007E91  49                 	db	73
   669   007E92  49                 	db	73
   670   007E93  36                 	db	54
   671   007E94  26                 	db	38
   672   007E95  49                 	db	73
   673   007E96  49                 	db	73
   674   007E97  49                 	db	73
   675   007E98  3E                 	db	62
   676   007E99  00                 	db	0
   677   007E9A  36                 	db	54
   678   007E9B  36                 	db	54
   679   007E9C  00                 	db	0
   680   007E9D  00                 	db	0
   681   007E9E  00                 	db	0
   682   007E9F  56                 	db	86
   683   007EA0  36                 	db	54
   684   007EA1  00                 	db	0
   685   007EA2  00                 	db	0
   686   007EA3  08                 	db	8
   687   007EA4  14                 	db	20
   688   007EA5  22                 	db	34
   689   007EA6  41                 	db	65
   690   007EA7  00                 	db	0
   691   007EA8  14                 	db	20
   692   007EA9  14                 	db	20
   693   007EAA  14                 	db	20
   694   007EAB  14                 	db	20
   695   007EAC  14                 	db	20
   696   007EAD  00                 	db	0
   697   007EAE  41                 	db	65
   698   007EAF  22                 	db	34
   699   007EB0  14                 	db	20
   700   007EB1  08                 	db	8
   701   007EB2  02                 	db	2
   702   007EB3  01                 	db	1
   703   007EB4  51                 	db	81
   704   007EB5  09                 	db	9
   705   007EB6  06                 	db	6
   706   007EB7  3E                 	db	62
   707   007EB8  41                 	db	65
   708   007EB9  59                 	db	89
   709   007EBA  55                 	db	85
   710   007EBB  5E                 	db	94
   711   007EBC  7E                 	db	126
   712   007EBD  09                 	db	9
   713   007EBE  09                 	db	9
   714   007EBF  09                 	db	9
   715   007EC0  7E                 	db	126
   716   007EC1  7F                 	db	127
   717   007EC2  49                 	db	73
   718   007EC3  49                 	db	73
   719   007EC4  49                 	db	73
   720   007EC5  36                 	db	54
   721   007EC6  3E                 	db	62
   722   007EC7  41                 	db	65
   723   007EC8  41                 	db	65
   724   007EC9  41                 	db	65
   725   007ECA  22                 	db	34
   726   007ECB  7F                 	db	127
   727   007ECC  41                 	db	65
   728   007ECD  41                 	db	65
   729   007ECE  41                 	db	65
   730   007ECF  3E                 	db	62
   731   007ED0  7F                 	db	127
   732   007ED1  49                 	db	73
   733   007ED2  49                 	db	73
   734   007ED3  49                 	db	73
   735   007ED4  41                 	db	65
   736   007ED5  7F                 	db	127
   737   007ED6  09                 	db	9
   738   007ED7  09                 	db	9
   739   007ED8  09                 	db	9
   740   007ED9  01                 	db	1
   741   007EDA  3E                 	db	62
   742   007EDB  41                 	db	65
   743   007EDC  41                 	db	65
   744   007EDD  49                 	db	73
   745   007EDE  3A                 	db	58
   746   007EDF  7F                 	db	127
   747   007EE0  08                 	db	8
   748   007EE1  08                 	db	8
   749   007EE2  08                 	db	8
   750   007EE3  7F                 	db	127
   751   007EE4  00                 	db	0
   752   007EE5  41                 	db	65
   753   007EE6  7F                 	db	127
   754   007EE7  41                 	db	65
   755   007EE8  00                 	db	0
   756   007EE9  30                 	db	48
   757   007EEA  40                 	db	64
   758   007EEB  40                 	db	64
   759   007EEC  40                 	db	64
   760   007EED  3F                 	db	63
   761   007EEE  7F                 	db	127
   762   007EEF  08                 	db	8
   763   007EF0  14                 	db	20
   764   007EF1  22                 	db	34
   765   007EF2  41                 	db	65
   766   007EF3  7F                 	db	127
   767   007EF4  40                 	db	64
   768   007EF5  40                 	db	64
   769   007EF6  40                 	db	64
   770   007EF7  40                 	db	64
   771   007EF8  7F                 	db	127
   772   007EF9  02                 	db	2
   773   007EFA  0C                 	db	12
   774   007EFB  02                 	db	2
   775   007EFC  7F                 	db	127
   776   007EFD  7F                 	db	127
   777   007EFE  02                 	db	2
   778   007EFF  04                 	db	4
   779   007F00  08                 	db	8
   780   007F01  7F                 	db	127
   781   007F02  3E                 	db	62
   782   007F03  41                 	db	65
   783   007F04  41                 	db	65
   784   007F05  41                 	db	65
   785   007F06  3E                 	db	62
   786   007F07  7F                 	db	127
   787   007F08  09                 	db	9
   788   007F09  09                 	db	9
   789   007F0A  09                 	db	9
   790   007F0B  06                 	db	6
   791   007F0C  1E                 	db	30
   792   007F0D  21                 	db	33
   793   007F0E  21                 	db	33
   794   007F0F  21                 	db	33
   795   007F10  5E                 	db	94
   796   007F11  7F                 	db	127
   797   007F12  09                 	db	9
   798   007F13  09                 	db	9
   799   007F14  09                 	db	9
   800   007F15  76                 	db	118
   801   007F16  26                 	db	38
   802   007F17  49                 	db	73
   803   007F18  49                 	db	73
   804   007F19  49                 	db	73
   805   007F1A  32                 	db	50
   806   007F1B  01                 	db	1
   807   007F1C  01                 	db	1
   808   007F1D  7F                 	db	127
   809   007F1E  01                 	db	1
   810   007F1F  01                 	db	1
   811   007F20  3F                 	db	63
   812   007F21  40                 	db	64
   813   007F22  40                 	db	64
   814   007F23  40                 	db	64
   815   007F24  3F                 	db	63
   816   007F25  1F                 	db	31
   817   007F26  20                 	db	32
   818   007F27  40                 	db	64
   819   007F28  20                 	db	32
   820   007F29  1F                 	db	31
   821   007F2A  7F                 	db	127
   822   007F2B  20                 	db	32
   823   007F2C  10                 	db	16
   824   007F2D  20                 	db	32
   825   007F2E  7F                 	db	127
   826   007F2F  41                 	db	65
   827   007F30  22                 	db	34
   828   007F31  1C                 	db	28
   829   007F32  22                 	db	34
   830   007F33  41                 	db	65
   831   007F34  07                 	db	7
   832   007F35  08                 	db	8
   833   007F36  70                 	db	112
   834   007F37  08                 	db	8
   835   007F38  07                 	db	7
   836   007F39  61                 	db	97
   837   007F3A  51                 	db	81
   838   007F3B  49                 	db	73
   839   007F3C  45                 	db	69
   840   007F3D  43                 	db	67
   841   007F3E  00                 	db	0
   842   007F3F  7F                 	db	127
   843   007F40  41                 	db	65
   844   007F41  00                 	db	0
   845   007F42  00                 	db	0
   846   007F43  02                 	db	2
   847   007F44  04                 	db	4
   848   007F45  08                 	db	8
   849   007F46  10                 	db	16
   850   007F47  20                 	db	32
   851   007F48  00                 	db	0
   852   007F49  00                 	db	0
   853   007F4A  41                 	db	65
   854   007F4B  7F                 	db	127
   855   007F4C  00                 	db	0
   856   007F4D  04                 	db	4
   857   007F4E  02                 	db	2
   858   007F4F  01                 	db	1
   859   007F50  02                 	db	2
   860   007F51  04                 	db	4
   861   007F52  40                 	db	64
   862   007F53  40                 	db	64
   863   007F54  40                 	db	64
   864   007F55  40                 	db	64
   865   007F56  40                 	db	64
   866   007F57  00                 	db	0
   867   007F58  01                 	db	1
   868   007F59  02                 	db	2
   869   007F5A  04                 	db	4
   870   007F5B  00                 	db	0
   871   007F5C  20                 	db	32
   872   007F5D  54                 	db	84
   873   007F5E  54                 	db	84
   874   007F5F  54                 	db	84
   875   007F60  78                 	db	120
   876   007F61  7F                 	db	127
   877   007F62  44                 	db	68
   878   007F63  44                 	db	68
   879   007F64  44                 	db	68
   880   007F65  38                 	db	56
   881   007F66  38                 	db	56
   882   007F67  44                 	db	68
   883   007F68  44                 	db	68
   884   007F69  44                 	db	68
   885   007F6A  44                 	db	68
   886   007F6B  38                 	db	56
   887   007F6C  44                 	db	68
   888   007F6D  44                 	db	68
   889   007F6E  44                 	db	68
   890   007F6F  7F                 	db	127
   891   007F70  38                 	db	56
   892   007F71  54                 	db	84
   893   007F72  54                 	db	84
   894   007F73  54                 	db	84
   895   007F74  18                 	db	24
   896   007F75  04                 	db	4
   897   007F76  04                 	db	4
   898   007F77  7E                 	db	126
   899   007F78  05                 	db	5
   900   007F79  05                 	db	5
   901   007F7A  08                 	db	8
   902   007F7B  54                 	db	84
   903   007F7C  54                 	db	84
   904   007F7D  54                 	db	84
   905   007F7E  3C                 	db	60
   906   007F7F  7F                 	db	127
   907   007F80  08                 	db	8
   908   007F81  04                 	db	4
   909   007F82  04                 	db	4
   910   007F83  78                 	db	120
   911   007F84  00                 	db	0
   912   007F85  44                 	db	68
   913   007F86  7D                 	db	125
   914   007F87  40                 	db	64
   915   007F88  00                 	db	0
   916   007F89  20                 	db	32
   917   007F8A  40                 	db	64
   918   007F8B  44                 	db	68
   919   007F8C  3D                 	db	61
   920   007F8D  00                 	db	0
   921   007F8E  7F                 	db	127
   922   007F8F  10                 	db	16
   923   007F90  28                 	db	40
   924   007F91  44                 	db	68
   925   007F92  00                 	db	0
   926   007F93  00                 	db	0
   927   007F94  41                 	db	65
   928   007F95  7F                 	db	127
   929   007F96  40                 	db	64
   930   007F97  00                 	db	0
   931   007F98  7C                 	db	124
   932   007F99  04                 	db	4
   933   007F9A  78                 	db	120
   934   007F9B  04                 	db	4
   935   007F9C  78                 	db	120
   936   007F9D  7C                 	db	124
   937   007F9E  08                 	db	8
   938   007F9F  04                 	db	4
   939   007FA0  04                 	db	4
   940   007FA1  78                 	db	120
   941   007FA2  38                 	db	56
   942   007FA3  44                 	db	68
   943   007FA4  44                 	db	68
   944   007FA5  44                 	db	68
   945   007FA6  38                 	db	56
   946   007FA7  7C                 	db	124
   947   007FA8  14                 	db	20
   948   007FA9  14                 	db	20
   949   007FAA  14                 	db	20
   950   007FAB  08                 	db	8
   951   007FAC  08                 	db	8
   952   007FAD  14                 	db	20
   953   007FAE  14                 	db	20
   954   007FAF  14                 	db	20
   955   007FB0  7C                 	db	124
   956   007FB1  00                 	db	0
   957   007FB2  7C                 	db	124
   958   007FB3  08                 	db	8
   959   007FB4  04                 	db	4
   960   007FB5  04                 	db	4
   961   007FB6  48                 	db	72
   962   007FB7  54                 	db	84
   963   007FB8  54                 	db	84
   964   007FB9  54                 	db	84
   965   007FBA  20                 	db	32
   966   007FBB  04                 	db	4
   967   007FBC  04                 	db	4
   968   007FBD  3F                 	db	63
   969   007FBE  44                 	db	68
   970   007FBF  44                 	db	68
   971   007FC0  3C                 	db	60
   972   007FC1  40                 	db	64
   973   007FC2  40                 	db	64
   974   007FC3  20                 	db	32
   975   007FC4  7C                 	db	124
   976   007FC5  1C                 	db	28
   977   007FC6  20                 	db	32
   978   007FC7  40                 	db	64
   979   007FC8  20                 	db	32
   980   007FC9  1C                 	db	28
   981   007FCA  3C                 	db	60
   982   007FCB  40                 	db	64
   983   007FCC  30                 	db	48
   984   007FCD  40                 	db	64
   985   007FCE  3C                 	db	60
   986   007FCF  44                 	db	68
   987   007FD0  28                 	db	40
   988   007FD1  10                 	db	16
   989   007FD2  28                 	db	40
   990   007FD3  44                 	db	68
   991   007FD4  0C                 	db	12
   992   007FD5  50                 	db	80
   993   007FD6  50                 	db	80
   994   007FD7  50                 	db	80
   995   007FD8  3C                 	db	60
   996   007FD9  44                 	db	68
   997   007FDA  64                 	db	100
   998   007FDB  54                 	db	84
   999   007FDC  4C                 	db	76
  1000   007FDD  44                 	db	68
  1001   007FDE  00                 	db	0
  1002   007FDF  08                 	db	8
  1003   007FE0  36                 	db	54
  1004   007FE1  41                 	db	65
  1005   007FE2  41                 	db	65
  1006   007FE3  00                 	db	0
  1007   007FE4  00                 	db	0
  1008   007FE5  7F                 	db	127
  1009   007FE6  00                 	db	0
  1010   007FE7  00                 	db	0
  1011   007FE8  41                 	db	65
  1012   007FE9  41                 	db	65
  1013   007FEA  36                 	db	54
  1014   007FEB  08                 	db	8
  1015   007FEC  00                 	db	0
  1016   007FED  02                 	db	2
  1017   007FEE  01                 	db	1
  1018   007FEF  02                 	db	2
  1019   007FF0  04                 	db	4
  1020   007FF1  02                 	db	2
  1021   007FF2  FF                 	db	255
  1022   007FF3  81                 	db	129
  1023   007FF4  81                 	db	129
  1024   007FF5  81                 	db	129
  1025   007FF6  FF                 	db	255
  1026   007FF7                     __end_of_TEXT5x8:
  1027                           	callstack 0
  1028   000FCA                     _T2CON          set	4042
  1029   000FCD                     _T1CON          set	4045
  1030   000F95                     _TRISDbits      set	3989
  1031   000F94                     _TRISCbits      set	3988
  1032   000F94                     _TRISC          set	3988
  1033   000F95                     _TRISD          set	3989
  1034   000FB4                     _CMCON          set	4020
  1035   000FC1                     _ADCON1         set	4033
  1036   000FD3                     _OSCCON         set	4051
  1037   000FCC                     _TMR2           set	4044
  1038   000FCB                     _PR2            set	4043
  1039   000FCD                     _T1CONbits      set	4045
  1040   000F83                     _PORTDbits      set	3971
  1041   000FCE                     _TMR1L          set	4046
  1042   000FCF                     _TMR1H          set	4047
  1043   000FCA                     _T2CONbits      set	4042
  1044   000F8C                     _LATDbits       set	3980
  1045   000F9E                     _PIR1bits       set	3998
  1046   000FAE                     _RCREG          set	4014
  1047   000FAD                     _TXREG          set	4013
  1048   000FF2                     _INTCONbits     set	4082
  1049   000F9D                     _PIE1bits       set	3997
  1050   000FB0                     _SPBRGH         set	4016
  1051   000FAF                     _SPBRG          set	4015
  1052   000FC9                     _SSPBUF         set	4041
  1053   000FC7                     _SSPSTAT        set	4039
  1054   000FC8                     _SSPADD         set	4040
  1055   000FC5                     _SSPCON2        set	4037
  1056   000FC6                     _SSPCON1        set	4038
  1057   007CF5                     _RCIF           set	31989
  1058   007CF4                     _TXIF           set	31988
  1059   007D65                     _TXEN           set	32101
  1060   007D66                     _TX9            set	32102
  1061   007D5C                     _CREN           set	32092
  1062   007D5E                     _RX9            set	32094
  1063   007D5F                     _SPEN           set	32095
  1064   007D64                     _SYNC           set	32100
  1065   007DC3                     _BRG16          set	32195
  1066   007D62                     _BRGH           set	32098
  1067   007CF3                     _SSPIF          set	31987
  1068   007E2A                     _PEN            set	32298
  1069   007E28                     _SEN            set	32296
  1070   007FF7                     STR_1:
  1071   007FF7  25                 	db	37
  1072   007FF8  75                 	db	117	;'u'
  1073   007FF9  20                 	db	32
  1074   007FFA  63                 	db	99	;'c'
  1075   007FFB  6D                 	db	109	;'m'
  1076   007FFC  0A                 	db	10
  1077   007FFD  00                 	db	0
  1078   007FFE  00                 	db	0	; dummy byte at the end
  1079   007E16                     __smallconst    set	__pmediumconst
  1080   007E16                     __mediumconst   set	__pmediumconst
  1081   000002                     __activetblptr  equ	2
  1082                           
  1083                           ; #config settings
  1084                           
  1085                           	psect	cinit
  1086   001578                     __pcinit:
  1087                           	callstack 0
  1088   001578                     start_initialization:
  1089                           	callstack 0
  1090   001578                     __initialization:
  1091                           	callstack 0
  1092                           
  1093                           ; Clear objects allocated to BANK0 (32 bytes)
  1094   001578  EE00  F060         	lfsr	0,__pbssBANK0
  1095   00157C  0E20               	movlw	32
  1096   00157E                     clear_0:
  1097   00157E  6AEE               	clrf	postinc0,c
  1098   001580  06E8               	decf	wreg,f,c
  1099   001582  E1FD               	bnz	clear_0
  1100                           
  1101                           ; Clear objects allocated to COMRAM (11 bytes)
  1102   001584  EE00  F041         	lfsr	0,__pbssCOMRAM
  1103   001588  0E0B               	movlw	11
  1104   00158A                     clear_1:
  1105   00158A  6AEE               	clrf	postinc0,c
  1106   00158C  06E8               	decf	wreg,f,c
  1107   00158E  E1FD               	bnz	clear_1
  1108   001590                     end_of_initialization:
  1109                           	callstack 0
  1110   001590                     __end_of__initialization:
  1111                           	callstack 0
  1112   001590  904C               	bcf	int$flags,0,c	;clear compiler interrupt flag (level 1)
  1113   001592  924C               	bcf	int$flags,1,c	;clear compiler interrupt flag (level 2)
  1114   001594  0E00               	movlw	low (__Lmediumconst shr (0+16))
  1115   001596  6EF8               	movwf	tblptru,c
  1116   001598  0100               	movlb	0
  1117   00159A  EF8B  F004         	goto	_main	;jump to C main() function
  1118                           
  1119                           	psect	bssCOMRAM
  1120   000041                     __pbssCOMRAM:
  1121                           	callstack 0
  1122   000041                     _tone_toggle_count:
  1123                           	callstack 0
  1124   000041                     	ds	4
  1125   000045                     _width:
  1126                           	callstack 0
  1127   000045                     	ds	2
  1128   000047                     _prec:
  1129                           	callstack 0
  1130   000047                     	ds	2
  1131   000049                     _flags:
  1132                           	callstack 0
  1133   000049                     	ds	1
  1134   00004A                     _rxFlag:
  1135                           	callstack 0
  1136   00004A                     	ds	1
  1137   00004B                     _rxData:
  1138                           	callstack 0
  1139   00004B                     	ds	1
  1140                           
  1141                           	psect	bssBANK0
  1142   000060                     __pbssBANK0:
  1143                           	callstack 0
  1144   000060                     _dbuf:
  1145                           	callstack 0
  1146   000060                     	ds	32
  1147                           
  1148                           	psect	cstackCOMRAM
  1149   000001                     __pcstackCOMRAM:
  1150                           	callstack 0
  1151   000001                     ?___lwdiv:
  1152                           	callstack 0
  1153   000001                     ?___lwmod:
  1154                           	callstack 0
  1155   000001                     ?___lmul:
  1156                           	callstack 0
  1157   000001                     ?___xxtofl:
  1158                           	callstack 0
  1159   000001                     SendByte@ch:
  1160                           	callstack 0
  1161   000001                     memcpy@d1:
  1162                           	callstack 0
  1163   000001                     ___lwdiv@dividend:
  1164                           	callstack 0
  1165   000001                     ___lwmod@dividend:
  1166                           	callstack 0
  1167   000001                     fputc@c:
  1168                           	callstack 0
  1169   000001                     ___lmul@multiplier:
  1170                           	callstack 0
  1171   000001                     ___xxtofl@val:
  1172                           	callstack 0
  1173   000001                     ??_I2C_Hold:
  1174   000001                     
  1175                           ; 1 bytes @ 0x0
  1176   000001                     	ds	1
  1177   000002                     I2C_Write@data:
  1178                           	callstack 0
  1179   000002                     SendString@str:
  1180                           	callstack 0
  1181   000002                     memcpy@s1:
  1182                           	callstack 0
  1183   000002                     
  1184                           ; 1 bytes @ 0x1
  1185   000002                     	ds	1
  1186   000003                     SSD1306_WriteCommand@cmd:
  1187                           	callstack 0
  1188   000003                     fputc@fp:
  1189                           	callstack 0
  1190   000003                     SSD1306_ClearScreen@i:
  1191                           	callstack 0
  1192   000003                     ___lwdiv@divisor:
  1193                           	callstack 0
  1194   000003                     ___lwmod@divisor:
  1195                           	callstack 0
  1196   000003                     
  1197                           ; 1 bytes @ 0x2
  1198   000003                     	ds	1
  1199   000004                     memcpy@n:
  1200                           	callstack 0
  1201   000004                     ??_fputc:
  1202   000004                     ??_SSD1306_Init:
  1203                           
  1204                           ; 1 bytes @ 0x3
  1205   000004                     	ds	1
  1206   000005                     ___lwmod@counter:
  1207                           	callstack 0
  1208   000005                     SSD1306_ClearScreen@j:
  1209                           	callstack 0
  1210   000005                     ___lwdiv@quotient:
  1211                           	callstack 0
  1212   000005                     ___lmul@multiplicand:
  1213                           	callstack 0
  1214   000005                     ??___xxtofl:
  1215                           
  1216                           ; 1 bytes @ 0x4
  1217   000005                     	ds	1
  1218   000006                     memcpy@s:
  1219                           	callstack 0
  1220   000006                     
  1221                           ; 1 bytes @ 0x5
  1222   000006                     	ds	1
  1223   000007                     ___lwdiv@counter:
  1224                           	callstack 0
  1225                           
  1226                           ; 1 bytes @ 0x6
  1227   000007                     	ds	1
  1228   000008                     memcpy@tmp:
  1229                           	callstack 0
  1230                           
  1231                           ; 1 bytes @ 0x7
  1232   000008                     	ds	1
  1233   000009                     ___xxtofl@sign:
  1234                           	callstack 0
  1235   000009                     memcpy@d:
  1236                           	callstack 0
  1237   000009                     vfpfcnvrt@fp:
  1238                           	callstack 0
  1239   000009                     ___lmul@product:
  1240                           	callstack 0
  1241   000009                     
  1242                           ; 1 bytes @ 0x8
  1243   000009                     	ds	1
  1244   00000A                     SSD1306_String@data:
  1245                           	callstack 0
  1246   00000A                     ___xxtofl@exp:
  1247                           	callstack 0
  1248   00000A                     vfpfcnvrt@fmt:
  1249                           	callstack 0
  1250                           
  1251                           ; 1 bytes @ 0x9
  1252   00000A                     	ds	1
  1253   00000B                     vfpfcnvrt@ap:
  1254                           	callstack 0
  1255   00000B                     ___xxtofl@arg:
  1256                           	callstack 0
  1257   00000B                     ??_SSD1306_String:
  1258                           
  1259                           ; 1 bytes @ 0xA
  1260   00000B                     	ds	1
  1261   00000C                     ??_vfpfcnvrt:
  1262                           
  1263                           ; 1 bytes @ 0xB
  1264   00000C                     	ds	1
  1265   00000D                     ?___lldiv:
  1266                           	callstack 0
  1267   00000D                     ___lldiv@dividend:
  1268                           	callstack 0
  1269                           
  1270                           ; 4 bytes @ 0xC
  1271   00000D                     	ds	1
  1272   00000E                     vfpfcnvrt@cp:
  1273                           	callstack 0
  1274                           
  1275                           ; 2 bytes @ 0xD
  1276   00000E                     	ds	1
  1277   00000F                     ?___flmul:
  1278                           	callstack 0
  1279   00000F                     ___flmul@b:
  1280                           	callstack 0
  1281                           
  1282                           ; 4 bytes @ 0xE
  1283   00000F                     	ds	1
  1284   000010                     vfpfcnvrt@convarg:
  1285                           	callstack 0
  1286   000010                     SSD1306_String@pixData:
  1287                           	callstack 0
  1288                           
  1289                           ; 5 bytes @ 0xF
  1290   000010                     	ds	1
  1291   000011                     ___lldiv@divisor:
  1292                           	callstack 0
  1293                           
  1294                           ; 4 bytes @ 0x10
  1295   000011                     	ds	2
  1296   000013                     ___flmul@a:
  1297                           	callstack 0
  1298                           
  1299                           ; 4 bytes @ 0x12
  1300   000013                     	ds	1
  1301   000014                     vfpfcnvrt@c:
  1302                           	callstack 0
  1303                           
  1304                           ; 1 bytes @ 0x13
  1305   000014                     	ds	1
  1306   000015                     ?_vfprintf:
  1307                           	callstack 0
  1308   000015                     vfprintf@fp:
  1309                           	callstack 0
  1310   000015                     SSD1306_String@a:
  1311                           	callstack 0
  1312   000015                     ___lldiv@quotient:
  1313                           	callstack 0
  1314   000015                     
  1315                           ; 1 bytes @ 0x14
  1316   000015                     	ds	1
  1317   000016                     vfprintf@fmt:
  1318                           	callstack 0
  1319                           
  1320                           ; 2 bytes @ 0x15
  1321   000016                     	ds	1
  1322   000017                     SSD1306_String@i:
  1323                           	callstack 0
  1324   000017                     ??___flmul:
  1325                           
  1326                           ; 1 bytes @ 0x16
  1327   000017                     	ds	1
  1328   000018                     vfprintf@ap:
  1329                           	callstack 0
  1330                           
  1331                           ; 1 bytes @ 0x17
  1332   000018                     	ds	1
  1333   000019                     ___lldiv@counter:
  1334                           	callstack 0
  1335   000019                     vfprintf@cfmt:
  1336                           	callstack 0
  1337   000019                     
  1338                           ; 1 bytes @ 0x18
  1339   000019                     	ds	1
  1340   00001A                     tone@frequency:
  1341                           	callstack 0
  1342                           
  1343                           ; 2 bytes @ 0x19
  1344   00001A                     	ds	1
  1345   00001B                     ?_sprintf:
  1346                           	callstack 0
  1347   00001B                     ___flmul@sign:
  1348                           	callstack 0
  1349   00001B                     sprintf@s:
  1350                           	callstack 0
  1351                           
  1352                           ; 1 bytes @ 0x1A
  1353   00001B                     	ds	1
  1354   00001C                     tone@duration_ms:
  1355                           	callstack 0
  1356   00001C                     sprintf@fmt:
  1357                           	callstack 0
  1358   00001C                     ___flmul@grs:
  1359                           	callstack 0
  1360                           
  1361                           ; 4 bytes @ 0x1B
  1362   00001C                     	ds	2
  1363   00001E                     ??_tone:
  1364                           
  1365                           ; 1 bytes @ 0x1D
  1366   00001E                     	ds	2
  1367   000020                     ___flmul@aexp:
  1368                           	callstack 0
  1369   000020                     sprintf@ap:
  1370                           	callstack 0
  1371   000020                     
  1372                           ; 1 bytes @ 0x1F
  1373   000020                     	ds	1
  1374   000021                     ___flmul@bexp:
  1375                           	callstack 0
  1376   000021                     sprintf@f:
  1377                           	callstack 0
  1378                           
  1379                           ; 11 bytes @ 0x20
  1380   000021                     	ds	1
  1381   000022                     tone@period_us:
  1382                           	callstack 0
  1383   000022                     ___flmul@prod:
  1384                           	callstack 0
  1385                           
  1386                           ; 4 bytes @ 0x21
  1387   000022                     	ds	4
  1388   000026                     tone@pr:
  1389                           	callstack 0
  1390   000026                     ___flmul@temp:
  1391                           	callstack 0
  1392                           
  1393                           ; 2 bytes @ 0x25
  1394   000026                     	ds	2
  1395   000028                     ?___fltol:
  1396                           	callstack 0
  1397   000028                     tone@prescaler_bits:
  1398                           	callstack 0
  1399   000028                     ___fltol@f1:
  1400                           	callstack 0
  1401                           
  1402                           ; 4 bytes @ 0x27
  1403   000028                     	ds	1
  1404   000029                     tone@toggle_time_us:
  1405                           	callstack 0
  1406                           
  1407                           ; 2 bytes @ 0x28
  1408   000029                     	ds	2
  1409   00002B                     ??_playNotes:
  1410   00002B                     ??_playConfusedTone:
  1411   00002B                     ??_playHappyTone:
  1412                           
  1413                           ; 1 bytes @ 0x2A
  1414   00002B                     	ds	1
  1415   00002C                     UpdateScreen@dist:
  1416                           	callstack 0
  1417   00002C                     ??___fltol:
  1418                           
  1419                           ; 1 bytes @ 0x2B
  1420   00002C                     	ds	2
  1421   00002E                     UpdateScreen@a:
  1422                           	callstack 0
  1423   00002E                     
  1424                           ; 1 bytes @ 0x2D
  1425   00002E                     	ds	2
  1426   000030                     ___fltol@sign1:
  1427                           	callstack 0
  1428                           
  1429                           ; 1 bytes @ 0x2F
  1430   000030                     	ds	1
  1431   000031                     ___fltol@exp1:
  1432                           	callstack 0
  1433                           
  1434                           ; 1 bytes @ 0x30
  1435   000031                     	ds	1
  1436   000032                     ?_GetDistance:
  1437                           	callstack 0
  1438                           
  1439                           ; 2 bytes @ 0x31
  1440   000032                     	ds	2
  1441   000034                     ??_GetDistance:
  1442                           
  1443                           ; 1 bytes @ 0x33
  1444   000034                     	ds	2
  1445   000036                     GetDistance@distance_cm:
  1446                           	callstack 0
  1447                           
  1448                           ; 2 bytes @ 0x35
  1449   000036                     	ds	2
  1450   000038                     GetDistance@pulseWidth:
  1451                           	callstack 0
  1452                           
  1453                           ; 2 bytes @ 0x37
  1454   000038                     	ds	2
  1455   00003A                     ??_main:
  1456                           
  1457                           ; 1 bytes @ 0x39
  1458   00003A                     	ds	2
  1459   00003C                     main@dist:
  1460                           	callstack 0
  1461                           
  1462                           ; 2 bytes @ 0x3B
  1463   00003C                     	ds	2
  1464   00003E                     main@oldCmd:
  1465                           	callstack 0
  1466                           
  1467                           ; 1 bytes @ 0x3D
  1468   00003E                     	ds	1
  1469   00003F                     main@updateScn:
  1470                           	callstack 0
  1471                           
  1472                           ; 1 bytes @ 0x3E
  1473   00003F                     	ds	1
  1474   000040                     main@cmd:
  1475                           	callstack 0
  1476                           
  1477                           ; 1 bytes @ 0x3F
  1478   000040                     	ds	1
  1479                           
  1480 ;;
  1481 ;;Main: autosize = 0, tempsize = 2, incstack = 0, save=0
  1482 ;;
  1483 ;; *************** function _main *****************
  1484 ;; Defined at:
  1485 ;;		line 218 in file "main.c"
  1486 ;; Parameters:    Size  Location     Type
  1487 ;;		None
  1488 ;; Auto vars:     Size  Location     Type
  1489 ;;  dist            2   59[COMRAM] unsigned int 
  1490 ;;  cmd             1   63[COMRAM] unsigned char 
  1491 ;;  updateScn       1   62[COMRAM] unsigned char 
  1492 ;;  oldCmd          1   61[COMRAM] unsigned char 
  1493 ;; Return value:  Size  Location     Type
  1494 ;;                  1    wreg      void 
  1495 ;; Registers used:
  1496 ;;		wreg, fsr1l, fsr1h, fsr2l, fsr2h, status,2, status,0, tblptrl, tblptrh, tblptru, prodl, prodh, cstack
  1497 ;; Tracked objects:
  1498 ;;		On entry : 0/0
  1499 ;;		On exit  : 0/0
  1500 ;;		Unchanged: 0/0
  1501 ;; Data sizes:     COMRAM   BANK0   BANK1   BANK2   BANK3   BANK4   BANK5
  1502 ;;      Params:         0       0       0       0       0       0       0
  1503 ;;      Locals:         5       0       0       0       0       0       0
  1504 ;;      Temps:          2       0       0       0       0       0       0
  1505 ;;      Totals:         7       0       0       0       0       0       0
  1506 ;;Total ram usage:        7 bytes
  1507 ;; Hardware stack levels required when called: 8
  1508 ;; This function calls:
  1509 ;;		_GetDistance
  1510 ;;		_I2C_Init
  1511 ;;		_SSD1306_ClearScreen
  1512 ;;		_SSD1306_Init
  1513 ;;		_SendByte
  1514 ;;		_USART_Init
  1515 ;;		_UpdateScreen
  1516 ;;		_playConfusedTone
  1517 ;;		_playHappyTone
  1518 ;;		_playNotes
  1519 ;; This function is called by:
  1520 ;;		Startup code after reset
  1521 ;; This function uses a non-reentrant model
  1522 ;;
  1523                           
  1524                           	psect	text0
  1525   000916                     __ptext0:
  1526                           	callstack 0
  1527   000916                     _main:
  1528                           	callstack 23
  1529   000916                     
  1530                           ;main.c: 219:     OSCCON = 0b01100010;
  1531   000916  0E62               	movlw	98
  1532   000918  6ED3               	movwf	211,c	;volatile
  1533                           
  1534                           ;main.c: 220:     ADCON1 = 0x0F;
  1535   00091A  0E0F               	movlw	15
  1536   00091C  6EC1               	movwf	193,c	;volatile
  1537                           
  1538                           ;main.c: 221:     CMCON = 0x07;
  1539   00091E  0E07               	movlw	7
  1540   000920  6EB4               	movwf	180,c	;volatile
  1541   000922                     
  1542                           ;main.c: 222:     TRISD = 0x00;
  1543   000922  6A95               	clrf	149,c	;volatile
  1544   000924                     
  1545                           ;main.c: 223:     TRISC = 0xFF;
  1546   000924  6894               	setf	148,c	;volatile
  1547   000926                     
  1548                           ;main.c: 224:     TRISCbits.TRISC6 = 0;
  1549   000926  9C94               	bcf	148,6,c	;volatile
  1550   000928                     
  1551                           ;main.c: 225:     TRISDbits.TRISD3 = 1;
  1552   000928  8695               	bsf	149,3,c	;volatile
  1553   00092A                     
  1554                           ;main.c: 226:     TRISDbits.TRISD2 = 0;
  1555   00092A  9495               	bcf	149,2,c	;volatile
  1556   00092C                     
  1557                           ;main.c: 227:     TRISDbits.TRISD1 = 0;
  1558   00092C  9295               	bcf	149,1,c	;volatile
  1559                           
  1560                           ;main.c: 230:     T1CON = 0x10;
  1561   00092E  0E10               	movlw	16
  1562   000930  6ECD               	movwf	205,c	;volatile
  1563   000932                     
  1564                           ;main.c: 232:     T2CON = 0x00;
  1565   000932  6ACA               	clrf	202,c	;volatile
  1566   000934                     
  1567                           ;main.c: 233:     PIE1bits.TMR2IE = 1;
  1568   000934  829D               	bsf	157,1,c	;volatile
  1569   000936                     
  1570                           ;main.c: 234:     PIR1bits.TMR2IF = 0;
  1571   000936  929E               	bcf	158,1,c	;volatile
  1572   000938                     
  1573                           ;main.c: 236:     INTCONbits.PEIE = 1;
  1574   000938  8CF2               	bsf	242,6,c	;volatile
  1575   00093A                     
  1576                           ;main.c: 237:     INTCONbits.GIE = 1;
  1577   00093A  8EF2               	bsf	242,7,c	;volatile
  1578   00093C                     
  1579                           ;main.c: 239:     _delay((unsigned long)((500)*(4000000/4000.0)));
  1580   00093C  0E03               	movlw	3
  1581   00093E  6E3B               	movwf	(??_main+1)^0,c
  1582   000940  0E8A               	movlw	138
  1583   000942  6E3A               	movwf	??_main^0,c
  1584   000944  0E56               	movlw	86
  1585   000946                     u1677:
  1586   000946  2EE8               	decfsz	wreg,f,c
  1587   000948  D7FE               	bra	u1677
  1588   00094A  2E3A               	decfsz	??_main^0,f,c
  1589   00094C  D7FC               	bra	u1677
  1590   00094E  2E3B               	decfsz	(??_main+1)^0,f,c
  1591   000950  D7FA               	bra	u1677
  1592   000952                     
  1593                           ;main.c: 240:     I2C_Init();
  1594   000952  EC2F  F00B         	call	_I2C_Init	;wreg free
  1595   000956                     
  1596                           ;main.c: 241:     _delay((unsigned long)((500)*(4000000/4000.0)));
  1597   000956  0E03               	movlw	3
  1598   000958  6E3B               	movwf	(??_main+1)^0,c
  1599   00095A  0E8A               	movlw	138
  1600   00095C  6E3A               	movwf	??_main^0,c
  1601   00095E  0E56               	movlw	86
  1602   000960                     u1687:
  1603   000960  2EE8               	decfsz	wreg,f,c
  1604   000962  D7FE               	bra	u1687
  1605   000964  2E3A               	decfsz	??_main^0,f,c
  1606   000966  D7FC               	bra	u1687
  1607   000968  2E3B               	decfsz	(??_main+1)^0,f,c
  1608   00096A  D7FA               	bra	u1687
  1609   00096C                     
  1610                           ;main.c: 242:     SSD1306_Init();
  1611   00096C  EC67  F006         	call	_SSD1306_Init	;wreg free
  1612   000970                     
  1613                           ;main.c: 243:     _delay((unsigned long)((500)*(4000000/4000.0)));
  1614   000970  0E03               	movlw	3
  1615   000972  6E3B               	movwf	(??_main+1)^0,c
  1616   000974  0E8A               	movlw	138
  1617   000976  6E3A               	movwf	??_main^0,c
  1618   000978  0E56               	movlw	86
  1619   00097A                     u1697:
  1620   00097A  2EE8               	decfsz	wreg,f,c
  1621   00097C  D7FE               	bra	u1697
  1622   00097E  2E3A               	decfsz	??_main^0,f,c
  1623   000980  D7FC               	bra	u1697
  1624   000982  2E3B               	decfsz	(??_main+1)^0,f,c
  1625   000984  D7FA               	bra	u1697
  1626   000986                     
  1627                           ;main.c: 244:     SSD1306_ClearScreen();
  1628   000986  EC49  F009         	call	_SSD1306_ClearScreen	;wreg free
  1629   00098A                     
  1630                           ;main.c: 245:     _delay((unsigned long)((500)*(4000000/4000.0)));
  1631   00098A  0E03               	movlw	3
  1632   00098C  6E3B               	movwf	(??_main+1)^0,c
  1633   00098E  0E8A               	movlw	138
  1634   000990  6E3A               	movwf	??_main^0,c
  1635   000992  0E56               	movlw	86
  1636   000994                     u1707:
  1637   000994  2EE8               	decfsz	wreg,f,c
  1638   000996  D7FE               	bra	u1707
  1639   000998  2E3A               	decfsz	??_main^0,f,c
  1640   00099A  D7FC               	bra	u1707
  1641   00099C  2E3B               	decfsz	(??_main+1)^0,f,c
  1642   00099E  D7FA               	bra	u1707
  1643   0009A0                     
  1644                           ;main.c: 246:     USART_Init();
  1645   0009A0  ECE2  F00A         	call	_USART_Init	;wreg free
  1646   0009A4                     
  1647                           ;main.c: 247:     _delay((unsigned long)((100)*(4000000/4000.0)));
  1648   0009A4  0E82               	movlw	130
  1649   0009A6  6E3A               	movwf	??_main^0,c
  1650   0009A8  0EDE               	movlw	222
  1651   0009AA                     u1717:
  1652   0009AA  2EE8               	decfsz	wreg,f,c
  1653   0009AC  D7FE               	bra	u1717
  1654   0009AE  2E3A               	decfsz	??_main^0,f,c
  1655   0009B0  D7FC               	bra	u1717
  1656   0009B2                     
  1657                           ;main.c: 249:     unsigned char cmd = 0;
  1658   0009B2  6A40               	clrf	main@cmd^0,c
  1659   0009B4                     
  1660                           ;main.c: 250:     unsigned char oldCmd = 0;
  1661   0009B4  6A3E               	clrf	main@oldCmd^0,c
  1662   0009B6                     
  1663                           ;main.c: 251:     unsigned char updateScn = 0;
  1664   0009B6  6A3F               	clrf	main@updateScn^0,c
  1665   0009B8                     
  1666                           ;main.c: 252:     unsigned int dist = 0;
  1667   0009B8  0E00               	movlw	0
  1668   0009BA  6E3D               	movwf	(main@dist+1)^0,c
  1669   0009BC  0E00               	movlw	0
  1670   0009BE  6E3C               	movwf	main@dist^0,c
  1671   0009C0                     l2359:
  1672                           
  1673                           ;main.c: 256:         if (cmd != oldCmd) {
  1674   0009C0  503E               	movf	main@oldCmd^0,w,c
  1675   0009C2  1840               	xorwf	main@cmd^0,w,c
  1676   0009C4  B4D8               	btfsc	status,2,c
  1677   0009C6  EFE7  F004         	goto	u1601
  1678   0009CA  EFE9  F004         	goto	u1600
  1679   0009CE                     u1601:
  1680   0009CE  EF25  F005         	goto	l2381
  1681   0009D2                     u1600:
  1682   0009D2                     
  1683                           ;main.c: 257:             if (cmd == '1') {
  1684   0009D2  0E31               	movlw	49
  1685   0009D4  1840               	xorwf	main@cmd^0,w,c
  1686   0009D6  A4D8               	btfss	status,2,c
  1687   0009D8  EFF0  F004         	goto	u1611
  1688   0009DC  EFF2  F004         	goto	u1610
  1689   0009E0                     u1611:
  1690   0009E0  EFFA  F004         	goto	l2365
  1691   0009E4                     u1610:
  1692   0009E4                     
  1693                           ;main.c: 258:                 dist = GetDistance();
  1694   0009E4  ECBD  F007         	call	_GetDistance	;wreg free
  1695   0009E8  C032  F03C         	movff	?_GetDistance,main@dist
  1696   0009EC  C033  F03D         	movff	?_GetDistance+1,main@dist+1
  1697                           
  1698                           ;main.c: 259:             }else if (cmd == '2') {
  1699   0009F0  EF21  F005         	goto	l2377
  1700   0009F4                     l2365:
  1701   0009F4  0E32               	movlw	50
  1702   0009F6  1840               	xorwf	main@cmd^0,w,c
  1703   0009F8  A4D8               	btfss	status,2,c
  1704   0009FA  EF01  F005         	goto	u1621
  1705   0009FE  EF03  F005         	goto	u1620
  1706   000A02                     u1621:
  1707   000A02  EF07  F005         	goto	l2369
  1708   000A06                     u1620:
  1709   000A06                     
  1710                           ;main.c: 260:                 playNotes();
  1711   000A06  EC46  F005         	call	_playNotes	;wreg free
  1712                           
  1713                           ;main.c: 261:             }else if (cmd == '3') {
  1714   000A0A  EF21  F005         	goto	l2377
  1715   000A0E                     l2369:
  1716   000A0E  0E33               	movlw	51
  1717   000A10  1840               	xorwf	main@cmd^0,w,c
  1718   000A12  A4D8               	btfss	status,2,c
  1719   000A14  EF0E  F005         	goto	u1631
  1720   000A18  EF10  F005         	goto	u1630
  1721   000A1C                     u1631:
  1722   000A1C  EF14  F005         	goto	l2373
  1723   000A20                     u1630:
  1724   000A20                     
  1725                           ;main.c: 262:                 playConfusedTone();
  1726   000A20  EC58  F007         	call	_playConfusedTone	;wreg free
  1727                           
  1728                           ;main.c: 263:             }else if (cmd == '4') {
  1729   000A24  EF21  F005         	goto	l2377
  1730   000A28                     l2373:
  1731   000A28  0E34               	movlw	52
  1732   000A2A  1840               	xorwf	main@cmd^0,w,c
  1733   000A2C  A4D8               	btfss	status,2,c
  1734   000A2E  EF1B  F005         	goto	u1641
  1735   000A32  EF1D  F005         	goto	u1640
  1736   000A36                     u1641:
  1737   000A36  EF21  F005         	goto	l225
  1738   000A3A                     u1640:
  1739   000A3A                     
  1740                           ;main.c: 264:                 playHappyTone();
  1741   000A3A  EC6A  F008         	call	_playHappyTone	;wreg free
  1742   000A3E  EF21  F005         	goto	l2377
  1743   000A42                     l225:
  1744   000A42                     l2377:
  1745                           
  1746                           ;main.c: 266:             oldCmd = cmd;
  1747   000A42  C040  F03E         	movff	main@cmd,main@oldCmd
  1748   000A46                     
  1749                           ;main.c: 267:             updateScn = 1;
  1750   000A46  0E01               	movlw	1
  1751   000A48  6E3F               	movwf	main@updateScn^0,c
  1752   000A4A                     l2381:
  1753                           
  1754                           ;main.c: 270:         if (updateScn == 1) {
  1755   000A4A  043F               	decf	main@updateScn^0,w,c
  1756   000A4C  A4D8               	btfss	status,2,c
  1757   000A4E  EF2B  F005         	goto	u1651
  1758   000A52  EF2D  F005         	goto	u1650
  1759   000A56                     u1651:
  1760   000A56  EF34  F005         	goto	l2387
  1761   000A5A                     u1650:
  1762   000A5A                     
  1763                           ;main.c: 271:             UpdateScreen(dist);
  1764   000A5A  C03C  F02C         	movff	main@dist,UpdateScreen@dist
  1765   000A5E  C03D  F02D         	movff	main@dist+1,UpdateScreen@dist+1
  1766   000A62  EC8E  F00A         	call	_UpdateScreen	;wreg free
  1767   000A66                     
  1768                           ;main.c: 272:             updateScn = 0;
  1769   000A66  6A3F               	clrf	main@updateScn^0,c
  1770   000A68                     l2387:
  1771                           
  1772                           ;main.c: 275:         if (rxFlag) {
  1773   000A68  504A               	movf	_rxFlag^0,w,c	;volatile
  1774   000A6A  B4D8               	btfsc	status,2,c
  1775   000A6C  EF3A  F005         	goto	u1661
  1776   000A70  EF3C  F005         	goto	u1660
  1777   000A74                     u1661:
  1778   000A74  EFE0  F004         	goto	l2359
  1779   000A78                     u1660:
  1780   000A78                     
  1781                           ;main.c: 276:             cmd = rxData;
  1782   000A78  C04B  F040         	movff	_rxData,main@cmd	;volatile
  1783   000A7C                     
  1784                           ;main.c: 277:             SendByte(cmd);
  1785   000A7C  5040               	movf	main@cmd^0,w,c
  1786   000A7E  EC0E  F00B         	call	_SendByte
  1787   000A82                     
  1788                           ;main.c: 278:             rxFlag = 0;
  1789   000A82  6A4A               	clrf	_rxFlag^0,c	;volatile
  1790   000A84  EFE0  F004         	goto	l2359
  1791   000A88  EF07  F000         	goto	start
  1792   000A8C                     __end_of_main:
  1793                           	callstack 0
  1794                           
  1795 ;; *************** function _playNotes *****************
  1796 ;; Defined at:
  1797 ;;		line 174 in file "main.c"
  1798 ;; Parameters:    Size  Location     Type
  1799 ;;		None
  1800 ;; Auto vars:     Size  Location     Type
  1801 ;;		None
  1802 ;; Return value:  Size  Location     Type
  1803 ;;                  1    wreg      void 
  1804 ;; Registers used:
  1805 ;;		wreg, status,2, status,0, cstack
  1806 ;; Tracked objects:
  1807 ;;		On entry : 0/0
  1808 ;;		On exit  : 0/0
  1809 ;;		Unchanged: 0/0
  1810 ;; Data sizes:     COMRAM   BANK0   BANK1   BANK2   BANK3   BANK4   BANK5
  1811 ;;      Params:         0       0       0       0       0       0       0
  1812 ;;      Locals:         0       0       0       0       0       0       0
  1813 ;;      Temps:          2       0       0       0       0       0       0
  1814 ;;      Totals:         2       0       0       0       0       0       0
  1815 ;;Total ram usage:        2 bytes
  1816 ;; Hardware stack levels used: 1
  1817 ;; Hardware stack levels required when called: 4
  1818 ;; This function calls:
  1819 ;;		_tone
  1820 ;; This function is called by:
  1821 ;;		_main
  1822 ;; This function uses a non-reentrant model
  1823 ;;
  1824                           
  1825                           	psect	text1
  1826   000A8C                     __ptext1:
  1827                           	callstack 0
  1828   000A8C                     _playNotes:
  1829                           	callstack 26
  1830   000A8C                     
  1831                           ;main.c: 175:     tone(262, 500);
  1832   000A8C  0E01               	movlw	1
  1833   000A8E  6E1B               	movwf	(tone@frequency+1)^0,c
  1834   000A90  0E06               	movlw	6
  1835   000A92  6E1A               	movwf	tone@frequency^0,c
  1836   000A94  0E01               	movlw	1
  1837   000A96  6E1D               	movwf	(tone@duration_ms+1)^0,c
  1838   000A98  0EF4               	movlw	244
  1839   000A9A  6E1C               	movwf	tone@duration_ms^0,c
  1840   000A9C  ECF6  F002         	call	_tone	;wreg free
  1841   000AA0                     
  1842                           ;main.c: 176:     _delay((unsigned long)((500)*(4000000/4000.0)));
  1843   000AA0  0E03               	movlw	3
  1844   000AA2  6E2C               	movwf	(??_playNotes+1)^0,c
  1845   000AA4  0E8A               	movlw	138
  1846   000AA6  6E2B               	movwf	??_playNotes^0,c
  1847   000AA8  0E56               	movlw	86
  1848   000AAA                     u1727:
  1849   000AAA  2EE8               	decfsz	wreg,f,c
  1850   000AAC  D7FE               	bra	u1727
  1851   000AAE  2E2B               	decfsz	??_playNotes^0,f,c
  1852   000AB0  D7FC               	bra	u1727
  1853   000AB2  2E2C               	decfsz	(??_playNotes+1)^0,f,c
  1854   000AB4  D7FA               	bra	u1727
  1855   000AB6                     
  1856                           ;main.c: 177:     tone(294, 500);
  1857   000AB6  0E01               	movlw	1
  1858   000AB8  6E1B               	movwf	(tone@frequency+1)^0,c
  1859   000ABA  0E26               	movlw	38
  1860   000ABC  6E1A               	movwf	tone@frequency^0,c
  1861   000ABE  0E01               	movlw	1
  1862   000AC0  6E1D               	movwf	(tone@duration_ms+1)^0,c
  1863   000AC2  0EF4               	movlw	244
  1864   000AC4  6E1C               	movwf	tone@duration_ms^0,c
  1865   000AC6  ECF6  F002         	call	_tone	;wreg free
  1866                           
  1867                           ;main.c: 178:     _delay((unsigned long)((500)*(4000000/4000.0)));
  1868   000ACA  0E03               	movlw	3
  1869   000ACC  6E2C               	movwf	(??_playNotes+1)^0,c
  1870   000ACE  0E8A               	movlw	138
  1871   000AD0  6E2B               	movwf	??_playNotes^0,c
  1872   000AD2  0E56               	movlw	86
  1873   000AD4                     u1737:
  1874   000AD4  2EE8               	decfsz	wreg,f,c
  1875   000AD6  D7FE               	bra	u1737
  1876   000AD8  2E2B               	decfsz	??_playNotes^0,f,c
  1877   000ADA  D7FC               	bra	u1737
  1878   000ADC  2E2C               	decfsz	(??_playNotes+1)^0,f,c
  1879   000ADE  D7FA               	bra	u1737
  1880   000AE0                     
  1881                           ;main.c: 179:     tone(330, 500);
  1882   000AE0  0E01               	movlw	1
  1883   000AE2  6E1B               	movwf	(tone@frequency+1)^0,c
  1884   000AE4  0E4A               	movlw	74
  1885   000AE6  6E1A               	movwf	tone@frequency^0,c
  1886   000AE8  0E01               	movlw	1
  1887   000AEA  6E1D               	movwf	(tone@duration_ms+1)^0,c
  1888   000AEC  0EF4               	movlw	244
  1889   000AEE  6E1C               	movwf	tone@duration_ms^0,c
  1890   000AF0  ECF6  F002         	call	_tone	;wreg free
  1891   000AF4                     
  1892                           ;main.c: 180:     _delay((unsigned long)((500)*(4000000/4000.0)));
  1893   000AF4  0E03               	movlw	3
  1894   000AF6  6E2C               	movwf	(??_playNotes+1)^0,c
  1895   000AF8  0E8A               	movlw	138
  1896   000AFA  6E2B               	movwf	??_playNotes^0,c
  1897   000AFC  0E56               	movlw	86
  1898   000AFE                     u1747:
  1899   000AFE  2EE8               	decfsz	wreg,f,c
  1900   000B00  D7FE               	bra	u1747
  1901   000B02  2E2B               	decfsz	??_playNotes^0,f,c
  1902   000B04  D7FC               	bra	u1747
  1903   000B06  2E2C               	decfsz	(??_playNotes+1)^0,f,c
  1904   000B08  D7FA               	bra	u1747
  1905                           
  1906                           ;main.c: 181:     tone(349, 500);
  1907   000B0A  0E01               	movlw	1
  1908   000B0C  6E1B               	movwf	(tone@frequency+1)^0,c
  1909   000B0E  0E5D               	movlw	93
  1910   000B10  6E1A               	movwf	tone@frequency^0,c
  1911   000B12  0E01               	movlw	1
  1912   000B14  6E1D               	movwf	(tone@duration_ms+1)^0,c
  1913   000B16  0EF4               	movlw	244
  1914   000B18  6E1C               	movwf	tone@duration_ms^0,c
  1915   000B1A  ECF6  F002         	call	_tone	;wreg free
  1916   000B1E                     
  1917                           ;main.c: 182:     _delay((unsigned long)((500)*(4000000/4000.0)));
  1918   000B1E  0E03               	movlw	3
  1919   000B20  6E2C               	movwf	(??_playNotes+1)^0,c
  1920   000B22  0E8A               	movlw	138
  1921   000B24  6E2B               	movwf	??_playNotes^0,c
  1922   000B26  0E56               	movlw	86
  1923   000B28                     u1757:
  1924   000B28  2EE8               	decfsz	wreg,f,c
  1925   000B2A  D7FE               	bra	u1757
  1926   000B2C  2E2B               	decfsz	??_playNotes^0,f,c
  1927   000B2E  D7FC               	bra	u1757
  1928   000B30  2E2C               	decfsz	(??_playNotes+1)^0,f,c
  1929   000B32  D7FA               	bra	u1757
  1930   000B34                     
  1931                           ;main.c: 183:     tone(392, 500);
  1932   000B34  0E01               	movlw	1
  1933   000B36  6E1B               	movwf	(tone@frequency+1)^0,c
  1934   000B38  0E88               	movlw	136
  1935   000B3A  6E1A               	movwf	tone@frequency^0,c
  1936   000B3C  0E01               	movlw	1
  1937   000B3E  6E1D               	movwf	(tone@duration_ms+1)^0,c
  1938   000B40  0EF4               	movlw	244
  1939   000B42  6E1C               	movwf	tone@duration_ms^0,c
  1940   000B44  ECF6  F002         	call	_tone	;wreg free
  1941                           
  1942                           ;main.c: 184:     _delay((unsigned long)((500)*(4000000/4000.0)));
  1943   000B48  0E03               	movlw	3
  1944   000B4A  6E2C               	movwf	(??_playNotes+1)^0,c
  1945   000B4C  0E8A               	movlw	138
  1946   000B4E  6E2B               	movwf	??_playNotes^0,c
  1947   000B50  0E56               	movlw	86
  1948   000B52                     u1767:
  1949   000B52  2EE8               	decfsz	wreg,f,c
  1950   000B54  D7FE               	bra	u1767
  1951   000B56  2E2B               	decfsz	??_playNotes^0,f,c
  1952   000B58  D7FC               	bra	u1767
  1953   000B5A  2E2C               	decfsz	(??_playNotes+1)^0,f,c
  1954   000B5C  D7FA               	bra	u1767
  1955   000B5E                     
  1956                           ;main.c: 185:     tone(440, 500);
  1957   000B5E  0E01               	movlw	1
  1958   000B60  6E1B               	movwf	(tone@frequency+1)^0,c
  1959   000B62  0EB8               	movlw	184
  1960   000B64  6E1A               	movwf	tone@frequency^0,c
  1961   000B66  0E01               	movlw	1
  1962   000B68  6E1D               	movwf	(tone@duration_ms+1)^0,c
  1963   000B6A  0EF4               	movlw	244
  1964   000B6C  6E1C               	movwf	tone@duration_ms^0,c
  1965   000B6E  ECF6  F002         	call	_tone	;wreg free
  1966   000B72                     
  1967                           ;main.c: 186:     _delay((unsigned long)((500)*(4000000/4000.0)));
  1968   000B72  0E03               	movlw	3
  1969   000B74  6E2C               	movwf	(??_playNotes+1)^0,c
  1970   000B76  0E8A               	movlw	138
  1971   000B78  6E2B               	movwf	??_playNotes^0,c
  1972   000B7A  0E56               	movlw	86
  1973   000B7C                     u1777:
  1974   000B7C  2EE8               	decfsz	wreg,f,c
  1975   000B7E  D7FE               	bra	u1777
  1976   000B80  2E2B               	decfsz	??_playNotes^0,f,c
  1977   000B82  D7FC               	bra	u1777
  1978   000B84  2E2C               	decfsz	(??_playNotes+1)^0,f,c
  1979   000B86  D7FA               	bra	u1777
  1980                           
  1981                           ;main.c: 187:     tone(466, 500);
  1982   000B88  0E01               	movlw	1
  1983   000B8A  6E1B               	movwf	(tone@frequency+1)^0,c
  1984   000B8C  0ED2               	movlw	210
  1985   000B8E  6E1A               	movwf	tone@frequency^0,c
  1986   000B90  0E01               	movlw	1
  1987   000B92  6E1D               	movwf	(tone@duration_ms+1)^0,c
  1988   000B94  0EF4               	movlw	244
  1989   000B96  6E1C               	movwf	tone@duration_ms^0,c
  1990   000B98  ECF6  F002         	call	_tone	;wreg free
  1991   000B9C                     
  1992                           ;main.c: 188:     _delay((unsigned long)((500)*(4000000/4000.0)));
  1993   000B9C  0E03               	movlw	3
  1994   000B9E  6E2C               	movwf	(??_playNotes+1)^0,c
  1995   000BA0  0E8A               	movlw	138
  1996   000BA2  6E2B               	movwf	??_playNotes^0,c
  1997   000BA4  0E56               	movlw	86
  1998   000BA6                     u1787:
  1999   000BA6  2EE8               	decfsz	wreg,f,c
  2000   000BA8  D7FE               	bra	u1787
  2001   000BAA  2E2B               	decfsz	??_playNotes^0,f,c
  2002   000BAC  D7FC               	bra	u1787
  2003   000BAE  2E2C               	decfsz	(??_playNotes+1)^0,f,c
  2004   000BB0  D7FA               	bra	u1787
  2005   000BB2                     
  2006                           ;main.c: 189:     tone(523, 500);
  2007   000BB2  0E02               	movlw	2
  2008   000BB4  6E1B               	movwf	(tone@frequency+1)^0,c
  2009   000BB6  0E0B               	movlw	11
  2010   000BB8  6E1A               	movwf	tone@frequency^0,c
  2011   000BBA  0E01               	movlw	1
  2012   000BBC  6E1D               	movwf	(tone@duration_ms+1)^0,c
  2013   000BBE  0EF4               	movlw	244
  2014   000BC0  6E1C               	movwf	tone@duration_ms^0,c
  2015   000BC2  ECF6  F002         	call	_tone	;wreg free
  2016   000BC6  0012               	return		;funcret
  2017   000BC8                     __end_of_playNotes:
  2018                           	callstack 0
  2019                           
  2020 ;; *************** function _playHappyTone *****************
  2021 ;; Defined at:
  2022 ;;		line 206 in file "main.c"
  2023 ;; Parameters:    Size  Location     Type
  2024 ;;		None
  2025 ;; Auto vars:     Size  Location     Type
  2026 ;;		None
  2027 ;; Return value:  Size  Location     Type
  2028 ;;                  1    wreg      void 
  2029 ;; Registers used:
  2030 ;;		wreg, status,2, status,0, cstack
  2031 ;; Tracked objects:
  2032 ;;		On entry : 0/0
  2033 ;;		On exit  : 0/0
  2034 ;;		Unchanged: 0/0
  2035 ;; Data sizes:     COMRAM   BANK0   BANK1   BANK2   BANK3   BANK4   BANK5
  2036 ;;      Params:         0       0       0       0       0       0       0
  2037 ;;      Locals:         0       0       0       0       0       0       0
  2038 ;;      Temps:          1       0       0       0       0       0       0
  2039 ;;      Totals:         1       0       0       0       0       0       0
  2040 ;;Total ram usage:        1 bytes
  2041 ;; Hardware stack levels used: 1
  2042 ;; Hardware stack levels required when called: 4
  2043 ;; This function calls:
  2044 ;;		_tone
  2045 ;; This function is called by:
  2046 ;;		_main
  2047 ;; This function uses a non-reentrant model
  2048 ;;
  2049                           
  2050                           	psect	text2
  2051   0010D4                     __ptext2:
  2052                           	callstack 0
  2053   0010D4                     _playHappyTone:
  2054                           	callstack 26
  2055   0010D4                     
  2056                           ;main.c: 207:     tone(880, 80);
  2057   0010D4  0E03               	movlw	3
  2058   0010D6  6E1B               	movwf	(tone@frequency+1)^0,c
  2059   0010D8  0E70               	movlw	112
  2060   0010DA  6E1A               	movwf	tone@frequency^0,c
  2061   0010DC  0E00               	movlw	0
  2062   0010DE  6E1D               	movwf	(tone@duration_ms+1)^0,c
  2063   0010E0  0E50               	movlw	80
  2064   0010E2  6E1C               	movwf	tone@duration_ms^0,c
  2065   0010E4  ECF6  F002         	call	_tone	;wreg free
  2066   0010E8                     
  2067                           ;main.c: 208:     _delay((unsigned long)((80)*(4000000/4000.0)));
  2068   0010E8  0E68               	movlw	104
  2069   0010EA  6E2B               	movwf	??_playHappyTone^0,c
  2070   0010EC  0EE4               	movlw	228
  2071   0010EE                     u1797:
  2072   0010EE  2EE8               	decfsz	wreg,f,c
  2073   0010F0  D7FE               	bra	u1797
  2074   0010F2  2E2B               	decfsz	??_playHappyTone^0,f,c
  2075   0010F4  D7FC               	bra	u1797
  2076   0010F6  D000               	nop2	
  2077   0010F8                     
  2078                           ;main.c: 209:     tone(988, 80);
  2079   0010F8  0E03               	movlw	3
  2080   0010FA  6E1B               	movwf	(tone@frequency+1)^0,c
  2081   0010FC  0EDC               	movlw	220
  2082   0010FE  6E1A               	movwf	tone@frequency^0,c
  2083   001100  0E00               	movlw	0
  2084   001102  6E1D               	movwf	(tone@duration_ms+1)^0,c
  2085   001104  0E50               	movlw	80
  2086   001106  6E1C               	movwf	tone@duration_ms^0,c
  2087   001108  ECF6  F002         	call	_tone	;wreg free
  2088                           
  2089                           ;main.c: 210:     _delay((unsigned long)((80)*(4000000/4000.0)));
  2090   00110C  0E68               	movlw	104
  2091   00110E  6E2B               	movwf	??_playHappyTone^0,c
  2092   001110  0EE4               	movlw	228
  2093   001112                     u1807:
  2094   001112  2EE8               	decfsz	wreg,f,c
  2095   001114  D7FE               	bra	u1807
  2096   001116  2E2B               	decfsz	??_playHappyTone^0,f,c
  2097   001118  D7FC               	bra	u1807
  2098   00111A  D000               	nop2	
  2099   00111C                     
  2100                           ;main.c: 211:     tone(1175, 100);
  2101   00111C  0E04               	movlw	4
  2102   00111E  6E1B               	movwf	(tone@frequency+1)^0,c
  2103   001120  0E97               	movlw	151
  2104   001122  6E1A               	movwf	tone@frequency^0,c
  2105   001124  0E00               	movlw	0
  2106   001126  6E1D               	movwf	(tone@duration_ms+1)^0,c
  2107   001128  0E64               	movlw	100
  2108   00112A  6E1C               	movwf	tone@duration_ms^0,c
  2109   00112C  ECF6  F002         	call	_tone	;wreg free
  2110   001130                     
  2111                           ;main.c: 212:     _delay((unsigned long)((140)*(4000000/4000.0)));
  2112   001130  0EB6               	movlw	182
  2113   001132  6E2B               	movwf	??_playHappyTone^0,c
  2114   001134  0ED0               	movlw	208
  2115   001136                     u1817:
  2116   001136  2EE8               	decfsz	wreg,f,c
  2117   001138  D7FE               	bra	u1817
  2118   00113A  2E2B               	decfsz	??_playHappyTone^0,f,c
  2119   00113C  D7FC               	bra	u1817
  2120   00113E  D000               	nop2	
  2121                           
  2122                           ;main.c: 213:     tone(1568, 120);
  2123   001140  0E06               	movlw	6
  2124   001142  6E1B               	movwf	(tone@frequency+1)^0,c
  2125   001144  0E20               	movlw	32
  2126   001146  6E1A               	movwf	tone@frequency^0,c
  2127   001148  0E00               	movlw	0
  2128   00114A  6E1D               	movwf	(tone@duration_ms+1)^0,c
  2129   00114C  0E78               	movlw	120
  2130   00114E  6E1C               	movwf	tone@duration_ms^0,c
  2131   001150  ECF6  F002         	call	_tone	;wreg free
  2132   001154                     
  2133                           ;main.c: 214:     _delay((unsigned long)((120)*(4000000/4000.0)));
  2134   001154  0E9C               	movlw	156
  2135   001156  6E2B               	movwf	??_playHappyTone^0,c
  2136   001158  0ED7               	movlw	215
  2137   00115A                     u1827:
  2138   00115A  2EE8               	decfsz	wreg,f,c
  2139   00115C  D7FE               	bra	u1827
  2140   00115E  2E2B               	decfsz	??_playHappyTone^0,f,c
  2141   001160  D7FC               	bra	u1827
  2142   001162  0000               	nop	
  2143   001164                     
  2144                           ;main.c: 215:     tone(1760, 180);
  2145   001164  0E06               	movlw	6
  2146   001166  6E1B               	movwf	(tone@frequency+1)^0,c
  2147   001168  0EE0               	movlw	224
  2148   00116A  6E1A               	movwf	tone@frequency^0,c
  2149   00116C  0E00               	movlw	0
  2150   00116E  6E1D               	movwf	(tone@duration_ms+1)^0,c
  2151   001170  0EB4               	movlw	180
  2152   001172  6E1C               	movwf	tone@duration_ms^0,c
  2153   001174  ECF6  F002         	call	_tone	;wreg free
  2154   001178  0012               	return		;funcret
  2155   00117A                     __end_of_playHappyTone:
  2156                           	callstack 0
  2157                           
  2158 ;; *************** function _playConfusedTone *****************
  2159 ;; Defined at:
  2160 ;;		line 192 in file "main.c"
  2161 ;; Parameters:    Size  Location     Type
  2162 ;;		None
  2163 ;; Auto vars:     Size  Location     Type
  2164 ;;		None
  2165 ;; Return value:  Size  Location     Type
  2166 ;;                  1    wreg      void 
  2167 ;; Registers used:
  2168 ;;		wreg, status,2, status,0, cstack
  2169 ;; Tracked objects:
  2170 ;;		On entry : 0/0
  2171 ;;		On exit  : 0/0
  2172 ;;		Unchanged: 0/0
  2173 ;; Data sizes:     COMRAM   BANK0   BANK1   BANK2   BANK3   BANK4   BANK5
  2174 ;;      Params:         0       0       0       0       0       0       0
  2175 ;;      Locals:         0       0       0       0       0       0       0
  2176 ;;      Temps:          1       0       0       0       0       0       0
  2177 ;;      Totals:         1       0       0       0       0       0       0
  2178 ;;Total ram usage:        1 bytes
  2179 ;; Hardware stack levels used: 1
  2180 ;; Hardware stack levels required when called: 4
  2181 ;; This function calls:
  2182 ;;		_tone
  2183 ;; This function is called by:
  2184 ;;		_main
  2185 ;; This function uses a non-reentrant model
  2186 ;;
  2187                           
  2188                           	psect	text3
  2189   000EB0                     __ptext3:
  2190                           	callstack 0
  2191   000EB0                     _playConfusedTone:
  2192                           	callstack 26
  2193   000EB0                     
  2194                           ;main.c: 193:     tone(440, 150);
  2195   000EB0  0E01               	movlw	1
  2196   000EB2  6E1B               	movwf	(tone@frequency+1)^0,c
  2197   000EB4  0EB8               	movlw	184
  2198   000EB6  6E1A               	movwf	tone@frequency^0,c
  2199   000EB8  0E00               	movlw	0
  2200   000EBA  6E1D               	movwf	(tone@duration_ms+1)^0,c
  2201   000EBC  0E96               	movlw	150
  2202   000EBE  6E1C               	movwf	tone@duration_ms^0,c
  2203   000EC0  ECF6  F002         	call	_tone	;wreg free
  2204   000EC4                     
  2205                           ;main.c: 194:     _delay((unsigned long)((150)*(4000000/4000.0)));
  2206   000EC4  0EC3               	movlw	195
  2207   000EC6  6E2B               	movwf	??_playConfusedTone^0,c
  2208   000EC8  0ECD               	movlw	205
  2209   000ECA                     u1837:
  2210   000ECA  2EE8               	decfsz	wreg,f,c
  2211   000ECC  D7FE               	bra	u1837
  2212   000ECE  2E2B               	decfsz	??_playConfusedTone^0,f,c
  2213   000ED0  D7FC               	bra	u1837
  2214   000ED2  0000               	nop	
  2215   000ED4                     
  2216                           ;main.c: 195:     tone(392, 150);
  2217   000ED4  0E01               	movlw	1
  2218   000ED6  6E1B               	movwf	(tone@frequency+1)^0,c
  2219   000ED8  0E88               	movlw	136
  2220   000EDA  6E1A               	movwf	tone@frequency^0,c
  2221   000EDC  0E00               	movlw	0
  2222   000EDE  6E1D               	movwf	(tone@duration_ms+1)^0,c
  2223   000EE0  0E96               	movlw	150
  2224   000EE2  6E1C               	movwf	tone@duration_ms^0,c
  2225   000EE4  ECF6  F002         	call	_tone	;wreg free
  2226                           
  2227                           ;main.c: 196:     _delay((unsigned long)((150)*(4000000/4000.0)));
  2228   000EE8  0EC3               	movlw	195
  2229   000EEA  6E2B               	movwf	??_playConfusedTone^0,c
  2230   000EEC  0ECD               	movlw	205
  2231   000EEE                     u1847:
  2232   000EEE  2EE8               	decfsz	wreg,f,c
  2233   000EF0  D7FE               	bra	u1847
  2234   000EF2  2E2B               	decfsz	??_playConfusedTone^0,f,c
  2235   000EF4  D7FC               	bra	u1847
  2236   000EF6  0000               	nop	
  2237   000EF8                     
  2238                           ;main.c: 197:     tone(370, 150);
  2239   000EF8  0E01               	movlw	1
  2240   000EFA  6E1B               	movwf	(tone@frequency+1)^0,c
  2241   000EFC  0E72               	movlw	114
  2242   000EFE  6E1A               	movwf	tone@frequency^0,c
  2243   000F00  0E00               	movlw	0
  2244   000F02  6E1D               	movwf	(tone@duration_ms+1)^0,c
  2245   000F04  0E96               	movlw	150
  2246   000F06  6E1C               	movwf	tone@duration_ms^0,c
  2247   000F08  ECF6  F002         	call	_tone	;wreg free
  2248   000F0C                     
  2249                           ;main.c: 198:     _delay((unsigned long)((150)*(4000000/4000.0)));
  2250   000F0C  0EC3               	movlw	195
  2251   000F0E  6E2B               	movwf	??_playConfusedTone^0,c
  2252   000F10  0ECD               	movlw	205
  2253   000F12                     u1857:
  2254   000F12  2EE8               	decfsz	wreg,f,c
  2255   000F14  D7FE               	bra	u1857
  2256   000F16  2E2B               	decfsz	??_playConfusedTone^0,f,c
  2257   000F18  D7FC               	bra	u1857
  2258   000F1A  0000               	nop	
  2259                           
  2260                           ;main.c: 199:     tone(392, 150);
  2261   000F1C  0E01               	movlw	1
  2262   000F1E  6E1B               	movwf	(tone@frequency+1)^0,c
  2263   000F20  0E88               	movlw	136
  2264   000F22  6E1A               	movwf	tone@frequency^0,c
  2265   000F24  0E00               	movlw	0
  2266   000F26  6E1D               	movwf	(tone@duration_ms+1)^0,c
  2267   000F28  0E96               	movlw	150
  2268   000F2A  6E1C               	movwf	tone@duration_ms^0,c
  2269   000F2C  ECF6  F002         	call	_tone	;wreg free
  2270   000F30                     
  2271                           ;main.c: 200:     _delay((unsigned long)((150)*(4000000/4000.0)));
  2272   000F30  0EC3               	movlw	195
  2273   000F32  6E2B               	movwf	??_playConfusedTone^0,c
  2274   000F34  0ECD               	movlw	205
  2275   000F36                     u1867:
  2276   000F36  2EE8               	decfsz	wreg,f,c
  2277   000F38  D7FE               	bra	u1867
  2278   000F3A  2E2B               	decfsz	??_playConfusedTone^0,f,c
  2279   000F3C  D7FC               	bra	u1867
  2280   000F3E  0000               	nop	
  2281   000F40                     
  2282                           ;main.c: 201:     tone(415, 150);
  2283   000F40  0E01               	movlw	1
  2284   000F42  6E1B               	movwf	(tone@frequency+1)^0,c
  2285   000F44  0E9F               	movlw	159
  2286   000F46  6E1A               	movwf	tone@frequency^0,c
  2287   000F48  0E00               	movlw	0
  2288   000F4A  6E1D               	movwf	(tone@duration_ms+1)^0,c
  2289   000F4C  0E96               	movlw	150
  2290   000F4E  6E1C               	movwf	tone@duration_ms^0,c
  2291   000F50  ECF6  F002         	call	_tone	;wreg free
  2292                           
  2293                           ;main.c: 202:     _delay((unsigned long)((150)*(4000000/4000.0)));
  2294   000F54  0EC3               	movlw	195
  2295   000F56  6E2B               	movwf	??_playConfusedTone^0,c
  2296   000F58  0ECD               	movlw	205
  2297   000F5A                     u1877:
  2298   000F5A  2EE8               	decfsz	wreg,f,c
  2299   000F5C  D7FE               	bra	u1877
  2300   000F5E  2E2B               	decfsz	??_playConfusedTone^0,f,c
  2301   000F60  D7FC               	bra	u1877
  2302   000F62  0000               	nop	
  2303   000F64                     
  2304                           ;main.c: 203:     tone(370, 200);
  2305   000F64  0E01               	movlw	1
  2306   000F66  6E1B               	movwf	(tone@frequency+1)^0,c
  2307   000F68  0E72               	movlw	114
  2308   000F6A  6E1A               	movwf	tone@frequency^0,c
  2309   000F6C  0E00               	movlw	0
  2310   000F6E  6E1D               	movwf	(tone@duration_ms+1)^0,c
  2311   000F70  0EC8               	movlw	200
  2312   000F72  6E1C               	movwf	tone@duration_ms^0,c
  2313   000F74  ECF6  F002         	call	_tone	;wreg free
  2314   000F78  0012               	return		;funcret
  2315   000F7A                     __end_of_playConfusedTone:
  2316                           	callstack 0
  2317                           
  2318 ;; *************** function _tone *****************
  2319 ;; Defined at:
  2320 ;;		line 126 in file "main.c"
  2321 ;; Parameters:    Size  Location     Type
  2322 ;;  frequency       2   25[COMRAM] unsigned int 
  2323 ;;  duration_ms     2   27[COMRAM] unsigned int 
  2324 ;; Auto vars:     Size  Location     Type
  2325 ;;  period_us       4   33[COMRAM] unsigned long 
  2326 ;;  toggle_time_    2   40[COMRAM] unsigned int 
  2327 ;;  pr              2   37[COMRAM] unsigned int 
  2328 ;;  prescaler_bi    1   39[COMRAM] unsigned char 
  2329 ;; Return value:  Size  Location     Type
  2330 ;;                  1    wreg      void 
  2331 ;; Registers used:
  2332 ;;		wreg, status,2, status,0, cstack
  2333 ;; Tracked objects:
  2334 ;;		On entry : 0/0
  2335 ;;		On exit  : 0/0
  2336 ;;		Unchanged: 0/0
  2337 ;; Data sizes:     COMRAM   BANK0   BANK1   BANK2   BANK3   BANK4   BANK5
  2338 ;;      Params:         4       0       0       0       0       0       0
  2339 ;;      Locals:         9       0       0       0       0       0       0
  2340 ;;      Temps:          4       0       0       0       0       0       0
  2341 ;;      Totals:        17       0       0       0       0       0       0
  2342 ;;Total ram usage:       17 bytes
  2343 ;; Hardware stack levels used: 1
  2344 ;; Hardware stack levels required when called: 3
  2345 ;; This function calls:
  2346 ;;		___lldiv
  2347 ;;		___lmul
  2348 ;; This function is called by:
  2349 ;;		_playNotes
  2350 ;;		_playConfusedTone
  2351 ;;		_playHappyTone
  2352 ;; This function uses a non-reentrant model
  2353 ;;
  2354                           
  2355                           	psect	text4
  2356   0005EC                     __ptext4:
  2357                           	callstack 0
  2358   0005EC                     _tone:
  2359                           	callstack 26
  2360   0005EC                     
  2361                           ;main.c: 127:     if (frequency == 0) return;
  2362   0005EC  501A               	movf	tone@frequency^0,w,c
  2363   0005EE  101B               	iorwf	(tone@frequency+1)^0,w,c
  2364   0005F0  A4D8               	btfss	status,2,c
  2365   0005F2  EFFD  F002         	goto	u1161
  2366   0005F6  EFFF  F002         	goto	u1160
  2367   0005FA                     u1161:
  2368   0005FA  EF01  F003         	goto	l199
  2369   0005FE                     u1160:
  2370   0005FE  EFC7  F003         	goto	l200
  2371   000602                     l199:
  2372                           
  2373                           ;main.c: 130:     T2CONbits.TMR2ON = 0;
  2374   000602  94CA               	bcf	202,2,c	;volatile
  2375                           
  2376                           ;main.c: 131:     LATDbits.LATD1 = 0;
  2377   000604  928C               	bcf	140,1,c	;volatile
  2378   000606                     
  2379                           ;main.c: 134:     unsigned long period_us = 1000000UL / (unsigned long)frequency;
  2380   000606  0E40               	movlw	64
  2381   000608  6E0D               	movwf	___lldiv@dividend^0,c
  2382   00060A  0E42               	movlw	66
  2383   00060C  6E0E               	movwf	(___lldiv@dividend+1)^0,c
  2384   00060E  0E0F               	movlw	15
  2385   000610  6E0F               	movwf	(___lldiv@dividend+2)^0,c
  2386   000612  0E00               	movlw	0
  2387   000614  6E10               	movwf	(___lldiv@dividend+3)^0,c
  2388   000616  C01A  F011         	movff	tone@frequency,___lldiv@divisor
  2389   00061A  C01B  F012         	movff	tone@frequency+1,___lldiv@divisor+1
  2390   00061E  6A13               	clrf	(___lldiv@divisor+2)^0,c
  2391   000620  6A14               	clrf	(___lldiv@divisor+3)^0,c
  2392   000622  ECBD  F008         	call	___lldiv	;wreg free
  2393   000626  C00D  F022         	movff	?___lldiv,tone@period_us
  2394   00062A  C00E  F023         	movff	?___lldiv+1,tone@period_us+1
  2395   00062E  C00F  F024         	movff	?___lldiv+2,tone@period_us+2
  2396   000632  C010  F025         	movff	?___lldiv+3,tone@period_us+3
  2397   000636                     
  2398                           ;main.c: 135:     unsigned int toggle_time_us = (unsigned int)(period_us / 2UL);
  2399   000636  C022  F01E         	movff	tone@period_us,??_tone
  2400   00063A  C023  F01F         	movff	tone@period_us+1,??_tone+1
  2401   00063E  C024  F020         	movff	tone@period_us+2,??_tone+2
  2402   000642  C025  F021         	movff	tone@period_us+3,??_tone+3
  2403   000646  90D8               	bcf	status,0,c
  2404   000648  3221               	rrcf	(??_tone+3)^0,f,c
  2405   00064A  3220               	rrcf	(??_tone+2)^0,f,c
  2406   00064C  321F               	rrcf	(??_tone+1)^0,f,c
  2407   00064E  321E               	rrcf	??_tone^0,f,c
  2408   000650  C01E  F029         	movff	??_tone,tone@toggle_time_us
  2409   000654  C01F  F02A         	movff	??_tone+1,tone@toggle_time_us+1
  2410   000658                     
  2411                           ;main.c: 142:     if (toggle_time_us <= 256) {
  2412   000658  0429               	decf	tone@toggle_time_us^0,w,c
  2413   00065A  0E01               	movlw	1
  2414   00065C  582A               	subwfb	(tone@toggle_time_us+1)^0,w,c
  2415   00065E  B0D8               	btfsc	status,0,c
  2416   000660  EF34  F003         	goto	u1171
  2417   000664  EF36  F003         	goto	u1170
  2418   000668                     u1171:
  2419   000668  EF3F  F003         	goto	l1979
  2420   00066C                     u1170:
  2421   00066C                     
  2422                           ;main.c: 143:         prescaler_bits = 0;
  2423   00066C  6A28               	clrf	tone@prescaler_bits^0,c
  2424   00066E                     
  2425                           ;main.c: 144:         pr = toggle_time_us - 1;
  2426   00066E  0EFF               	movlw	255
  2427   000670  2429               	addwf	tone@toggle_time_us^0,w,c
  2428   000672  6E26               	movwf	tone@pr^0,c
  2429   000674  0EFF               	movlw	255
  2430   000676  202A               	addwfc	(tone@toggle_time_us+1)^0,w,c
  2431   000678  6E27               	movwf	(tone@pr+1)^0,c
  2432                           
  2433                           ;main.c: 145:     } else if ((toggle_time_us / 4) <= 256) {
  2434   00067A  EF91  F003         	goto	l1991
  2435   00067E                     l1979:
  2436   00067E  C029  F01E         	movff	tone@toggle_time_us,??_tone
  2437   000682  C02A  F01F         	movff	tone@toggle_time_us+1,??_tone+1
  2438   000686  90D8               	bcf	status,0,c
  2439   000688  321F               	rrcf	(??_tone+1)^0,f,c
  2440   00068A  321E               	rrcf	??_tone^0,f,c
  2441   00068C  90D8               	bcf	status,0,c
  2442   00068E  321F               	rrcf	(??_tone+1)^0,f,c
  2443   000690  321E               	rrcf	??_tone^0,f,c
  2444   000692  041E               	decf	??_tone^0,w,c
  2445   000694  0E01               	movlw	1
  2446   000696  581F               	subwfb	(??_tone+1)^0,w,c
  2447   000698  B0D8               	btfsc	status,0,c
  2448   00069A  EF51  F003         	goto	u1181
  2449   00069E  EF53  F003         	goto	u1180
  2450   0006A2                     u1181:
  2451   0006A2  EF67  F003         	goto	l1985
  2452   0006A6                     u1180:
  2453   0006A6                     
  2454                           ;main.c: 146:         prescaler_bits = 1;
  2455   0006A6  0E01               	movlw	1
  2456   0006A8  6E28               	movwf	tone@prescaler_bits^0,c
  2457   0006AA                     
  2458                           ;main.c: 147:         pr = (toggle_time_us / 4) - 1;
  2459   0006AA  C029  F01E         	movff	tone@toggle_time_us,??_tone
  2460   0006AE  C02A  F01F         	movff	tone@toggle_time_us+1,??_tone+1
  2461   0006B2  90D8               	bcf	status,0,c
  2462   0006B4  321F               	rrcf	(??_tone+1)^0,f,c
  2463   0006B6  321E               	rrcf	??_tone^0,f,c
  2464   0006B8  90D8               	bcf	status,0,c
  2465   0006BA  321F               	rrcf	(??_tone+1)^0,f,c
  2466   0006BC  321E               	rrcf	??_tone^0,f,c
  2467   0006BE  0EFF               	movlw	255
  2468   0006C0  241E               	addwf	??_tone^0,w,c
  2469   0006C2  6E26               	movwf	tone@pr^0,c
  2470   0006C4  0EFF               	movlw	255
  2471   0006C6  201F               	addwfc	(??_tone+1)^0,w,c
  2472   0006C8  6E27               	movwf	(tone@pr+1)^0,c
  2473                           
  2474                           ;main.c: 148:     } else if ((toggle_time_us / 16) <= 256) {
  2475   0006CA  EF91  F003         	goto	l1991
  2476   0006CE                     l1985:
  2477   0006CE  C029  F01E         	movff	tone@toggle_time_us,??_tone
  2478   0006D2  C02A  F01F         	movff	tone@toggle_time_us+1,??_tone+1
  2479   0006D6  0E04               	movlw	4
  2480   0006D8  6E20               	movwf	(??_tone+2)^0,c
  2481   0006DA                     u1195:
  2482   0006DA  90D8               	bcf	status,0,c
  2483   0006DC  321F               	rrcf	(??_tone+1)^0,f,c
  2484   0006DE  321E               	rrcf	??_tone^0,f,c
  2485   0006E0  2E20               	decfsz	(??_tone+2)^0,f,c
  2486   0006E2  EF6D  F003         	goto	u1195
  2487   0006E6  041E               	decf	??_tone^0,w,c
  2488   0006E8  0E01               	movlw	1
  2489   0006EA  581F               	subwfb	(??_tone+1)^0,w,c
  2490   0006EC  B0D8               	btfsc	status,0,c
  2491   0006EE  EF7B  F003         	goto	u1201
  2492   0006F2  EF7D  F003         	goto	u1200
  2493   0006F6                     u1201:
  2494   0006F6  EFC7  F003         	goto	l200
  2495   0006FA                     u1200:
  2496   0006FA                     
  2497                           ;main.c: 149:         prescaler_bits = 2;
  2498   0006FA  0E02               	movlw	2
  2499   0006FC  6E28               	movwf	tone@prescaler_bits^0,c
  2500   0006FE                     
  2501                           ;main.c: 150:         pr = (toggle_time_us / 16) - 1;
  2502   0006FE  C029  F01E         	movff	tone@toggle_time_us,??_tone
  2503   000702  C02A  F01F         	movff	tone@toggle_time_us+1,??_tone+1
  2504   000706  0E04               	movlw	4
  2505   000708  6E20               	movwf	(??_tone+2)^0,c
  2506   00070A                     u1215:
  2507   00070A  90D8               	bcf	status,0,c
  2508   00070C  321F               	rrcf	(??_tone+1)^0,f,c
  2509   00070E  321E               	rrcf	??_tone^0,f,c
  2510   000710  2E20               	decfsz	(??_tone+2)^0,f,c
  2511   000712  EF85  F003         	goto	u1215
  2512   000716  0EFF               	movlw	255
  2513   000718  241E               	addwf	??_tone^0,w,c
  2514   00071A  6E26               	movwf	tone@pr^0,c
  2515   00071C  0EFF               	movlw	255
  2516   00071E  201F               	addwfc	(??_tone+1)^0,w,c
  2517   000720  6E27               	movwf	(tone@pr+1)^0,c
  2518   000722                     l1991:
  2519                           
  2520                           ;main.c: 157:     T2CONbits.T2CKPS = prescaler_bits;
  2521   000722  50CA               	movf	202,w,c	;volatile
  2522   000724  1828               	xorwf	tone@prescaler_bits^0,w,c
  2523   000726  0BFC               	andlw	-4
  2524   000728  1828               	xorwf	tone@prescaler_bits^0,w,c
  2525   00072A  6ECA               	movwf	202,c	;volatile
  2526   00072C                     
  2527                           ;main.c: 160:     PR2 = (unsigned char)pr;
  2528   00072C  C026  FFCB         	movff	tone@pr,4043	;volatile
  2529   000730                     
  2530                           ;main.c: 161:     TMR2 = 0;
  2531   000730  6ACC               	clrf	204,c	;volatile
  2532   000732                     
  2533                           ;main.c: 162:     PIR1bits.TMR2IF = 0;
  2534   000732  929E               	bcf	158,1,c	;volatile
  2535   000734                     
  2536                           ;main.c: 165:     tone_toggle_count = ((unsigned long)duration_ms * 1000UL) / (unsigned 
      +                          long)toggle_time_us;
  2537   000734  C01C  F001         	movff	tone@duration_ms,___lmul@multiplier
  2538   000738  C01D  F002         	movff	tone@duration_ms+1,___lmul@multiplier+1
  2539   00073C  6A03               	clrf	(___lmul@multiplier+2)^0,c
  2540   00073E  6A04               	clrf	(___lmul@multiplier+3)^0,c
  2541   000740  0EE8               	movlw	232
  2542   000742  6E05               	movwf	___lmul@multiplicand^0,c
  2543   000744  0E03               	movlw	3
  2544   000746  6E06               	movwf	(___lmul@multiplicand+1)^0,c
  2545   000748  0E00               	movlw	0
  2546   00074A  6E07               	movwf	(___lmul@multiplicand+2)^0,c
  2547   00074C  0E00               	movlw	0
  2548   00074E  6E08               	movwf	(___lmul@multiplicand+3)^0,c
  2549   000750  EC7F  F009         	call	___lmul	;wreg free
  2550   000754  C001  F00D         	movff	?___lmul,___lldiv@dividend
  2551   000758  C002  F00E         	movff	?___lmul+1,___lldiv@dividend+1
  2552   00075C  C003  F00F         	movff	?___lmul+2,___lldiv@dividend+2
  2553   000760  C004  F010         	movff	?___lmul+3,___lldiv@dividend+3
  2554   000764  C029  F011         	movff	tone@toggle_time_us,___lldiv@divisor
  2555   000768  C02A  F012         	movff	tone@toggle_time_us+1,___lldiv@divisor+1
  2556   00076C  6A13               	clrf	(___lldiv@divisor+2)^0,c
  2557   00076E  6A14               	clrf	(___lldiv@divisor+3)^0,c
  2558   000770  ECBD  F008         	call	___lldiv	;wreg free
  2559   000774  C00D  F041         	movff	?___lldiv,_tone_toggle_count	;volatile
  2560   000778  C00E  F042         	movff	?___lldiv+1,_tone_toggle_count+1	;volatile
  2561   00077C  C00F  F043         	movff	?___lldiv+2,_tone_toggle_count+2	;volatile
  2562   000780  C010  F044         	movff	?___lldiv+3,_tone_toggle_count+3	;volatile
  2563   000784                     
  2564                           ;main.c: 168:     _delay((unsigned long)((10)*(4000000/4000000.0)));
  2565   000784  0E03               	movlw	3
  2566   000786                     u1887:
  2567   000786  2EE8               	decfsz	wreg,f,c
  2568   000788  D7FE               	bra	u1887
  2569   00078A  0000               	nop	
  2570   00078C                     
  2571                           ;main.c: 171:     T2CONbits.TMR2ON = 1;
  2572   00078C  84CA               	bsf	202,2,c	;volatile
  2573   00078E                     l200:
  2574   00078E  0012               	return		;funcret
  2575   000790                     __end_of_tone:
  2576                           	callstack 0
  2577                           
  2578 ;; *************** function ___lmul *****************
  2579 ;; Defined at:
  2580 ;;		line 15 in file "C:\Program Files\Microchip\xc8\v3.00\pic\sources\c99\common\Umul32.c"
  2581 ;; Parameters:    Size  Location     Type
  2582 ;;  multiplier      4    0[COMRAM] unsigned long 
  2583 ;;  multiplicand    4    4[COMRAM] unsigned long 
  2584 ;; Auto vars:     Size  Location     Type
  2585 ;;  product         4    8[COMRAM] unsigned long 
  2586 ;; Return value:  Size  Location     Type
  2587 ;;                  4    0[COMRAM] unsigned long 
  2588 ;; Registers used:
  2589 ;;		wreg, status,2, status,0
  2590 ;; Tracked objects:
  2591 ;;		On entry : 0/0
  2592 ;;		On exit  : 0/0
  2593 ;;		Unchanged: 0/0
  2594 ;; Data sizes:     COMRAM   BANK0   BANK1   BANK2   BANK3   BANK4   BANK5
  2595 ;;      Params:         8       0       0       0       0       0       0
  2596 ;;      Locals:         4       0       0       0       0       0       0
  2597 ;;      Temps:          0       0       0       0       0       0       0
  2598 ;;      Totals:        12       0       0       0       0       0       0
  2599 ;;Total ram usage:       12 bytes
  2600 ;; Hardware stack levels used: 1
  2601 ;; Hardware stack levels required when called: 2
  2602 ;; This function calls:
  2603 ;;		Nothing
  2604 ;; This function is called by:
  2605 ;;		_tone
  2606 ;; This function uses a non-reentrant model
  2607 ;;
  2608                           
  2609                           	psect	text5
  2610   0012FE                     __ptext5:
  2611                           	callstack 0
  2612   0012FE                     ___lmul:
  2613                           	callstack 26
  2614   0012FE  0E00               	movlw	0
  2615   001300  6E09               	movwf	___lmul@product^0,c
  2616   001302  0E00               	movlw	0
  2617   001304  6E0A               	movwf	(___lmul@product+1)^0,c
  2618   001306  0E00               	movlw	0
  2619   001308  6E0B               	movwf	(___lmul@product+2)^0,c
  2620   00130A  0E00               	movlw	0
  2621   00130C  6E0C               	movwf	(___lmul@product+3)^0,c
  2622   00130E                     l1869:
  2623   00130E  A001               	btfss	___lmul@multiplier^0,0,c
  2624   001310  EF8C  F009         	goto	u1061
  2625   001314  EF8E  F009         	goto	u1060
  2626   001318                     u1061:
  2627   001318  EF96  F009         	goto	l1873
  2628   00131C                     u1060:
  2629   00131C  5005               	movf	___lmul@multiplicand^0,w,c
  2630   00131E  2609               	addwf	___lmul@product^0,f,c
  2631   001320  5006               	movf	(___lmul@multiplicand+1)^0,w,c
  2632   001322  220A               	addwfc	(___lmul@product+1)^0,f,c
  2633   001324  5007               	movf	(___lmul@multiplicand+2)^0,w,c
  2634   001326  220B               	addwfc	(___lmul@product+2)^0,f,c
  2635   001328  5008               	movf	(___lmul@multiplicand+3)^0,w,c
  2636   00132A  220C               	addwfc	(___lmul@product+3)^0,f,c
  2637   00132C                     l1873:
  2638   00132C  90D8               	bcf	status,0,c
  2639   00132E  3605               	rlcf	___lmul@multiplicand^0,f,c
  2640   001330  3606               	rlcf	(___lmul@multiplicand+1)^0,f,c
  2641   001332  3607               	rlcf	(___lmul@multiplicand+2)^0,f,c
  2642   001334  3608               	rlcf	(___lmul@multiplicand+3)^0,f,c
  2643   001336  90D8               	bcf	status,0,c
  2644   001338  3204               	rrcf	(___lmul@multiplier+3)^0,f,c
  2645   00133A  3203               	rrcf	(___lmul@multiplier+2)^0,f,c
  2646   00133C  3202               	rrcf	(___lmul@multiplier+1)^0,f,c
  2647   00133E  3201               	rrcf	___lmul@multiplier^0,f,c
  2648   001340  5001               	movf	___lmul@multiplier^0,w,c
  2649   001342  1002               	iorwf	(___lmul@multiplier+1)^0,w,c
  2650   001344  1003               	iorwf	(___lmul@multiplier+2)^0,w,c
  2651   001346  1004               	iorwf	(___lmul@multiplier+3)^0,w,c
  2652   001348  A4D8               	btfss	status,2,c
  2653   00134A  EFA9  F009         	goto	u1071
  2654   00134E  EFAB  F009         	goto	u1070
  2655   001352                     u1071:
  2656   001352  EF87  F009         	goto	l1869
  2657   001356                     u1070:
  2658   001356  C009  F001         	movff	___lmul@product,?___lmul
  2659   00135A  C00A  F002         	movff	___lmul@product+1,?___lmul+1
  2660   00135E  C00B  F003         	movff	___lmul@product+2,?___lmul+2
  2661   001362  C00C  F004         	movff	___lmul@product+3,?___lmul+3
  2662   001366  0012               	return		;funcret
  2663   001368                     __end_of___lmul:
  2664                           	callstack 0
  2665                           
  2666 ;; *************** function ___lldiv *****************
  2667 ;; Defined at:
  2668 ;;		line 7 in file "C:\Program Files\Microchip\xc8\v3.00\pic\sources\c99\common\__lldiv.c"
  2669 ;; Parameters:    Size  Location     Type
  2670 ;;  dividend        4   12[COMRAM] unsigned long 
  2671 ;;  divisor         4   16[COMRAM] unsigned long 
  2672 ;; Auto vars:     Size  Location     Type
  2673 ;;  quotient        4   20[COMRAM] unsigned long 
  2674 ;;  counter         1   24[COMRAM] unsigned char 
  2675 ;; Return value:  Size  Location     Type
  2676 ;;                  4   12[COMRAM] unsigned long 
  2677 ;; Registers used:
  2678 ;;		wreg, status,2, status,0
  2679 ;; Tracked objects:
  2680 ;;		On entry : 0/0
  2681 ;;		On exit  : 0/0
  2682 ;;		Unchanged: 0/0
  2683 ;; Data sizes:     COMRAM   BANK0   BANK1   BANK2   BANK3   BANK4   BANK5
  2684 ;;      Params:         8       0       0       0       0       0       0
  2685 ;;      Locals:         5       0       0       0       0       0       0
  2686 ;;      Temps:          0       0       0       0       0       0       0
  2687 ;;      Totals:        13       0       0       0       0       0       0
  2688 ;;Total ram usage:       13 bytes
  2689 ;; Hardware stack levels used: 1
  2690 ;; Hardware stack levels required when called: 2
  2691 ;; This function calls:
  2692 ;;		Nothing
  2693 ;; This function is called by:
  2694 ;;		_tone
  2695 ;; This function uses a non-reentrant model
  2696 ;;
  2697                           
  2698                           	psect	text6
  2699   00117A                     __ptext6:
  2700                           	callstack 0
  2701   00117A                     ___lldiv:
  2702                           	callstack 26
  2703   00117A  0E00               	movlw	0
  2704   00117C  6E15               	movwf	___lldiv@quotient^0,c
  2705   00117E  0E00               	movlw	0
  2706   001180  6E16               	movwf	(___lldiv@quotient+1)^0,c
  2707   001182  0E00               	movlw	0
  2708   001184  6E17               	movwf	(___lldiv@quotient+2)^0,c
  2709   001186  0E00               	movlw	0
  2710   001188  6E18               	movwf	(___lldiv@quotient+3)^0,c
  2711   00118A  5011               	movf	___lldiv@divisor^0,w,c
  2712   00118C  1012               	iorwf	(___lldiv@divisor+1)^0,w,c
  2713   00118E  1013               	iorwf	(___lldiv@divisor+2)^0,w,c
  2714   001190  1014               	iorwf	(___lldiv@divisor+3)^0,w,c
  2715   001192  B4D8               	btfsc	status,2,c
  2716   001194  EFCE  F008         	goto	u1081
  2717   001198  EFD0  F008         	goto	u1080
  2718   00119C                     u1081:
  2719   00119C  EF06  F009         	goto	l263
  2720   0011A0                     u1080:
  2721   0011A0  0E01               	movlw	1
  2722   0011A2  6E19               	movwf	___lldiv@counter^0,c
  2723   0011A4  EFDA  F008         	goto	l1885
  2724   0011A8                     l1883:
  2725   0011A8  90D8               	bcf	status,0,c
  2726   0011AA  3611               	rlcf	___lldiv@divisor^0,f,c
  2727   0011AC  3612               	rlcf	(___lldiv@divisor+1)^0,f,c
  2728   0011AE  3613               	rlcf	(___lldiv@divisor+2)^0,f,c
  2729   0011B0  3614               	rlcf	(___lldiv@divisor+3)^0,f,c
  2730   0011B2  2A19               	incf	___lldiv@counter^0,f,c
  2731   0011B4                     l1885:
  2732   0011B4  AE14               	btfss	(___lldiv@divisor+3)^0,7,c
  2733   0011B6  EFDF  F008         	goto	u1091
  2734   0011BA  EFE1  F008         	goto	u1090
  2735   0011BE                     u1091:
  2736   0011BE  EFD4  F008         	goto	l1883
  2737   0011C2                     u1090:
  2738   0011C2                     l1887:
  2739   0011C2  90D8               	bcf	status,0,c
  2740   0011C4  3615               	rlcf	___lldiv@quotient^0,f,c
  2741   0011C6  3616               	rlcf	(___lldiv@quotient+1)^0,f,c
  2742   0011C8  3617               	rlcf	(___lldiv@quotient+2)^0,f,c
  2743   0011CA  3618               	rlcf	(___lldiv@quotient+3)^0,f,c
  2744   0011CC  5011               	movf	___lldiv@divisor^0,w,c
  2745   0011CE  5C0D               	subwf	___lldiv@dividend^0,w,c
  2746   0011D0  5012               	movf	(___lldiv@divisor+1)^0,w,c
  2747   0011D2  580E               	subwfb	(___lldiv@dividend+1)^0,w,c
  2748   0011D4  5013               	movf	(___lldiv@divisor+2)^0,w,c
  2749   0011D6  580F               	subwfb	(___lldiv@dividend+2)^0,w,c
  2750   0011D8  5014               	movf	(___lldiv@divisor+3)^0,w,c
  2751   0011DA  5810               	subwfb	(___lldiv@dividend+3)^0,w,c
  2752   0011DC  A0D8               	btfss	status,0,c
  2753   0011DE  EFF3  F008         	goto	u1101
  2754   0011E2  EFF5  F008         	goto	u1100
  2755   0011E6                     u1101:
  2756   0011E6  EFFE  F008         	goto	l1895
  2757   0011EA                     u1100:
  2758   0011EA  5011               	movf	___lldiv@divisor^0,w,c
  2759   0011EC  5E0D               	subwf	___lldiv@dividend^0,f,c
  2760   0011EE  5012               	movf	(___lldiv@divisor+1)^0,w,c
  2761   0011F0  5A0E               	subwfb	(___lldiv@dividend+1)^0,f,c
  2762   0011F2  5013               	movf	(___lldiv@divisor+2)^0,w,c
  2763   0011F4  5A0F               	subwfb	(___lldiv@dividend+2)^0,f,c
  2764   0011F6  5014               	movf	(___lldiv@divisor+3)^0,w,c
  2765   0011F8  5A10               	subwfb	(___lldiv@dividend+3)^0,f,c
  2766   0011FA  8015               	bsf	___lldiv@quotient^0,0,c
  2767   0011FC                     l1895:
  2768   0011FC  90D8               	bcf	status,0,c
  2769   0011FE  3214               	rrcf	(___lldiv@divisor+3)^0,f,c
  2770   001200  3213               	rrcf	(___lldiv@divisor+2)^0,f,c
  2771   001202  3212               	rrcf	(___lldiv@divisor+1)^0,f,c
  2772   001204  3211               	rrcf	___lldiv@divisor^0,f,c
  2773   001206  2E19               	decfsz	___lldiv@counter^0,f,c
  2774   001208  EFE1  F008         	goto	l1887
  2775   00120C                     l263:
  2776   00120C  C015  F00D         	movff	___lldiv@quotient,?___lldiv
  2777   001210  C016  F00E         	movff	___lldiv@quotient+1,?___lldiv+1
  2778   001214  C017  F00F         	movff	___lldiv@quotient+2,?___lldiv+2
  2779   001218  C018  F010         	movff	___lldiv@quotient+3,?___lldiv+3
  2780   00121C  0012               	return		;funcret
  2781   00121E                     __end_of___lldiv:
  2782                           	callstack 0
  2783                           
  2784 ;; *************** function _UpdateScreen *****************
  2785 ;; Defined at:
  2786 ;;		line 90 in file "main.c"
  2787 ;; Parameters:    Size  Location     Type
  2788 ;;  dist            2   43[COMRAM] unsigned int 
  2789 ;; Auto vars:     Size  Location     Type
  2790 ;;  a               7   45[COMRAM] unsigned char [7]
  2791 ;; Return value:  Size  Location     Type
  2792 ;;                  1    wreg      void 
  2793 ;; Registers used:
  2794 ;;		wreg, fsr1l, fsr1h, fsr2l, fsr2h, status,2, status,0, tblptrl, tblptrh, tblptru, prodl, prodh, cstack
  2795 ;; Tracked objects:
  2796 ;;		On entry : 0/0
  2797 ;;		On exit  : 0/0
  2798 ;;		Unchanged: 0/0
  2799 ;; Data sizes:     COMRAM   BANK0   BANK1   BANK2   BANK3   BANK4   BANK5
  2800 ;;      Params:         2       0       0       0       0       0       0
  2801 ;;      Locals:         7       0       0       0       0       0       0
  2802 ;;      Temps:          0       0       0       0       0       0       0
  2803 ;;      Totals:         9       0       0       0       0       0       0
  2804 ;;Total ram usage:        9 bytes
  2805 ;; Hardware stack levels used: 1
  2806 ;; Hardware stack levels required when called: 7
  2807 ;; This function calls:
  2808 ;;		_SSD1306_ClearScreen
  2809 ;;		_SSD1306_GotoStart
  2810 ;;		_SSD1306_String
  2811 ;;		_SendString
  2812 ;;		_sprintf
  2813 ;; This function is called by:
  2814 ;;		_main
  2815 ;; This function uses a non-reentrant model
  2816 ;;
  2817                           
  2818                           	psect	text7
  2819   00151C                     __ptext7:
  2820                           	callstack 0
  2821   00151C                     _UpdateScreen:
  2822                           	callstack 23
  2823   00151C                     
  2824                           ;main.c: 92:     unsigned char a[7];;main.c: 93:     SSD1306_ClearScreen();
  2825   00151C  EC49  F009         	call	_SSD1306_ClearScreen	;wreg free
  2826                           
  2827                           ;main.c: 94:     SSD1306_GotoStart();
  2828   001520  EC55  F00A         	call	_SSD1306_GotoStart	;wreg free
  2829   001524                     
  2830                           ;main.c: 95:     sprintf(a, "%u cm\n", dist);
  2831   001524  0E2E               	movlw	low UpdateScreen@a
  2832   001526  6E1B               	movwf	sprintf@s^0,c
  2833   001528  0EF7               	movlw	low STR_1
  2834   00152A  6E1C               	movwf	sprintf@fmt^0,c
  2835   00152C  0E7F               	movlw	high STR_1
  2836   00152E  6E1D               	movwf	(sprintf@fmt+1)^0,c
  2837   001530  C02C  F01E         	movff	UpdateScreen@dist,?_sprintf+3
  2838   001534  C02D  F01F         	movff	UpdateScreen@dist+1,?_sprintf+4
  2839   001538  EC72  F00A         	call	_sprintf	;wreg free
  2840   00153C                     
  2841                           ;main.c: 96:     SendString(a);
  2842   00153C  0E2E               	movlw	low UpdateScreen@a
  2843   00153E  6E02               	movwf	SendString@str^0,c
  2844   001540  ECA7  F00A         	call	_SendString	;wreg free
  2845   001544                     
  2846                           ;main.c: 97:     SSD1306_String(a);
  2847   001544  0E2E               	movlw	low UpdateScreen@a
  2848   001546  6E0A               	movwf	SSD1306_String@data^0,c
  2849   001548  ECE4  F006         	call	_SSD1306_String	;wreg free
  2850   00154C  0012               	return		;funcret
  2851   00154E                     __end_of_UpdateScreen:
  2852                           	callstack 0
  2853                           
  2854 ;; *************** function _sprintf *****************
  2855 ;; Defined at:
  2856 ;;		line 9 in file "C:\Program Files\Microchip\xc8\v3.00\pic\sources\c99\common\nf_sprintf.c"
  2857 ;; Parameters:    Size  Location     Type
  2858 ;;  s               1   26[COMRAM] PTR unsigned char 
  2859 ;;		 -> UpdateScreen@a(7), 
  2860 ;;  fmt             2   27[COMRAM] PTR const unsigned char 
  2861 ;;		 -> STR_1(7), 
  2862 ;; Auto vars:     Size  Location     Type
  2863 ;;  f              11   32[COMRAM] struct _IO_FILE
  2864 ;;  ret             2    0        int 
  2865 ;;  ap              1   31[COMRAM] PTR void [1]
  2866 ;;		 -> ?_sprintf(2), 
  2867 ;; Return value:  Size  Location     Type
  2868 ;;                  2   26[COMRAM] int 
  2869 ;; Registers used:
  2870 ;;		wreg, fsr1l, fsr1h, fsr2l, fsr2h, status,2, status,0, tblptrl, tblptrh, tblptru, cstack
  2871 ;; Tracked objects:
  2872 ;;		On entry : 0/0
  2873 ;;		On exit  : 0/0
  2874 ;;		Unchanged: 0/0
  2875 ;; Data sizes:     COMRAM   BANK0   BANK1   BANK2   BANK3   BANK4   BANK5
  2876 ;;      Params:         5       0       0       0       0       0       0
  2877 ;;      Locals:        12       0       0       0       0       0       0
  2878 ;;      Temps:          0       0       0       0       0       0       0
  2879 ;;      Totals:        17       0       0       0       0       0       0
  2880 ;;Total ram usage:       17 bytes
  2881 ;; Hardware stack levels used: 1
  2882 ;; Hardware stack levels required when called: 6
  2883 ;; This function calls:
  2884 ;;		_vfprintf
  2885 ;; This function is called by:
  2886 ;;		_UpdateScreen
  2887 ;; This function uses a non-reentrant model
  2888 ;;
  2889                           
  2890                           	psect	text8
  2891   0014E4                     __ptext8:
  2892                           	callstack 0
  2893   0014E4                     _sprintf:
  2894                           	callstack 23
  2895   0014E4  0E1E               	movlw	low (?_sprintf+3)
  2896   0014E6  6E20               	movwf	sprintf@ap^0,c
  2897   0014E8  C01B  F021         	movff	sprintf@s,sprintf@f
  2898   0014EC  0E00               	movlw	0
  2899   0014EE  6E24               	movwf	(sprintf@f+3)^0,c
  2900   0014F0  0E00               	movlw	0
  2901   0014F2  6E23               	movwf	(sprintf@f+2)^0,c
  2902   0014F4  0E00               	movlw	0
  2903   0014F6  6E2B               	movwf	(sprintf@f+10)^0,c
  2904   0014F8  0E00               	movlw	0
  2905   0014FA  6E2A               	movwf	(sprintf@f+9)^0,c
  2906   0014FC  0E21               	movlw	low sprintf@f
  2907   0014FE  6E15               	movwf	vfprintf@fp^0,c
  2908   001500  C01C  F016         	movff	sprintf@fmt,vfprintf@fmt
  2909   001504  C01D  F017         	movff	sprintf@fmt+1,vfprintf@fmt+1
  2910   001508  0E20               	movlw	low sprintf@ap
  2911   00150A  6E18               	movwf	vfprintf@ap^0,c
  2912   00150C  EC34  F00A         	call	_vfprintf	;wreg free
  2913   001510  501B               	movf	sprintf@s^0,w,c
  2914   001512  2423               	addwf	(sprintf@f+2)^0,w,c
  2915   001514  6ED9               	movwf	fsr2l,c
  2916   001516  6ADA               	clrf	fsr2h,c
  2917   001518  6ADF               	clrf	indf2,c
  2918   00151A  0012               	return		;funcret
  2919   00151C                     __end_of_sprintf:
  2920                           	callstack 0
  2921                           
  2922 ;; *************** function _vfprintf *****************
  2923 ;; Defined at:
  2924 ;;		line 1817 in file "C:\Program Files\Microchip\xc8\v3.00\pic\sources\c99\common\doprnt.c"
  2925 ;; Parameters:    Size  Location     Type
  2926 ;;  fp              1   20[COMRAM] PTR struct _IO_FILE
  2927 ;;		 -> sprintf@f(11), 
  2928 ;;  fmt             2   21[COMRAM] PTR const unsigned char 
  2929 ;;		 -> STR_1(7), 
  2930 ;;  ap              1   23[COMRAM] PTR PTR void 
  2931 ;;		 -> sprintf@ap(1), 
  2932 ;; Auto vars:     Size  Location     Type
  2933 ;;  cfmt            2   24[COMRAM] PTR unsigned char 
  2934 ;;		 -> STR_1(7), 
  2935 ;; Return value:  Size  Location     Type
  2936 ;;                  2   20[COMRAM] int 
  2937 ;; Registers used:
  2938 ;;		wreg, fsr1l, fsr1h, fsr2l, fsr2h, status,2, status,0, tblptrl, tblptrh, tblptru, cstack
  2939 ;; Tracked objects:
  2940 ;;		On entry : 0/0
  2941 ;;		On exit  : 0/0
  2942 ;;		Unchanged: 0/0
  2943 ;; Data sizes:     COMRAM   BANK0   BANK1   BANK2   BANK3   BANK4   BANK5
  2944 ;;      Params:         4       0       0       0       0       0       0
  2945 ;;      Locals:         2       0       0       0       0       0       0
  2946 ;;      Temps:          0       0       0       0       0       0       0
  2947 ;;      Totals:         6       0       0       0       0       0       0
  2948 ;;Total ram usage:        6 bytes
  2949 ;; Hardware stack levels used: 1
  2950 ;; Hardware stack levels required when called: 5
  2951 ;; This function calls:
  2952 ;;		_vfpfcnvrt
  2953 ;; This function is called by:
  2954 ;;		_sprintf
  2955 ;; This function uses a non-reentrant model
  2956 ;;
  2957                           
  2958                           	psect	text9
  2959   001468                     __ptext9:
  2960                           	callstack 0
  2961   001468                     _vfprintf:
  2962                           	callstack 23
  2963   001468                     
  2964                           ;C:\Program Files\Microchip\xc8\v3.00\pic\sources\c99\common\doprnt.c: 1817: int vfprint
      +                          f(FILE *fp, const char *fmt, va_list ap);C:\Program Files\Microchip\xc8\v3.00\pic\source
      +                          s\c99\common\doprnt.c: 1818: {;C:\Program Files\Microchip\xc8\v3.00\pic\sources\c99\comm
      +                          on\doprnt.c: 1820:     char *cfmt;;C:\Program Files\Microchip\xc8\v3.00\pic\sources\c99\
      +                          common\doprnt.c: 1822:     cfmt = (char *)fmt;
  2965   001468  C016  F019         	movff	vfprintf@fmt,vfprintf@cfmt
  2966   00146C  C017  F01A         	movff	vfprintf@fmt+1,vfprintf@cfmt+1
  2967                           
  2968                           ;C:\Program Files\Microchip\xc8\v3.00\pic\sources\c99\common\doprnt.c: 1826:     while (
      +                          *cfmt) {
  2969   001470  EF42  F00A         	goto	l1903
  2970   001474                     l1901:
  2971                           
  2972                           ;C:\Program Files\Microchip\xc8\v3.00\pic\sources\c99\common\doprnt.c: 1830:    vfpfcnvr
      +                          t(fp, &cfmt, ap);
  2973   001474  C015  F009         	movff	vfprintf@fp,vfpfcnvrt@fp
  2974   001478  0E19               	movlw	low vfprintf@cfmt
  2975   00147A  6E0A               	movwf	vfpfcnvrt@fmt^0,c
  2976   00147C  C018  F00B         	movff	vfprintf@ap,vfpfcnvrt@ap
  2977   001480  ECC8  F003         	call	_vfpfcnvrt	;wreg free
  2978   001484                     l1903:
  2979                           
  2980                           ;C:\Program Files\Microchip\xc8\v3.00\pic\sources\c99\common\doprnt.c: 1826:     while (
      +                          *cfmt) {
  2981   001484  C019  FFF6         	movff	vfprintf@cfmt,tblptrl
  2982   001488  C01A  FFF7         	movff	vfprintf@cfmt+1,tblptrh
  2983   00148C                     	if	0	;tblptru may be non-zero
  2984   00148C                     	endif
  2985   00148C                     	if	0	;tblptru may be non-zero
  2986   00148C                     	endif
  2987   00148C  0008               	tblrd		*
  2988   00148E  50F5               	movf	tablat,w,c
  2989   001490  0900               	iorlw	0
  2990   001492  A4D8               	btfss	status,2,c
  2991   001494  EF4E  F00A         	goto	u1111
  2992   001498  EF50  F00A         	goto	u1110
  2993   00149C                     u1111:
  2994   00149C  EF3A  F00A         	goto	l1901
  2995   0014A0                     u1110:
  2996   0014A0                     
  2997                           ;C:\Program Files\Microchip\xc8\v3.00\pic\sources\c99\common\doprnt.c: 1835:  return 0;
  2998   0014A0  0E00               	movlw	0
  2999   0014A2  6E16               	movwf	(?_vfprintf+1)^0,c
  3000   0014A4  0E00               	movlw	0
  3001   0014A6  6E15               	movwf	?_vfprintf^0,c
  3002   0014A8  0012               	return		;funcret
  3003   0014AA                     __end_of_vfprintf:
  3004                           	callstack 0
  3005                           
  3006 ;; *************** function _vfpfcnvrt *****************
  3007 ;; Defined at:
  3008 ;;		line 1177 in file "C:\Program Files\Microchip\xc8\v3.00\pic\sources\c99\common\doprnt.c"
  3009 ;; Parameters:    Size  Location     Type
  3010 ;;  fp              1    8[COMRAM] PTR struct _IO_FILE
  3011 ;;		 -> sprintf@f(11), 
  3012 ;;  fmt             1    9[COMRAM] PTR PTR unsigned char 
  3013 ;;		 -> vfprintf@cfmt(2), 
  3014 ;;  ap              1   10[COMRAM] PTR PTR void 
  3015 ;;		 -> sprintf@ap(1), 
  3016 ;; Auto vars:     Size  Location     Type
  3017 ;;  convarg         4   15[COMRAM] struct .
  3018 ;;  cp              2   13[COMRAM] PTR unsigned char 
  3019 ;;		 -> STR_1(7), 
  3020 ;;  c               1   19[COMRAM] unsigned char 
  3021 ;;  done            1    0        _Bool 
  3022 ;; Return value:  Size  Location     Type
  3023 ;;                  1    wreg      void 
  3024 ;; Registers used:
  3025 ;;		wreg, fsr1l, fsr1h, fsr2l, fsr2h, status,2, status,0, tblptrl, tblptrh, tblptru, cstack
  3026 ;; Tracked objects:
  3027 ;;		On entry : 0/0
  3028 ;;		On exit  : 0/0
  3029 ;;		Unchanged: 0/0
  3030 ;; Data sizes:     COMRAM   BANK0   BANK1   BANK2   BANK3   BANK4   BANK5
  3031 ;;      Params:         3       0       0       0       0       0       0
  3032 ;;      Locals:         7       0       0       0       0       0       0
  3033 ;;      Temps:          2       0       0       0       0       0       0
  3034 ;;      Totals:        12       0       0       0       0       0       0
  3035 ;;Total ram usage:       12 bytes
  3036 ;; Hardware stack levels used: 1
  3037 ;; Hardware stack levels required when called: 4
  3038 ;; This function calls:
  3039 ;;		___lwdiv
  3040 ;;		___lwmod
  3041 ;;		_fputc
  3042 ;; This function is called by:
  3043 ;;		_vfprintf
  3044 ;; This function uses a non-reentrant model
  3045 ;;
  3046                           
  3047                           	psect	text10
  3048   000790                     __ptext10:
  3049                           	callstack 0
  3050   000790                     _vfpfcnvrt:
  3051                           	callstack 23
  3052   000790                     
  3053                           ;C:\Program Files\Microchip\xc8\v3.00\pic\sources\c99\common\doprnt.c: 1177: vfpfcnvrt(F
      +                          ILE *fp, char *fmt[], va_list ap);C:\Program Files\Microchip\xc8\v3.00\pic\sources\c99\c
      +                          ommon\doprnt.c: 1178: {;C:\Program Files\Microchip\xc8\v3.00\pic\sources\c99\common\dopr
      +                          nt.c: 1179:     char c, *cp;;C:\Program Files\Microchip\xc8\v3.00\pic\sources\c99\common
      +                          \doprnt.c: 1180:     _Bool done;;C:\Program Files\Microchip\xc8\v3.00\pic\sources\c99\co
      +                          mmon\doprnt.c: 1188:  } convarg;;C:\Program Files\Microchip\xc8\v3.00\pic\sources\c99\co
      +                          mmon\doprnt.c: 1201:     if ((*fmt)[0] == '%') {
  3054   000790  500A               	movf	vfpfcnvrt@fmt^0,w,c
  3055   000792  6ED9               	movwf	fsr2l,c
  3056   000794  6ADA               	clrf	fsr2h,c
  3057   000796  CFDE FFF6          	movff	postinc2,tblptrl
  3058   00079A  CFDD FFF7          	movff	postdec2,tblptrh
  3059   00079E                     	if	0	;tblptru may be non-zero
  3060   00079E                     	endif
  3061   00079E                     	if	0	;tblptru may be non-zero
  3062   00079E                     	endif
  3063   00079E  0008               	tblrd		*
  3064   0007A0  50F5               	movf	tablat,w,c
  3065   0007A2  0A25               	xorlw	37
  3066   0007A4  A4D8               	btfss	status,2,c
  3067   0007A6  EFD7  F003         	goto	u1001
  3068   0007AA  EFD9  F003         	goto	u1000
  3069   0007AE                     u1001:
  3070   0007AE  EF79  F004         	goto	l1849
  3071   0007B2                     u1000:
  3072   0007B2                     
  3073                           ;C:\Program Files\Microchip\xc8\v3.00\pic\sources\c99\common\doprnt.c: 1202:         ++*
      +                          fmt;
  3074   0007B2  500A               	movf	vfpfcnvrt@fmt^0,w,c
  3075   0007B4  6ED9               	movwf	fsr2l,c
  3076   0007B6  6ADA               	clrf	fsr2h,c
  3077   0007B8  2ADE               	incf	postinc2,f,c
  3078   0007BA  0E00               	movlw	0
  3079   0007BC  22DD               	addwfc	postdec2,f,c
  3080   0007BE                     
  3081                           ;C:\Program Files\Microchip\xc8\v3.00\pic\sources\c99\common\doprnt.c: 1204:         fla
      +                          gs = width = 0;
  3082   0007BE  0E00               	movlw	0
  3083   0007C0  6E46               	movwf	(_width+1)^0,c
  3084   0007C2  0E00               	movlw	0
  3085   0007C4  6E45               	movwf	_width^0,c
  3086   0007C6  C045  F049         	movff	_width,_flags
  3087   0007CA                     
  3088                           ;C:\Program Files\Microchip\xc8\v3.00\pic\sources\c99\common\doprnt.c: 1205:         pre
      +                          c = -1;
  3089   0007CA  6847               	setf	_prec^0,c
  3090   0007CC  6848               	setf	(_prec+1)^0,c
  3091   0007CE                     
  3092                           ;C:\Program Files\Microchip\xc8\v3.00\pic\sources\c99\common\doprnt.c: 1439:   if (0
  3093   0007CE  500A               	movf	vfpfcnvrt@fmt^0,w,c
  3094   0007D0  6ED9               	movwf	fsr2l,c
  3095   0007D2  6ADA               	clrf	fsr2h,c
  3096   0007D4  CFDE F00E          	movff	postinc2,vfpfcnvrt@cp
  3097   0007D8  CFDD F00F          	movff	postdec2,vfpfcnvrt@cp+1
  3098   0007DC  C00E  FFF6         	movff	vfpfcnvrt@cp,tblptrl
  3099   0007E0  C00F  FFF7         	movff	vfpfcnvrt@cp+1,tblptrh
  3100   0007E4                     	if	0	;tblptru may be non-zero
  3101   0007E4                     	endif
  3102   0007E4                     	if	0	;tblptru may be non-zero
  3103   0007E4                     	endif
  3104   0007E4  0008               	tblrd		*
  3105   0007E6  50F5               	movf	tablat,w,c
  3106   0007E8  0A75               	xorlw	117
  3107   0007EA  A4D8               	btfss	status,2,c
  3108   0007EC  EFFA  F003         	goto	u1011
  3109   0007F0  EFFC  F003         	goto	u1010
  3110   0007F4                     u1011:
  3111   0007F4  EF71  F004         	goto	l1845
  3112   0007F8                     u1010:
  3113   0007F8                     
  3114                           ;C:\Program Files\Microchip\xc8\v3.00\pic\sources\c99\common\doprnt.c: 1452:     ) {;C:\
      +                          Program Files\Microchip\xc8\v3.00\pic\sources\c99\common\doprnt.c: 1495:    convarg.uint
      +                           = (vfpf_uint_t)(unsigned int)(*(unsigned int *)__va_arg(*(unsigned int **)ap, (unsigned
      +                           int)0));
  3115   0007F8  500B               	movf	vfpfcnvrt@ap^0,w,c
  3116   0007FA  6ED9               	movwf	fsr2l,c
  3117   0007FC  6ADA               	clrf	fsr2h,c
  3118   0007FE  0E02               	movlw	2
  3119   000800  26DF               	addwf	indf2,f,c
  3120   000802  5CDF               	subwf	indf2,w,c
  3121   000804  6ED9               	movwf	fsr2l,c
  3122   000806  6ADA               	clrf	fsr2h,c
  3123   000808  CFDE F010          	movff	postinc2,vfpfcnvrt@convarg
  3124   00080C  CFDE F011          	movff	postinc2,vfpfcnvrt@convarg+1
  3125   000810                     
  3126                           ;C:\Program Files\Microchip\xc8\v3.00\pic\sources\c99\common\doprnt.c: 1497:    *fmt = c
      +                          p+1;
  3127   000810  0E01               	movlw	1
  3128   000812  240E               	addwf	vfpfcnvrt@cp^0,w,c
  3129   000814  6E0C               	movwf	??_vfpfcnvrt^0,c
  3130   000816  0E00               	movlw	0
  3131   000818  200F               	addwfc	(vfpfcnvrt@cp+1)^0,w,c
  3132   00081A  6E0D               	movwf	(??_vfpfcnvrt+1)^0,c
  3133   00081C  500A               	movf	vfpfcnvrt@fmt^0,w,c
  3134   00081E  6ED9               	movwf	fsr2l,c
  3135   000820  6ADA               	clrf	fsr2h,c
  3136   000822  C00C  FFDE         	movff	??_vfpfcnvrt,postinc2
  3137   000826  C00D  FFDD         	movff	??_vfpfcnvrt+1,postdec2
  3138                           
  3139                           ;C:\Program Files\Microchip\xc8\v3.00\pic\sources\c99\common\doprnt.c: 1498:    switch (
      +                          *cp) {
  3140   00082A  EF65  F004         	goto	l1843
  3141   00082E                     l1825:
  3142                           
  3143                           ;C:\Program Files\Microchip\xc8\v3.00\pic\sources\c99\common\doprnt.c: 1525:      c = si
      +                          zeof(dbuf);
  3144   00082E  0E20               	movlw	32
  3145   000830  6E14               	movwf	vfpfcnvrt@c^0,c
  3146   000832                     l1827:
  3147                           
  3148                           ;C:\Program Files\Microchip\xc8\v3.00\pic\sources\c99\common\doprnt.c: 1527:       dbuf[
      +                          --c] = (convarg.uint % 10) + '0';
  3149   000832  0614               	decf	vfpfcnvrt@c^0,f,c
  3150   000834  5014               	movf	vfpfcnvrt@c^0,w,c
  3151   000836  0F60               	addlw	low _dbuf
  3152   000838  6ED9               	movwf	fsr2l,c
  3153   00083A  6ADA               	clrf	fsr2h,c
  3154   00083C  C010  F001         	movff	vfpfcnvrt@convarg,___lwmod@dividend
  3155   000840  C011  F002         	movff	vfpfcnvrt@convarg+1,___lwmod@dividend+1
  3156   000844  0E00               	movlw	0
  3157   000846  6E04               	movwf	(___lwmod@divisor+1)^0,c
  3158   000848  0E0A               	movlw	10
  3159   00084A  6E03               	movwf	___lwmod@divisor^0,c
  3160   00084C  ECB4  F009         	call	___lwmod	;wreg free
  3161   000850  5001               	movf	?___lwmod^0,w,c
  3162   000852  0F30               	addlw	48
  3163   000854  6EDF               	movwf	indf2,c
  3164   000856                     
  3165                           ;C:\Program Files\Microchip\xc8\v3.00\pic\sources\c99\common\doprnt.c: 1528:       conva
      +                          rg.uint /= 10;
  3166   000856  C010  F001         	movff	vfpfcnvrt@convarg,___lwdiv@dividend
  3167   00085A  C011  F002         	movff	vfpfcnvrt@convarg+1,___lwdiv@dividend+1
  3168   00085E  0E00               	movlw	0
  3169   000860  6E04               	movwf	(___lwdiv@divisor+1)^0,c
  3170   000862  0E0A               	movlw	10
  3171   000864  6E03               	movwf	___lwdiv@divisor^0,c
  3172   000866  EC0F  F009         	call	___lwdiv	;wreg free
  3173   00086A  C001  F010         	movff	?___lwdiv,vfpfcnvrt@convarg
  3174   00086E  C002  F011         	movff	?___lwdiv+1,vfpfcnvrt@convarg+1
  3175   000872                     
  3176                           ;C:\Program Files\Microchip\xc8\v3.00\pic\sources\c99\common\doprnt.c: 1532:      } whil
      +                          e (convarg.uint != 0 && c != 0);
  3177   000872  5010               	movf	vfpfcnvrt@convarg^0,w,c
  3178   000874  1011               	iorwf	(vfpfcnvrt@convarg+1)^0,w,c
  3179   000876  B4D8               	btfsc	status,2,c
  3180   000878  EF40  F004         	goto	u1021
  3181   00087C  EF42  F004         	goto	u1020
  3182   000880                     u1021:
  3183   000880  EF5A  F004         	goto	l1839
  3184   000884                     u1020:
  3185   000884  5014               	movf	vfpfcnvrt@c^0,w,c
  3186   000886  A4D8               	btfss	status,2,c
  3187   000888  EF48  F004         	goto	u1031
  3188   00088C  EF4A  F004         	goto	u1030
  3189   000890                     u1031:
  3190   000890  EF19  F004         	goto	l1827
  3191   000894                     u1030:
  3192   000894  EF5A  F004         	goto	l1839
  3193   000898                     l1835:
  3194                           
  3195                           ;C:\Program Files\Microchip\xc8\v3.00\pic\sources\c99\common\doprnt.c: 1534:       fputc
      +                          (dbuf[c++], fp);
  3196   000898  5014               	movf	vfpfcnvrt@c^0,w,c
  3197   00089A  0F60               	addlw	low _dbuf
  3198   00089C  6ED9               	movwf	fsr2l,c
  3199   00089E  6ADA               	clrf	fsr2h,c
  3200   0008A0  50DF               	movf	indf2,w,c
  3201   0008A2  6E0C               	movwf	??_vfpfcnvrt^0,c
  3202   0008A4  500C               	movf	??_vfpfcnvrt^0,w,c
  3203   0008A6  6E01               	movwf	fputc@c^0,c
  3204   0008A8  6A02               	clrf	(fputc@c+1)^0,c
  3205   0008AA  C009  F003         	movff	vfpfcnvrt@fp,fputc@fp
  3206   0008AE  EC15  F008         	call	_fputc	;wreg free
  3207   0008B2  2A14               	incf	vfpfcnvrt@c^0,f,c
  3208   0008B4                     l1839:
  3209                           
  3210                           ;C:\Program Files\Microchip\xc8\v3.00\pic\sources\c99\common\doprnt.c: 1533:      while 
      +                          (c != sizeof(dbuf)) {
  3211   0008B4  0E20               	movlw	32
  3212   0008B6  1814               	xorwf	vfpfcnvrt@c^0,w,c
  3213   0008B8  A4D8               	btfss	status,2,c
  3214   0008BA  EF61  F004         	goto	u1041
  3215   0008BE  EF63  F004         	goto	u1040
  3216   0008C2                     u1041:
  3217   0008C2  EF4C  F004         	goto	l1835
  3218   0008C6                     u1040:
  3219   0008C6  EF8A  F004         	goto	l957
  3220   0008CA                     l1843:
  3221   0008CA  C00E  FFF6         	movff	vfpfcnvrt@cp,tblptrl
  3222   0008CE  C00F  FFF7         	movff	vfpfcnvrt@cp+1,tblptrh
  3223   0008D2                     	if	0	;tblptru may be non-zero
  3224   0008D2                     	endif
  3225   0008D2                     	if	0	;tblptru may be non-zero
  3226   0008D2                     	endif
  3227   0008D2  0008               	tblrd		*
  3228   0008D4  50F5               	movf	tablat,w,c
  3229                           
  3230                           ; Switch size 1, requested type "simple"
  3231                           ; Number of cases is 1, Range of values is 117 to 117
  3232                           ; switch strategies available:
  3233                           ; Name         Instructions Cycles
  3234                           ; simple_byte            4     3 (average)
  3235                           ;	Chosen strategy is simple_byte
  3236   0008D6  0A75               	xorlw	117	; case 117
  3237   0008D8  B4D8               	btfsc	status,2,c
  3238   0008DA  EF17  F004         	goto	l1825
  3239   0008DE  EF71  F004         	goto	l1845
  3240   0008E2                     l1845:
  3241                           
  3242                           ;C:\Program Files\Microchip\xc8\v3.00\pic\sources\c99\common\doprnt.c: 1806:         ++*
      +                          fmt;
  3243   0008E2  500A               	movf	vfpfcnvrt@fmt^0,w,c
  3244   0008E4  6ED9               	movwf	fsr2l,c
  3245   0008E6  6ADA               	clrf	fsr2h,c
  3246   0008E8  2ADE               	incf	postinc2,f,c
  3247   0008EA  0E00               	movlw	0
  3248   0008EC  22DD               	addwfc	postdec2,f,c
  3249   0008EE  EF8A  F004         	goto	l957
  3250   0008F2                     l1849:
  3251                           
  3252                           ;C:\Program Files\Microchip\xc8\v3.00\pic\sources\c99\common\doprnt.c: 1811:     fputc((
      +                          int)(*fmt)[0], fp);
  3253   0008F2  500A               	movf	vfpfcnvrt@fmt^0,w,c
  3254   0008F4  6ED9               	movwf	fsr2l,c
  3255   0008F6  6ADA               	clrf	fsr2h,c
  3256   0008F8  CFDE FFF6          	movff	postinc2,tblptrl
  3257   0008FC  CFDD FFF7          	movff	postdec2,tblptrh
  3258   000900                     	if	0	;tblptru may be non-zero
  3259   000900                     	endif
  3260   000900                     	if	0	;tblptru may be non-zero
  3261   000900                     	endif
  3262   000900  0008               	tblrd		*
  3263   000902  50F5               	movf	tablat,w,c
  3264   000904  6E01               	movwf	fputc@c^0,c
  3265   000906  6A02               	clrf	(fputc@c+1)^0,c
  3266   000908  C009  F003         	movff	vfpfcnvrt@fp,fputc@fp
  3267   00090C  EC15  F008         	call	_fputc	;wreg free
  3268   000910  EF71  F004         	goto	l1845
  3269   000914                     l957:
  3270   000914  0012               	return		;funcret
  3271   000916                     __end_of_vfpfcnvrt:
  3272                           	callstack 0
  3273                           
  3274 ;; *************** function _fputc *****************
  3275 ;; Defined at:
  3276 ;;		line 8 in file "C:\Program Files\Microchip\xc8\v3.00\pic\sources\c99\common\nf_fputc.c"
  3277 ;; Parameters:    Size  Location     Type
  3278 ;;  c               2    0[COMRAM] int 
  3279 ;;  fp              1    2[COMRAM] PTR struct _IO_FILE
  3280 ;;		 -> sprintf@f(11), 
  3281 ;; Auto vars:     Size  Location     Type
  3282 ;;		None
  3283 ;; Return value:  Size  Location     Type
  3284 ;;                  2    0[COMRAM] int 
  3285 ;; Registers used:
  3286 ;;		wreg, fsr1l, fsr1h, fsr2l, fsr2h, status,2, status,0, cstack
  3287 ;; Tracked objects:
  3288 ;;		On entry : 0/0
  3289 ;;		On exit  : 0/0
  3290 ;;		Unchanged: 0/0
  3291 ;; Data sizes:     COMRAM   BANK0   BANK1   BANK2   BANK3   BANK4   BANK5
  3292 ;;      Params:         3       0       0       0       0       0       0
  3293 ;;      Locals:         0       0       0       0       0       0       0
  3294 ;;      Temps:          5       0       0       0       0       0       0
  3295 ;;      Totals:         8       0       0       0       0       0       0
  3296 ;;Total ram usage:        8 bytes
  3297 ;; Hardware stack levels used: 1
  3298 ;; Hardware stack levels required when called: 3
  3299 ;; This function calls:
  3300 ;;		_putch
  3301 ;; This function is called by:
  3302 ;;		_vfpfcnvrt
  3303 ;; This function uses a non-reentrant model
  3304 ;;
  3305                           
  3306                           	psect	text11
  3307   00102A                     __ptext11:
  3308                           	callstack 0
  3309   00102A                     _fputc:
  3310                           	callstack 23
  3311   00102A  5003               	movf	fputc@fp^0,w,c
  3312   00102C  B4D8               	btfsc	status,2,c
  3313   00102E  EF1B  F008         	goto	u961
  3314   001032  EF1D  F008         	goto	u960
  3315   001036                     u961:
  3316   001036  EF25  F008         	goto	l1799
  3317   00103A                     u960:
  3318   00103A  5003               	movf	fputc@fp^0,w,c
  3319   00103C  A4D8               	btfss	status,2,c
  3320   00103E  EF23  F008         	goto	u971
  3321   001042  EF25  F008         	goto	u970
  3322   001046                     u971:
  3323   001046  EF2A  F008         	goto	l1801
  3324   00104A                     u970:
  3325   00104A                     l1799:
  3326   00104A  5001               	movf	fputc@c^0,w,c
  3327   00104C  EC3B  F00B         	call	_putch
  3328   001050  EF69  F008         	goto	l976
  3329   001054                     l1801:
  3330   001054  5003               	movf	fputc@fp^0,w,c
  3331   001056  6ED9               	movwf	fsr2l,c
  3332   001058  6ADA               	clrf	fsr2h,c
  3333   00105A  0E09               	movlw	9
  3334   00105C  26D9               	addwf	fsr2l,f,c
  3335   00105E  50DE               	movf	postinc2,w,c
  3336   001060  10DE               	iorwf	postinc2,w,c
  3337   001062  B4D8               	btfsc	status,2,c
  3338   001064  EF36  F008         	goto	u981
  3339   001068  EF38  F008         	goto	u980
  3340   00106C                     u981:
  3341   00106C  EF51  F008         	goto	l1805
  3342   001070                     u980:
  3343   001070  5003               	movf	fputc@fp^0,w,c
  3344   001072  6ED9               	movwf	fsr2l,c
  3345   001074  6ADA               	clrf	fsr2h,c
  3346   001076  0E09               	movlw	9
  3347   001078  26D9               	addwf	fsr2l,f,c
  3348   00107A  5003               	movf	fputc@fp^0,w,c
  3349   00107C  6EE1               	movwf	fsr1l,c
  3350   00107E  6AE2               	clrf	fsr1h,c
  3351   001080  0E02               	movlw	2
  3352   001082  26E1               	addwf	fsr1l,f,c
  3353   001084  50DE               	movf	postinc2,w,c
  3354   001086  5CE6               	subwf	postinc1,w,c
  3355   001088  50E6               	movf	postinc1,w,c
  3356   00108A  0A80               	xorlw	128
  3357   00108C  6E08               	movwf	(??_fputc+4)^0,c
  3358   00108E  50DE               	movf	postinc2,w,c
  3359   001090  0A80               	xorlw	128
  3360   001092  5808               	subwfb	(??_fputc+4)^0,w,c
  3361   001094  B0D8               	btfsc	status,0,c
  3362   001096  EF4F  F008         	goto	u991
  3363   00109A  EF51  F008         	goto	u990
  3364   00109E                     u991:
  3365   00109E  EF69  F008         	goto	l976
  3366   0010A2                     u990:
  3367   0010A2                     l1805:
  3368   0010A2  5003               	movf	fputc@fp^0,w,c
  3369   0010A4  6ED9               	movwf	fsr2l,c
  3370   0010A6  6ADA               	clrf	fsr2h,c
  3371   0010A8  0E02               	movlw	2
  3372   0010AA  26D9               	addwf	fsr2l,f,c
  3373   0010AC  50DF               	movf	indf2,w,c
  3374   0010AE  6E04               	movwf	??_fputc^0,c
  3375   0010B0  5003               	movf	fputc@fp^0,w,c
  3376   0010B2  6ED9               	movwf	fsr2l,c
  3377   0010B4  6ADA               	clrf	fsr2h,c
  3378   0010B6  50DF               	movf	indf2,w,c
  3379   0010B8  2404               	addwf	??_fputc^0,w,c
  3380   0010BA  6ED9               	movwf	fsr2l,c
  3381   0010BC  6ADA               	clrf	fsr2h,c
  3382   0010BE  C001  FFDF         	movff	fputc@c,indf2
  3383   0010C2  5003               	movf	fputc@fp^0,w,c
  3384   0010C4  6ED9               	movwf	fsr2l,c
  3385   0010C6  6ADA               	clrf	fsr2h,c
  3386   0010C8  0E02               	movlw	2
  3387   0010CA  26D9               	addwf	fsr2l,f,c
  3388   0010CC  2ADE               	incf	postinc2,f,c
  3389   0010CE  0E00               	movlw	0
  3390   0010D0  22DD               	addwfc	postdec2,f,c
  3391   0010D2                     l976:
  3392   0010D2  0012               	return		;funcret
  3393   0010D4                     __end_of_fputc:
  3394                           	callstack 0
  3395                           
  3396 ;; *************** function _putch *****************
  3397 ;; Defined at:
  3398 ;;		line 7 in file "C:\Program Files\Microchip\xc8\v3.00\pic\sources\c99\common\putch.c"
  3399 ;; Parameters:    Size  Location     Type
  3400 ;;  c               1    wreg     unsigned char 
  3401 ;; Auto vars:     Size  Location     Type
  3402 ;;  c               1    0[COMRAM] unsigned char 
  3403 ;; Return value:  Size  Location     Type
  3404 ;;                  1    wreg      void 
  3405 ;; Registers used:
  3406 ;;		wreg
  3407 ;; Tracked objects:
  3408 ;;		On entry : 0/0
  3409 ;;		On exit  : 0/0
  3410 ;;		Unchanged: 0/0
  3411 ;; Data sizes:     COMRAM   BANK0   BANK1   BANK2   BANK3   BANK4   BANK5
  3412 ;;      Params:         0       0       0       0       0       0       0
  3413 ;;      Locals:         0       0       0       0       0       0       0
  3414 ;;      Temps:          0       0       0       0       0       0       0
  3415 ;;      Totals:         0       0       0       0       0       0       0
  3416 ;;Total ram usage:        0 bytes
  3417 ;; Hardware stack levels used: 1
  3418 ;; Hardware stack levels required when called: 2
  3419 ;; This function calls:
  3420 ;;		Nothing
  3421 ;; This function is called by:
  3422 ;;		_fputc
  3423 ;; This function uses a non-reentrant model
  3424 ;;
  3425                           
  3426                           	psect	text12
  3427   001676                     __ptext12:
  3428                           	callstack 0
  3429   001676                     _putch:
  3430                           	callstack 23
  3431   001676  0012               	return		;funcret
  3432   001678                     __end_of_putch:
  3433                           	callstack 0
  3434                           
  3435 ;; *************** function ___lwmod *****************
  3436 ;; Defined at:
  3437 ;;		line 7 in file "C:\Program Files\Microchip\xc8\v3.00\pic\sources\c99\common\lwmod.c"
  3438 ;; Parameters:    Size  Location     Type
  3439 ;;  dividend        2    0[COMRAM] unsigned int 
  3440 ;;  divisor         2    2[COMRAM] unsigned int 
  3441 ;; Auto vars:     Size  Location     Type
  3442 ;;  counter         1    4[COMRAM] unsigned char 
  3443 ;; Return value:  Size  Location     Type
  3444 ;;                  2    0[COMRAM] unsigned int 
  3445 ;; Registers used:
  3446 ;;		wreg, status,2, status,0
  3447 ;; Tracked objects:
  3448 ;;		On entry : 0/0
  3449 ;;		On exit  : 0/0
  3450 ;;		Unchanged: 0/0
  3451 ;; Data sizes:     COMRAM   BANK0   BANK1   BANK2   BANK3   BANK4   BANK5
  3452 ;;      Params:         4       0       0       0       0       0       0
  3453 ;;      Locals:         1       0       0       0       0       0       0
  3454 ;;      Temps:          0       0       0       0       0       0       0
  3455 ;;      Totals:         5       0       0       0       0       0       0
  3456 ;;Total ram usage:        5 bytes
  3457 ;; Hardware stack levels used: 1
  3458 ;; Hardware stack levels required when called: 2
  3459 ;; This function calls:
  3460 ;;		Nothing
  3461 ;; This function is called by:
  3462 ;;		_vfpfcnvrt
  3463 ;; This function uses a non-reentrant model
  3464 ;;
  3465                           
  3466                           	psect	text13
  3467   001368                     __ptext13:
  3468                           	callstack 0
  3469   001368                     ___lwmod:
  3470                           	callstack 24
  3471   001368  5003               	movf	___lwmod@divisor^0,w,c
  3472   00136A  1004               	iorwf	(___lwmod@divisor+1)^0,w,c
  3473   00136C  B4D8               	btfsc	status,2,c
  3474   00136E  EFBB  F009         	goto	u931
  3475   001372  EFBD  F009         	goto	u930
  3476   001376                     u931:
  3477   001376  EFE1  F009         	goto	l737
  3478   00137A                     u930:
  3479   00137A  0E01               	movlw	1
  3480   00137C  6E05               	movwf	___lwmod@counter^0,c
  3481   00137E  EFC5  F009         	goto	l1785
  3482   001382                     l1783:
  3483   001382  90D8               	bcf	status,0,c
  3484   001384  3603               	rlcf	___lwmod@divisor^0,f,c
  3485   001386  3604               	rlcf	(___lwmod@divisor+1)^0,f,c
  3486   001388  2A05               	incf	___lwmod@counter^0,f,c
  3487   00138A                     l1785:
  3488   00138A  AE04               	btfss	(___lwmod@divisor+1)^0,7,c
  3489   00138C  EFCA  F009         	goto	u941
  3490   001390  EFCC  F009         	goto	u940
  3491   001394                     u941:
  3492   001394  EFC1  F009         	goto	l1783
  3493   001398                     u940:
  3494   001398                     l1787:
  3495   001398  5003               	movf	___lwmod@divisor^0,w,c
  3496   00139A  5C01               	subwf	___lwmod@dividend^0,w,c
  3497   00139C  5004               	movf	(___lwmod@divisor+1)^0,w,c
  3498   00139E  5802               	subwfb	(___lwmod@dividend+1)^0,w,c
  3499   0013A0  A0D8               	btfss	status,0,c
  3500   0013A2  EFD5  F009         	goto	u951
  3501   0013A6  EFD7  F009         	goto	u950
  3502   0013AA                     u951:
  3503   0013AA  EFDB  F009         	goto	l1791
  3504   0013AE                     u950:
  3505   0013AE  5003               	movf	___lwmod@divisor^0,w,c
  3506   0013B0  5E01               	subwf	___lwmod@dividend^0,f,c
  3507   0013B2  5004               	movf	(___lwmod@divisor+1)^0,w,c
  3508   0013B4  5A02               	subwfb	(___lwmod@dividend+1)^0,f,c
  3509   0013B6                     l1791:
  3510   0013B6  90D8               	bcf	status,0,c
  3511   0013B8  3204               	rrcf	(___lwmod@divisor+1)^0,f,c
  3512   0013BA  3203               	rrcf	___lwmod@divisor^0,f,c
  3513   0013BC  2E05               	decfsz	___lwmod@counter^0,f,c
  3514   0013BE  EFCC  F009         	goto	l1787
  3515   0013C2                     l737:
  3516   0013C2  C001  F001         	movff	___lwmod@dividend,?___lwmod
  3517   0013C6  C002  F002         	movff	___lwmod@dividend+1,?___lwmod+1
  3518   0013CA  0012               	return		;funcret
  3519   0013CC                     __end_of___lwmod:
  3520                           	callstack 0
  3521                           
  3522 ;; *************** function ___lwdiv *****************
  3523 ;; Defined at:
  3524 ;;		line 7 in file "C:\Program Files\Microchip\xc8\v3.00\pic\sources\c99\common\lwdiv.c"
  3525 ;; Parameters:    Size  Location     Type
  3526 ;;  dividend        2    0[COMRAM] unsigned int 
  3527 ;;  divisor         2    2[COMRAM] unsigned int 
  3528 ;; Auto vars:     Size  Location     Type
  3529 ;;  quotient        2    4[COMRAM] unsigned int 
  3530 ;;  counter         1    6[COMRAM] unsigned char 
  3531 ;; Return value:  Size  Location     Type
  3532 ;;                  2    0[COMRAM] unsigned int 
  3533 ;; Registers used:
  3534 ;;		wreg, status,2, status,0
  3535 ;; Tracked objects:
  3536 ;;		On entry : 0/0
  3537 ;;		On exit  : 0/0
  3538 ;;		Unchanged: 0/0
  3539 ;; Data sizes:     COMRAM   BANK0   BANK1   BANK2   BANK3   BANK4   BANK5
  3540 ;;      Params:         4       0       0       0       0       0       0
  3541 ;;      Locals:         3       0       0       0       0       0       0
  3542 ;;      Temps:          0       0       0       0       0       0       0
  3543 ;;      Totals:         7       0       0       0       0       0       0
  3544 ;;Total ram usage:        7 bytes
  3545 ;; Hardware stack levels used: 1
  3546 ;; Hardware stack levels required when called: 2
  3547 ;; This function calls:
  3548 ;;		Nothing
  3549 ;; This function is called by:
  3550 ;;		_vfpfcnvrt
  3551 ;; This function uses a non-reentrant model
  3552 ;;
  3553                           
  3554                           	psect	text14
  3555   00121E                     __ptext14:
  3556                           	callstack 0
  3557   00121E                     ___lwdiv:
  3558                           	callstack 24
  3559   00121E  0E00               	movlw	0
  3560   001220  6E06               	movwf	(___lwdiv@quotient+1)^0,c
  3561   001222  0E00               	movlw	0
  3562   001224  6E05               	movwf	___lwdiv@quotient^0,c
  3563   001226  5003               	movf	___lwdiv@divisor^0,w,c
  3564   001228  1004               	iorwf	(___lwdiv@divisor+1)^0,w,c
  3565   00122A  B4D8               	btfsc	status,2,c
  3566   00122C  EF1A  F009         	goto	u901
  3567   001230  EF1C  F009         	goto	u900
  3568   001234                     u901:
  3569   001234  EF44  F009         	goto	l727
  3570   001238                     u900:
  3571   001238  0E01               	movlw	1
  3572   00123A  6E07               	movwf	___lwdiv@counter^0,c
  3573   00123C  EF24  F009         	goto	l1765
  3574   001240                     l1763:
  3575   001240  90D8               	bcf	status,0,c
  3576   001242  3603               	rlcf	___lwdiv@divisor^0,f,c
  3577   001244  3604               	rlcf	(___lwdiv@divisor+1)^0,f,c
  3578   001246  2A07               	incf	___lwdiv@counter^0,f,c
  3579   001248                     l1765:
  3580   001248  AE04               	btfss	(___lwdiv@divisor+1)^0,7,c
  3581   00124A  EF29  F009         	goto	u911
  3582   00124E  EF2B  F009         	goto	u910
  3583   001252                     u911:
  3584   001252  EF20  F009         	goto	l1763
  3585   001256                     u910:
  3586   001256                     l1767:
  3587   001256  90D8               	bcf	status,0,c
  3588   001258  3605               	rlcf	___lwdiv@quotient^0,f,c
  3589   00125A  3606               	rlcf	(___lwdiv@quotient+1)^0,f,c
  3590   00125C  5003               	movf	___lwdiv@divisor^0,w,c
  3591   00125E  5C01               	subwf	___lwdiv@dividend^0,w,c
  3592   001260  5004               	movf	(___lwdiv@divisor+1)^0,w,c
  3593   001262  5802               	subwfb	(___lwdiv@dividend+1)^0,w,c
  3594   001264  A0D8               	btfss	status,0,c
  3595   001266  EF37  F009         	goto	u921
  3596   00126A  EF39  F009         	goto	u920
  3597   00126E                     u921:
  3598   00126E  EF3E  F009         	goto	l1775
  3599   001272                     u920:
  3600   001272  5003               	movf	___lwdiv@divisor^0,w,c
  3601   001274  5E01               	subwf	___lwdiv@dividend^0,f,c
  3602   001276  5004               	movf	(___lwdiv@divisor+1)^0,w,c
  3603   001278  5A02               	subwfb	(___lwdiv@dividend+1)^0,f,c
  3604   00127A  8005               	bsf	___lwdiv@quotient^0,0,c
  3605   00127C                     l1775:
  3606   00127C  90D8               	bcf	status,0,c
  3607   00127E  3204               	rrcf	(___lwdiv@divisor+1)^0,f,c
  3608   001280  3203               	rrcf	___lwdiv@divisor^0,f,c
  3609   001282  2E07               	decfsz	___lwdiv@counter^0,f,c
  3610   001284  EF2B  F009         	goto	l1767
  3611   001288                     l727:
  3612   001288  C005  F001         	movff	___lwdiv@quotient,?___lwdiv
  3613   00128C  C006  F002         	movff	___lwdiv@quotient+1,?___lwdiv+1
  3614   001290  0012               	return		;funcret
  3615   001292                     __end_of___lwdiv:
  3616                           	callstack 0
  3617                           
  3618 ;; *************** function _SendString *****************
  3619 ;; Defined at:
  3620 ;;		line 59 in file "./EUSART.h"
  3621 ;; Parameters:    Size  Location     Type
  3622 ;;  str             1    1[COMRAM] PTR unsigned char 
  3623 ;;		 -> UpdateScreen@a(7), 
  3624 ;; Auto vars:     Size  Location     Type
  3625 ;;		None
  3626 ;; Return value:  Size  Location     Type
  3627 ;;                  1    wreg      void 
  3628 ;; Registers used:
  3629 ;;		wreg, fsr2l, fsr2h, status,2, status,0, cstack
  3630 ;; Tracked objects:
  3631 ;;		On entry : 0/0
  3632 ;;		On exit  : 0/0
  3633 ;;		Unchanged: 0/0
  3634 ;; Data sizes:     COMRAM   BANK0   BANK1   BANK2   BANK3   BANK4   BANK5
  3635 ;;      Params:         1       0       0       0       0       0       0
  3636 ;;      Locals:         0       0       0       0       0       0       0
  3637 ;;      Temps:          0       0       0       0       0       0       0
  3638 ;;      Totals:         1       0       0       0       0       0       0
  3639 ;;Total ram usage:        1 bytes
  3640 ;; Hardware stack levels used: 1
  3641 ;; Hardware stack levels required when called: 3
  3642 ;; This function calls:
  3643 ;;		_SendByte
  3644 ;; This function is called by:
  3645 ;;		_UpdateScreen
  3646 ;; This function uses a non-reentrant model
  3647 ;;
  3648                           
  3649                           	psect	text15
  3650   00154E                     __ptext15:
  3651                           	callstack 0
  3652   00154E                     _SendString:
  3653                           	callstack 26
  3654   00154E                     
  3655                           ;./EUSART.h: 60:     while (*str != '\0') {
  3656   00154E  EFB0  F00A         	goto	l1947
  3657   001552                     l1943:
  3658                           
  3659                           ;./EUSART.h: 61:         SendByte(*str++);
  3660   001552  5002               	movf	SendString@str^0,w,c
  3661   001554  6ED9               	movwf	fsr2l,c
  3662   001556  6ADA               	clrf	fsr2h,c
  3663   001558  50DF               	movf	indf2,w,c
  3664   00155A  EC0E  F00B         	call	_SendByte
  3665   00155E  2A02               	incf	SendString@str^0,f,c
  3666   001560                     l1947:
  3667                           
  3668                           ;./EUSART.h: 60:     while (*str != '\0') {
  3669   001560  5002               	movf	SendString@str^0,w,c
  3670   001562  6ED9               	movwf	fsr2l,c
  3671   001564  6ADA               	clrf	fsr2h,c
  3672   001566  50DF               	movf	indf2,w,c
  3673   001568  A4D8               	btfss	status,2,c
  3674   00156A  EFB9  F00A         	goto	u1151
  3675   00156E  EFBB  F00A         	goto	u1150
  3676   001572                     u1151:
  3677   001572  EFA9  F00A         	goto	l1943
  3678   001576                     u1150:
  3679   001576  0012               	return		;funcret
  3680   001578                     __end_of_SendString:
  3681                           	callstack 0
  3682                           
  3683 ;; *************** function _SendByte *****************
  3684 ;; Defined at:
  3685 ;;		line 53 in file "./EUSART.h"
  3686 ;; Parameters:    Size  Location     Type
  3687 ;;  ch              1    wreg     unsigned char 
  3688 ;; Auto vars:     Size  Location     Type
  3689 ;;  ch              1    0[COMRAM] unsigned char 
  3690 ;; Return value:  Size  Location     Type
  3691 ;;                  1    wreg      void 
  3692 ;; Registers used:
  3693 ;;		wreg
  3694 ;; Tracked objects:
  3695 ;;		On entry : 0/0
  3696 ;;		On exit  : 0/0
  3697 ;;		Unchanged: 0/0
  3698 ;; Data sizes:     COMRAM   BANK0   BANK1   BANK2   BANK3   BANK4   BANK5
  3699 ;;      Params:         0       0       0       0       0       0       0
  3700 ;;      Locals:         1       0       0       0       0       0       0
  3701 ;;      Temps:          0       0       0       0       0       0       0
  3702 ;;      Totals:         1       0       0       0       0       0       0
  3703 ;;Total ram usage:        1 bytes
  3704 ;; Hardware stack levels used: 1
  3705 ;; Hardware stack levels required when called: 2
  3706 ;; This function calls:
  3707 ;;		Nothing
  3708 ;; This function is called by:
  3709 ;;		_SendString
  3710 ;;		_main
  3711 ;; This function uses a non-reentrant model
  3712 ;;
  3713                           
  3714                           	psect	text16
  3715   00161C                     __ptext16:
  3716                           	callstack 0
  3717   00161C                     _SendByte:
  3718                           	callstack 26
  3719                           
  3720                           ;incstack = 0
  3721                           ;SendByte@ch stored from wreg
  3722   00161C  6E01               	movwf	SendByte@ch^0,c
  3723   00161E                     l155:
  3724   00161E  A89E               	btfss	3998,4,c	;volatile
  3725   001620  EF14  F00B         	goto	u221
  3726   001624  EF16  F00B         	goto	u220
  3727   001628                     u221:
  3728   001628  EF0F  F00B         	goto	l155
  3729   00162C                     u220:
  3730   00162C                     
  3731                           ;./EUSART.h: 56:     TXREG = ch;
  3732   00162C  C001  FFAD         	movff	SendByte@ch,4013	;volatile
  3733   001630  0012               	return		;funcret
  3734   001632                     __end_of_SendByte:
  3735                           	callstack 0
  3736                           
  3737 ;; *************** function _SSD1306_String *****************
  3738 ;; Defined at:
  3739 ;;		line 108 in file "./SSD1306.h"
  3740 ;; Parameters:    Size  Location     Type
  3741 ;;  data            1    9[COMRAM] PTR const unsigned char 
  3742 ;;		 -> UpdateScreen@a(7), 
  3743 ;; Auto vars:     Size  Location     Type
  3744 ;;  i               2   22[COMRAM] int 
  3745 ;;  a               2   20[COMRAM] int 
  3746 ;;  pixData         5   15[COMRAM] unsigned char [5]
  3747 ;; Return value:  Size  Location     Type
  3748 ;;                  1    wreg      void 
  3749 ;; Registers used:
  3750 ;;		wreg, fsr2l, fsr2h, status,2, status,0, tblptrl, tblptrh, tblptru, prodl, prodh, cstack
  3751 ;; Tracked objects:
  3752 ;;		On entry : 0/0
  3753 ;;		On exit  : 0/0
  3754 ;;		Unchanged: 0/0
  3755 ;; Data sizes:     COMRAM   BANK0   BANK1   BANK2   BANK3   BANK4   BANK5
  3756 ;;      Params:         1       0       0       0       0       0       0
  3757 ;;      Locals:         9       0       0       0       0       0       0
  3758 ;;      Temps:          5       0       0       0       0       0       0
  3759 ;;      Totals:        15       0       0       0       0       0       0
  3760 ;;Total ram usage:       15 bytes
  3761 ;; Hardware stack levels used: 1
  3762 ;; Hardware stack levels required when called: 4
  3763 ;; This function calls:
  3764 ;;		_I2C_Start
  3765 ;;		_I2C_Stop
  3766 ;;		_I2C_Write
  3767 ;;		_memcpy
  3768 ;; This function is called by:
  3769 ;;		_UpdateScreen
  3770 ;; This function uses a non-reentrant model
  3771 ;;
  3772                           
  3773                           	psect	text17
  3774   000DC8                     __ptext17:
  3775                           	callstack 0
  3776   000DC8                     _SSD1306_String:
  3777                           	callstack 25
  3778   000DC8                     
  3779                           ;./SSD1306.h: 110:     unsigned char pixData[5];;./SSD1306.h: 112:     for (int a=0; dat
      +                          a[a]!='\0'; a++){
  3780   000DC8  0E00               	movlw	0
  3781   000DCA  6E16               	movwf	(SSD1306_String@a+1)^0,c
  3782   000DCC  0E00               	movlw	0
  3783   000DCE  6E15               	movwf	SSD1306_String@a^0,c
  3784   000DD0  EF4B  F007         	goto	l1939
  3785   000DD4                     l1911:
  3786                           
  3787                           ;./SSD1306.h: 113:         if (data[a] <= '~'){
  3788   000DD4  500A               	movf	SSD1306_String@data^0,w,c
  3789   000DD6  2415               	addwf	SSD1306_String@a^0,w,c
  3790   000DD8  6ED9               	movwf	fsr2l,c
  3791   000DDA  6ADA               	clrf	fsr2h,c
  3792   000DDC  0E7F               	movlw	127
  3793   000DDE  60DF               	cpfslt	indf2,c
  3794   000DE0  EFF4  F006         	goto	u1121
  3795   000DE4  EFF6  F006         	goto	u1120
  3796   000DE8                     u1121:
  3797   000DE8  EF18  F007         	goto	l1915
  3798   000DEC                     u1120:
  3799   000DEC                     
  3800                           ;./SSD1306.h: 114:             memcpy(pixData, TEXT5x8[data[a]-' '], 5);
  3801   000DEC  0E10               	movlw	low SSD1306_String@pixData
  3802   000DEE  6E01               	movwf	memcpy@d1^0,c
  3803   000DF0  500A               	movf	SSD1306_String@data^0,w,c
  3804   000DF2  2415               	addwf	SSD1306_String@a^0,w,c
  3805   000DF4  6ED9               	movwf	fsr2l,c
  3806   000DF6  6ADA               	clrf	fsr2h,c
  3807   000DF8  50DF               	movf	indf2,w,c
  3808   000DFA  6E0B               	movwf	??_SSD1306_String^0,c
  3809   000DFC  500B               	movf	??_SSD1306_String^0,w,c
  3810   000DFE  0D05               	mullw	5
  3811   000E00  CFF3 F00C          	movff	prodl,??_SSD1306_String+1
  3812   000E04  CFF4 F00D          	movff	prodh,??_SSD1306_String+2
  3813   000E08  0E60               	movlw	96
  3814   000E0A  240C               	addwf	(??_SSD1306_String+1)^0,w,c
  3815   000E0C  6E0E               	movwf	(??_SSD1306_String+3)^0,c
  3816   000E0E  0EFF               	movlw	255
  3817   000E10  200D               	addwfc	(??_SSD1306_String+2)^0,w,c
  3818   000E12  6E0F               	movwf	(??_SSD1306_String+4)^0,c
  3819   000E14  0E17               	movlw	low _TEXT5x8
  3820   000E16  240E               	addwf	(??_SSD1306_String+3)^0,w,c
  3821   000E18  6E02               	movwf	memcpy@s1^0,c
  3822   000E1A  0E7E               	movlw	high _TEXT5x8
  3823   000E1C  200F               	addwfc	(??_SSD1306_String+4)^0,w,c
  3824   000E1E  6E03               	movwf	(memcpy@s1+1)^0,c
  3825   000E20  0E00               	movlw	0
  3826   000E22  6E05               	movwf	(memcpy@n+1)^0,c
  3827   000E24  0E05               	movlw	5
  3828   000E26  6E04               	movwf	memcpy@n^0,c
  3829   000E28  EC0F  F00A         	call	_memcpy	;wreg free
  3830                           
  3831                           ;./SSD1306.h: 115:         }else{
  3832   000E2C  EF24  F007         	goto	l1917
  3833   000E30                     l1915:
  3834                           
  3835                           ;./SSD1306.h: 116:             memcpy(pixData, TEXT5x8[95], 5);
  3836   000E30  0E10               	movlw	low SSD1306_String@pixData
  3837   000E32  6E01               	movwf	memcpy@d1^0,c
  3838   000E34  0EF2               	movlw	low (_TEXT5x8+475)
  3839   000E36  6E02               	movwf	memcpy@s1^0,c
  3840   000E38  0E7F               	movlw	high (_TEXT5x8+475)
  3841   000E3A  6E03               	movwf	(memcpy@s1+1)^0,c
  3842   000E3C  0E00               	movlw	0
  3843   000E3E  6E05               	movwf	(memcpy@n+1)^0,c
  3844   000E40  0E05               	movlw	5
  3845   000E42  6E04               	movwf	memcpy@n^0,c
  3846   000E44  EC0F  F00A         	call	_memcpy	;wreg free
  3847   000E48                     l1917:
  3848                           
  3849                           ;./SSD1306.h: 119:         I2C_Start();
  3850   000E48  EC24  F00B         	call	_I2C_Start	;wreg free
  3851   000E4C                     
  3852                           ;./SSD1306.h: 120:         I2C_Write(0x78);
  3853   000E4C  0E78               	movlw	120
  3854   000E4E  EC00  F00B         	call	_I2C_Write
  3855   000E52                     
  3856                           ;./SSD1306.h: 121:         I2C_Write(0x40);
  3857   000E52  0E40               	movlw	64
  3858   000E54  EC00  F00B         	call	_I2C_Write
  3859   000E58                     
  3860                           ;./SSD1306.h: 122:         for (int i=0; i<5; i++){
  3861   000E58  0E00               	movlw	0
  3862   000E5A  6E18               	movwf	(SSD1306_String@i+1)^0,c
  3863   000E5C  0E00               	movlw	0
  3864   000E5E  6E17               	movwf	SSD1306_String@i^0,c
  3865   000E60                     l1929:
  3866                           
  3867                           ;./SSD1306.h: 123:             I2C_Write(pixData[i]);
  3868   000E60  5017               	movf	SSD1306_String@i^0,w,c
  3869   000E62  0F10               	addlw	low SSD1306_String@pixData
  3870   000E64  6ED9               	movwf	fsr2l,c
  3871   000E66  6ADA               	clrf	fsr2h,c
  3872   000E68  50DF               	movf	indf2,w,c
  3873   000E6A  EC00  F00B         	call	_I2C_Write
  3874   000E6E                     
  3875                           ;./SSD1306.h: 124:         }
  3876   000E6E  4A17               	infsnz	SSD1306_String@i^0,f,c
  3877   000E70  2A18               	incf	(SSD1306_String@i+1)^0,f,c
  3878   000E72  BE18               	btfsc	(SSD1306_String@i+1)^0,7,c
  3879   000E74  EF45  F007         	goto	u1131
  3880   000E78  5018               	movf	(SSD1306_String@i+1)^0,w,c
  3881   000E7A  E109               	bnz	u1130
  3882   000E7C  0E05               	movlw	5
  3883   000E7E  5C17               	subwf	SSD1306_String@i^0,w,c
  3884   000E80  A0D8               	btfss	status,0,c
  3885   000E82  EF45  F007         	goto	u1131
  3886   000E86  EF47  F007         	goto	u1130
  3887   000E8A                     u1131:
  3888   000E8A  EF30  F007         	goto	l1929
  3889   000E8E                     u1130:
  3890   000E8E                     
  3891                           ;./SSD1306.h: 125:         I2C_Stop();
  3892   000E8E  EC19  F00B         	call	_I2C_Stop	;wreg free
  3893   000E92                     
  3894                           ;./SSD1306.h: 126:     }
  3895   000E92  4A15               	infsnz	SSD1306_String@a^0,f,c
  3896   000E94  2A16               	incf	(SSD1306_String@a+1)^0,f,c
  3897   000E96                     l1939:
  3898   000E96  500A               	movf	SSD1306_String@data^0,w,c
  3899   000E98  2415               	addwf	SSD1306_String@a^0,w,c
  3900   000E9A  6ED9               	movwf	fsr2l,c
  3901   000E9C  6ADA               	clrf	fsr2h,c
  3902   000E9E  50DF               	movf	indf2,w,c
  3903   000EA0  A4D8               	btfss	status,2,c
  3904   000EA2  EF55  F007         	goto	u1141
  3905   000EA6  EF57  F007         	goto	u1140
  3906   000EAA                     u1141:
  3907   000EAA  EFEA  F006         	goto	l1911
  3908   000EAE                     u1140:
  3909   000EAE  0012               	return		;funcret
  3910   000EB0                     __end_of_SSD1306_String:
  3911                           	callstack 0
  3912                           
  3913 ;; *************** function _memcpy *****************
  3914 ;; Defined at:
  3915 ;;		line 4 in file "C:\Program Files\Microchip\xc8\v3.00\pic\sources\c99\common\memcpy.c"
  3916 ;; Parameters:    Size  Location     Type
  3917 ;;  d1              1    0[COMRAM] PTR void 
  3918 ;;		 -> SSD1306_String@pixData(5), 
  3919 ;;  s1              2    1[COMRAM] PTR const void 
  3920 ;;		 -> TEXT5x8(480), 
  3921 ;;  n               2    3[COMRAM] unsigned int 
  3922 ;; Auto vars:     Size  Location     Type
  3923 ;;  s               2    5[COMRAM] PTR const unsigned char 
  3924 ;;		 -> TEXT5x8(480), 
  3925 ;;  d               1    8[COMRAM] PTR unsigned char 
  3926 ;;		 -> SSD1306_String@pixData(5), 
  3927 ;;  tmp             1    7[COMRAM] unsigned char 
  3928 ;; Return value:  Size  Location     Type
  3929 ;;                  1    0[COMRAM] PTR void 
  3930 ;; Registers used:
  3931 ;;		wreg, fsr2l, fsr2h, status,2, status,0, tblptrl, tblptrh, tblptru
  3932 ;; Tracked objects:
  3933 ;;		On entry : 0/0
  3934 ;;		On exit  : 0/0
  3935 ;;		Unchanged: 0/0
  3936 ;; Data sizes:     COMRAM   BANK0   BANK1   BANK2   BANK3   BANK4   BANK5
  3937 ;;      Params:         5       0       0       0       0       0       0
  3938 ;;      Locals:         4       0       0       0       0       0       0
  3939 ;;      Temps:          0       0       0       0       0       0       0
  3940 ;;      Totals:         9       0       0       0       0       0       0
  3941 ;;Total ram usage:        9 bytes
  3942 ;; Hardware stack levels used: 1
  3943 ;; Hardware stack levels required when called: 2
  3944 ;; This function calls:
  3945 ;;		Nothing
  3946 ;; This function is called by:
  3947 ;;		_SSD1306_String
  3948 ;; This function uses a non-reentrant model
  3949 ;;
  3950                           
  3951                           	psect	text18
  3952   00141E                     __ptext18:
  3953                           	callstack 0
  3954   00141E                     _memcpy:
  3955                           	callstack 26
  3956   00141E  C002  F006         	movff	memcpy@s1,memcpy@s
  3957   001422  C003  F007         	movff	memcpy@s1+1,memcpy@s+1
  3958   001426  C001  F009         	movff	memcpy@d1,memcpy@d
  3959   00142A  EF26  F00A         	goto	l1865
  3960   00142E                     l1857:
  3961   00142E  C006  FFF6         	movff	memcpy@s,tblptrl
  3962   001432  C007  FFF7         	movff	memcpy@s+1,tblptrh
  3963   001436                     	if	0	;tblptru may be non-zero
  3964   001436                     	endif
  3965   001436                     	if	0	;tblptru may be non-zero
  3966   001436                     	endif
  3967   001436  0008               	tblrd		*
  3968   001438  CFF5 F008          	movff	tablat,memcpy@tmp
  3969   00143C  4A06               	infsnz	memcpy@s^0,f,c
  3970   00143E  2A07               	incf	(memcpy@s+1)^0,f,c
  3971   001440  5009               	movf	memcpy@d^0,w,c
  3972   001442  6ED9               	movwf	fsr2l,c
  3973   001444  6ADA               	clrf	fsr2h,c
  3974   001446  C008  FFDF         	movff	memcpy@tmp,indf2
  3975   00144A  2A09               	incf	memcpy@d^0,f,c
  3976   00144C                     l1865:
  3977   00144C  0604               	decf	memcpy@n^0,f,c
  3978   00144E  A0D8               	btfss	status,0,c
  3979   001450  0605               	decf	(memcpy@n+1)^0,f,c
  3980   001452  2804               	incf	memcpy@n^0,w,c
  3981   001454  E106               	bnz	u1051
  3982   001456  2805               	incf	(memcpy@n+1)^0,w,c
  3983   001458  A4D8               	btfss	status,2,c
  3984   00145A  EF31  F00A         	goto	u1051
  3985   00145E  EF33  F00A         	goto	u1050
  3986   001462                     u1051:
  3987   001462  EF17  F00A         	goto	l1857
  3988   001466                     u1050:
  3989   001466  0012               	return		;funcret
  3990   001468                     __end_of_memcpy:
  3991                           	callstack 0
  3992                           
  3993 ;; *************** function _SSD1306_GotoStart *****************
  3994 ;; Defined at:
  3995 ;;		line 95 in file "./SSD1306.h"
  3996 ;; Parameters:    Size  Location     Type
  3997 ;;		None
  3998 ;; Auto vars:     Size  Location     Type
  3999 ;;		None
  4000 ;; Return value:  Size  Location     Type
  4001 ;;                  1    wreg      void 
  4002 ;; Registers used:
  4003 ;;		wreg, status,2, status,0, cstack
  4004 ;; Tracked objects:
  4005 ;;		On entry : 0/0
  4006 ;;		On exit  : 0/0
  4007 ;;		Unchanged: 0/0
  4008 ;; Data sizes:     COMRAM   BANK0   BANK1   BANK2   BANK3   BANK4   BANK5
  4009 ;;      Params:         0       0       0       0       0       0       0
  4010 ;;      Locals:         0       0       0       0       0       0       0
  4011 ;;      Temps:          0       0       0       0       0       0       0
  4012 ;;      Totals:         0       0       0       0       0       0       0
  4013 ;;Total ram usage:        0 bytes
  4014 ;; Hardware stack levels used: 1
  4015 ;; Hardware stack levels required when called: 4
  4016 ;; This function calls:
  4017 ;;		_I2C_Start
  4018 ;;		_I2C_Stop
  4019 ;;		_I2C_Write
  4020 ;; This function is called by:
  4021 ;;		_UpdateScreen
  4022 ;; This function uses a non-reentrant model
  4023 ;;
  4024                           
  4025                           	psect	text19
  4026   0014AA                     __ptext19:
  4027                           	callstack 0
  4028   0014AA                     _SSD1306_GotoStart:
  4029                           	callstack 25
  4030   0014AA                     
  4031                           ;./SSD1306.h: 96:     I2C_Start();
  4032   0014AA  EC24  F00B         	call	_I2C_Start	;wreg free
  4033                           
  4034                           ;./SSD1306.h: 97:  I2C_Write(0x78);
  4035   0014AE  0E78               	movlw	120
  4036   0014B0  EC00  F00B         	call	_I2C_Write
  4037                           
  4038                           ;./SSD1306.h: 98:  I2C_Write(0x00);
  4039   0014B4  0E00               	movlw	0
  4040   0014B6  EC00  F00B         	call	_I2C_Write
  4041                           
  4042                           ;./SSD1306.h: 99:  I2C_Write(0x21);
  4043   0014BA  0E21               	movlw	33
  4044   0014BC  EC00  F00B         	call	_I2C_Write
  4045                           
  4046                           ;./SSD1306.h: 100:  I2C_Write(0);
  4047   0014C0  0E00               	movlw	0
  4048   0014C2  EC00  F00B         	call	_I2C_Write
  4049                           
  4050                           ;./SSD1306.h: 101:  I2C_Write(127);
  4051   0014C6  0E7F               	movlw	127
  4052   0014C8  EC00  F00B         	call	_I2C_Write
  4053                           
  4054                           ;./SSD1306.h: 102:  I2C_Write(0x22);
  4055   0014CC  0E22               	movlw	34
  4056   0014CE  EC00  F00B         	call	_I2C_Write
  4057                           
  4058                           ;./SSD1306.h: 103:  I2C_Write(0);
  4059   0014D2  0E00               	movlw	0
  4060   0014D4  EC00  F00B         	call	_I2C_Write
  4061                           
  4062                           ;./SSD1306.h: 104:  I2C_Write(7);
  4063   0014D8  0E07               	movlw	7
  4064   0014DA  EC00  F00B         	call	_I2C_Write
  4065                           
  4066                           ;./SSD1306.h: 105:  I2C_Stop();
  4067   0014DE  EC19  F00B         	call	_I2C_Stop	;wreg free
  4068   0014E2  0012               	return		;funcret
  4069   0014E4                     __end_of_SSD1306_GotoStart:
  4070                           	callstack 0
  4071                           
  4072 ;; *************** function _SSD1306_ClearScreen *****************
  4073 ;; Defined at:
  4074 ;;		line 129 in file "./SSD1306.h"
  4075 ;; Parameters:    Size  Location     Type
  4076 ;;		None
  4077 ;; Auto vars:     Size  Location     Type
  4078 ;;  j               2    4[COMRAM] int 
  4079 ;;  i               2    2[COMRAM] int 
  4080 ;; Return value:  Size  Location     Type
  4081 ;;                  1    wreg      void 
  4082 ;; Registers used:
  4083 ;;		wreg, status,2, status,0, cstack
  4084 ;; Tracked objects:
  4085 ;;		On entry : 0/0
  4086 ;;		On exit  : 0/0
  4087 ;;		Unchanged: 0/0
  4088 ;; Data sizes:     COMRAM   BANK0   BANK1   BANK2   BANK3   BANK4   BANK5
  4089 ;;      Params:         0       0       0       0       0       0       0
  4090 ;;      Locals:         4       0       0       0       0       0       0
  4091 ;;      Temps:          0       0       0       0       0       0       0
  4092 ;;      Totals:         4       0       0       0       0       0       0
  4093 ;;Total ram usage:        4 bytes
  4094 ;; Hardware stack levels used: 1
  4095 ;; Hardware stack levels required when called: 4
  4096 ;; This function calls:
  4097 ;;		_I2C_Start
  4098 ;;		_I2C_Stop
  4099 ;;		_I2C_Write
  4100 ;; This function is called by:
  4101 ;;		_UpdateScreen
  4102 ;;		_main
  4103 ;; This function uses a non-reentrant model
  4104 ;;
  4105                           
  4106                           	psect	text20
  4107   001292                     __ptext20:
  4108                           	callstack 0
  4109   001292                     _SSD1306_ClearScreen:
  4110                           	callstack 25
  4111   001292                     
  4112                           ;./SSD1306.h: 130:     I2C_Start();
  4113   001292  EC24  F00B         	call	_I2C_Start	;wreg free
  4114                           
  4115                           ;./SSD1306.h: 131:  I2C_Write(0x78);
  4116   001296  0E78               	movlw	120
  4117   001298  EC00  F00B         	call	_I2C_Write
  4118                           
  4119                           ;./SSD1306.h: 132:  I2C_Write(0x40);
  4120   00129C  0E40               	movlw	64
  4121   00129E  EC00  F00B         	call	_I2C_Write
  4122   0012A2                     
  4123                           ;./SSD1306.h: 133:  for (int i=0; i<8; i++) {
  4124   0012A2  0E00               	movlw	0
  4125   0012A4  6E04               	movwf	(SSD1306_ClearScreen@i+1)^0,c
  4126   0012A6  0E00               	movlw	0
  4127   0012A8  6E03               	movwf	SSD1306_ClearScreen@i^0,c
  4128   0012AA                     l1207:
  4129                           
  4130                           ;./SSD1306.h: 134:   for (int j=0; j<128; j++) {
  4131   0012AA  0E00               	movlw	0
  4132   0012AC  6E06               	movwf	(SSD1306_ClearScreen@j+1)^0,c
  4133   0012AE  0E00               	movlw	0
  4134   0012B0  6E05               	movwf	SSD1306_ClearScreen@j^0,c
  4135   0012B2                     l1213:
  4136                           
  4137                           ;./SSD1306.h: 135:    I2C_Write(0x00);
  4138   0012B2  0E00               	movlw	0
  4139   0012B4  EC00  F00B         	call	_I2C_Write
  4140   0012B8                     
  4141                           ;./SSD1306.h: 136:   }
  4142   0012B8  4A05               	infsnz	SSD1306_ClearScreen@j^0,f,c
  4143   0012BA  2A06               	incf	(SSD1306_ClearScreen@j+1)^0,f,c
  4144   0012BC  BE06               	btfsc	(SSD1306_ClearScreen@j+1)^0,7,c
  4145   0012BE  EF6A  F009         	goto	u321
  4146   0012C2  5006               	movf	(SSD1306_ClearScreen@j+1)^0,w,c
  4147   0012C4  E109               	bnz	u320
  4148   0012C6  0E80               	movlw	128
  4149   0012C8  5C05               	subwf	SSD1306_ClearScreen@j^0,w,c
  4150   0012CA  A0D8               	btfss	status,0,c
  4151   0012CC  EF6A  F009         	goto	u321
  4152   0012D0  EF6C  F009         	goto	u320
  4153   0012D4                     u321:
  4154   0012D4  EF59  F009         	goto	l1213
  4155   0012D8                     u320:
  4156   0012D8                     
  4157                           ;./SSD1306.h: 137:  }
  4158   0012D8  4A03               	infsnz	SSD1306_ClearScreen@i^0,f,c
  4159   0012DA  2A04               	incf	(SSD1306_ClearScreen@i+1)^0,f,c
  4160   0012DC  BE04               	btfsc	(SSD1306_ClearScreen@i+1)^0,7,c
  4161   0012DE  EF7A  F009         	goto	u331
  4162   0012E2  5004               	movf	(SSD1306_ClearScreen@i+1)^0,w,c
  4163   0012E4  E109               	bnz	u330
  4164   0012E6  0E08               	movlw	8
  4165   0012E8  5C03               	subwf	SSD1306_ClearScreen@i^0,w,c
  4166   0012EA  A0D8               	btfss	status,0,c
  4167   0012EC  EF7A  F009         	goto	u331
  4168   0012F0  EF7C  F009         	goto	u330
  4169   0012F4                     u331:
  4170   0012F4  EF55  F009         	goto	l1207
  4171   0012F8                     u330:
  4172   0012F8                     
  4173                           ;./SSD1306.h: 138:     I2C_Stop();
  4174   0012F8  EC19  F00B         	call	_I2C_Stop	;wreg free
  4175   0012FC  0012               	return		;funcret
  4176   0012FE                     __end_of_SSD1306_ClearScreen:
  4177                           	callstack 0
  4178                           
  4179 ;; *************** function _USART_Init *****************
  4180 ;; Defined at:
  4181 ;;		line 22 in file "./EUSART.h"
  4182 ;; Parameters:    Size  Location     Type
  4183 ;;		None
  4184 ;; Auto vars:     Size  Location     Type
  4185 ;;		None
  4186 ;; Return value:  Size  Location     Type
  4187 ;;                  1    wreg      void 
  4188 ;; Registers used:
  4189 ;;		wreg, status,2
  4190 ;; Tracked objects:
  4191 ;;		On entry : 0/0
  4192 ;;		On exit  : 0/0
  4193 ;;		Unchanged: 0/0
  4194 ;; Data sizes:     COMRAM   BANK0   BANK1   BANK2   BANK3   BANK4   BANK5
  4195 ;;      Params:         0       0       0       0       0       0       0
  4196 ;;      Locals:         0       0       0       0       0       0       0
  4197 ;;      Temps:          0       0       0       0       0       0       0
  4198 ;;      Totals:         0       0       0       0       0       0       0
  4199 ;;Total ram usage:        0 bytes
  4200 ;; Hardware stack levels used: 1
  4201 ;; Hardware stack levels required when called: 2
  4202 ;; This function calls:
  4203 ;;		Nothing
  4204 ;; This function is called by:
  4205 ;;		_main
  4206 ;; This function uses a non-reentrant model
  4207 ;;
  4208                           
  4209                           	psect	text21
  4210   0015C4                     __ptext21:
  4211                           	callstack 0
  4212   0015C4                     _USART_Init:
  4213                           	callstack 28
  4214   0015C4                     
  4215                           ;./EUSART.h: 26:  SPBRG = 103;
  4216   0015C4  0E67               	movlw	103
  4217   0015C6  6EAF               	movwf	175,c	;volatile
  4218   0015C8                     
  4219                           ;./EUSART.h: 27:     SPBRGH = 0;
  4220   0015C8  6AB0               	clrf	176,c	;volatile
  4221   0015CA                     
  4222                           ;./EUSART.h: 28:     BRGH = 1;
  4223   0015CA  84AC               	bsf	4012,2,c	;volatile
  4224   0015CC                     
  4225                           ;./EUSART.h: 29:     BRG16 = 1;
  4226   0015CC  86B8               	bsf	4024,3,c	;volatile
  4227   0015CE                     
  4228                           ;./EUSART.h: 31:     SYNC = 0;
  4229   0015CE  98AC               	bcf	4012,4,c	;volatile
  4230   0015D0                     
  4231                           ;./EUSART.h: 32:     SPEN = 1;
  4232   0015D0  8EAB               	bsf	4011,7,c	;volatile
  4233   0015D2                     
  4234                           ;./EUSART.h: 35:     PIE1bits.RCIE = 1;
  4235   0015D2  8A9D               	bsf	157,5,c	;volatile
  4236   0015D4                     
  4237                           ;./EUSART.h: 36:     INTCONbits.PEIE = 1;
  4238   0015D4  8CF2               	bsf	242,6,c	;volatile
  4239   0015D6                     
  4240                           ;./EUSART.h: 37:     INTCONbits.GIE = 1;
  4241   0015D6  8EF2               	bsf	242,7,c	;volatile
  4242   0015D8                     
  4243                           ;./EUSART.h: 39:     RX9 = 0;
  4244   0015D8  9CAB               	bcf	4011,6,c	;volatile
  4245   0015DA                     
  4246                           ;./EUSART.h: 40:     CREN = 1;
  4247   0015DA  88AB               	bsf	4011,4,c	;volatile
  4248   0015DC                     
  4249                           ;./EUSART.h: 42:  TX9 = 0;
  4250   0015DC  9CAC               	bcf	4012,6,c	;volatile
  4251   0015DE                     
  4252                           ;./EUSART.h: 43:     TXEN = 1;
  4253   0015DE  8AAC               	bsf	4012,5,c	;volatile
  4254   0015E0  0012               	return		;funcret
  4255   0015E2                     __end_of_USART_Init:
  4256                           	callstack 0
  4257                           
  4258 ;; *************** function _SSD1306_Init *****************
  4259 ;; Defined at:
  4260 ;;		line 46 in file "./SSD1306.h"
  4261 ;; Parameters:    Size  Location     Type
  4262 ;;		None
  4263 ;; Auto vars:     Size  Location     Type
  4264 ;;		None
  4265 ;; Return value:  Size  Location     Type
  4266 ;;                  1    wreg      void 
  4267 ;; Registers used:
  4268 ;;		wreg, status,2, status,0, cstack
  4269 ;; Tracked objects:
  4270 ;;		On entry : 0/0
  4271 ;;		On exit  : 0/0
  4272 ;;		Unchanged: 0/0
  4273 ;; Data sizes:     COMRAM   BANK0   BANK1   BANK2   BANK3   BANK4   BANK5
  4274 ;;      Params:         0       0       0       0       0       0       0
  4275 ;;      Locals:         0       0       0       0       0       0       0
  4276 ;;      Temps:          2       0       0       0       0       0       0
  4277 ;;      Totals:         2       0       0       0       0       0       0
  4278 ;;Total ram usage:        2 bytes
  4279 ;; Hardware stack levels used: 1
  4280 ;; Hardware stack levels required when called: 5
  4281 ;; This function calls:
  4282 ;;		_I2C_Start
  4283 ;;		_I2C_Stop
  4284 ;;		_I2C_Write
  4285 ;;		_SSD1306_WriteCommand
  4286 ;; This function is called by:
  4287 ;;		_main
  4288 ;; This function uses a non-reentrant model
  4289 ;;
  4290                           
  4291                           	psect	text22
  4292   000CCE                     __ptext22:
  4293                           	callstack 0
  4294   000CCE                     _SSD1306_Init:
  4295                           	callstack 25
  4296   000CCE                     
  4297                           ;./SSD1306.h: 47:  I2C_Start();
  4298   000CCE  EC24  F00B         	call	_I2C_Start	;wreg free
  4299                           
  4300                           ;./SSD1306.h: 48:  I2C_Write(0x78);
  4301   000CD2  0E78               	movlw	120
  4302   000CD4  EC00  F00B         	call	_I2C_Write
  4303                           
  4304                           ;./SSD1306.h: 49:  I2C_Write(0x00);
  4305   000CD8  0E00               	movlw	0
  4306   000CDA  EC00  F00B         	call	_I2C_Write
  4307                           
  4308                           ;./SSD1306.h: 51:  SSD1306_WriteCommand(0xAE);
  4309   000CDE  0EAE               	movlw	174
  4310   000CE0  ECF1  F00A         	call	_SSD1306_WriteCommand
  4311                           
  4312                           ;./SSD1306.h: 52:  SSD1306_WriteCommand(0xD5);
  4313   000CE4  0ED5               	movlw	213
  4314   000CE6  ECF1  F00A         	call	_SSD1306_WriteCommand
  4315                           
  4316                           ;./SSD1306.h: 53:  SSD1306_WriteCommand(0x80);
  4317   000CEA  0E80               	movlw	128
  4318   000CEC  ECF1  F00A         	call	_SSD1306_WriteCommand
  4319                           
  4320                           ;./SSD1306.h: 54:  SSD1306_WriteCommand(0xA8);
  4321   000CF0  0EA8               	movlw	168
  4322   000CF2  ECF1  F00A         	call	_SSD1306_WriteCommand
  4323                           
  4324                           ;./SSD1306.h: 55:  SSD1306_WriteCommand(0x3F);
  4325   000CF6  0E3F               	movlw	63
  4326   000CF8  ECF1  F00A         	call	_SSD1306_WriteCommand
  4327                           
  4328                           ;./SSD1306.h: 56:  SSD1306_WriteCommand(0xD3);
  4329   000CFC  0ED3               	movlw	211
  4330   000CFE  ECF1  F00A         	call	_SSD1306_WriteCommand
  4331                           
  4332                           ;./SSD1306.h: 57:  SSD1306_WriteCommand(0x00);
  4333   000D02  0E00               	movlw	0
  4334   000D04  ECF1  F00A         	call	_SSD1306_WriteCommand
  4335                           
  4336                           ;./SSD1306.h: 58:  SSD1306_WriteCommand(0x40);
  4337   000D08  0E40               	movlw	64
  4338   000D0A  ECF1  F00A         	call	_SSD1306_WriteCommand
  4339                           
  4340                           ;./SSD1306.h: 59:  SSD1306_WriteCommand(0x8D);
  4341   000D0E  0E8D               	movlw	141
  4342   000D10  ECF1  F00A         	call	_SSD1306_WriteCommand
  4343                           
  4344                           ;./SSD1306.h: 60:  SSD1306_WriteCommand(0x14);
  4345   000D14  0E14               	movlw	20
  4346   000D16  ECF1  F00A         	call	_SSD1306_WriteCommand
  4347                           
  4348                           ;./SSD1306.h: 61:  SSD1306_WriteCommand(0x20);
  4349   000D1A  0E20               	movlw	32
  4350   000D1C  ECF1  F00A         	call	_SSD1306_WriteCommand
  4351                           
  4352                           ;./SSD1306.h: 62:  SSD1306_WriteCommand(0x00);
  4353   000D20  0E00               	movlw	0
  4354   000D22  ECF1  F00A         	call	_SSD1306_WriteCommand
  4355                           
  4356                           ;./SSD1306.h: 65:  SSD1306_WriteCommand(0xA1);
  4357   000D26  0EA1               	movlw	161
  4358   000D28  ECF1  F00A         	call	_SSD1306_WriteCommand
  4359                           
  4360                           ;./SSD1306.h: 66:  SSD1306_WriteCommand(0xC8);
  4361   000D2C  0EC8               	movlw	200
  4362   000D2E  ECF1  F00A         	call	_SSD1306_WriteCommand
  4363                           
  4364                           ;./SSD1306.h: 67:  SSD1306_WriteCommand(0xDA);
  4365   000D32  0EDA               	movlw	218
  4366   000D34  ECF1  F00A         	call	_SSD1306_WriteCommand
  4367                           
  4368                           ;./SSD1306.h: 68:  SSD1306_WriteCommand(0x12);
  4369   000D38  0E12               	movlw	18
  4370   000D3A  ECF1  F00A         	call	_SSD1306_WriteCommand
  4371                           
  4372                           ;./SSD1306.h: 70:  SSD1306_WriteCommand(0x81);
  4373   000D3E  0E81               	movlw	129
  4374   000D40  ECF1  F00A         	call	_SSD1306_WriteCommand
  4375                           
  4376                           ;./SSD1306.h: 71:  SSD1306_WriteCommand(0x7F);
  4377   000D44  0E7F               	movlw	127
  4378   000D46  ECF1  F00A         	call	_SSD1306_WriteCommand
  4379                           
  4380                           ;./SSD1306.h: 72:  SSD1306_WriteCommand(0xD9);
  4381   000D4A  0ED9               	movlw	217
  4382   000D4C  ECF1  F00A         	call	_SSD1306_WriteCommand
  4383                           
  4384                           ;./SSD1306.h: 73:  SSD1306_WriteCommand(0xF1);
  4385   000D50  0EF1               	movlw	241
  4386   000D52  ECF1  F00A         	call	_SSD1306_WriteCommand
  4387                           
  4388                           ;./SSD1306.h: 74:  SSD1306_WriteCommand(0xDB);
  4389   000D56  0EDB               	movlw	219
  4390   000D58  ECF1  F00A         	call	_SSD1306_WriteCommand
  4391                           
  4392                           ;./SSD1306.h: 75:  SSD1306_WriteCommand(0x40);
  4393   000D5C  0E40               	movlw	64
  4394   000D5E  ECF1  F00A         	call	_SSD1306_WriteCommand
  4395                           
  4396                           ;./SSD1306.h: 76:  SSD1306_WriteCommand(0xA4);
  4397   000D62  0EA4               	movlw	164
  4398   000D64  ECF1  F00A         	call	_SSD1306_WriteCommand
  4399                           
  4400                           ;./SSD1306.h: 77:  SSD1306_WriteCommand(0xA6);
  4401   000D68  0EA6               	movlw	166
  4402   000D6A  ECF1  F00A         	call	_SSD1306_WriteCommand
  4403                           
  4404                           ;./SSD1306.h: 78:  SSD1306_WriteCommand(0xAF);
  4405   000D6E  0EAF               	movlw	175
  4406   000D70  ECF1  F00A         	call	_SSD1306_WriteCommand
  4407                           
  4408                           ;./SSD1306.h: 80:  I2C_Stop();
  4409   000D74  EC19  F00B         	call	_I2C_Stop	;wreg free
  4410   000D78                     
  4411                           ;./SSD1306.h: 82:     _delay((unsigned long)((500)*(4000000/4000.0)));
  4412   000D78  0E03               	movlw	3
  4413   000D7A  6E05               	movwf	(??_SSD1306_Init+1)^0,c
  4414   000D7C  0E8A               	movlw	138
  4415   000D7E  6E04               	movwf	??_SSD1306_Init^0,c
  4416   000D80  0E56               	movlw	86
  4417   000D82                     u1897:
  4418   000D82  2EE8               	decfsz	wreg,f,c
  4419   000D84  D7FE               	bra	u1897
  4420   000D86  2E04               	decfsz	??_SSD1306_Init^0,f,c
  4421   000D88  D7FC               	bra	u1897
  4422   000D8A  2E05               	decfsz	(??_SSD1306_Init+1)^0,f,c
  4423   000D8C  D7FA               	bra	u1897
  4424   000D8E                     
  4425                           ;./SSD1306.h: 83:     I2C_Start();
  4426   000D8E  EC24  F00B         	call	_I2C_Start	;wreg free
  4427   000D92                     
  4428                           ;./SSD1306.h: 84:  I2C_Write(0x78);
  4429   000D92  0E78               	movlw	120
  4430   000D94  EC00  F00B         	call	_I2C_Write
  4431   000D98                     
  4432                           ;./SSD1306.h: 85:  I2C_Write(0x00);
  4433   000D98  0E00               	movlw	0
  4434   000D9A  EC00  F00B         	call	_I2C_Write
  4435   000D9E                     
  4436                           ;./SSD1306.h: 86:  I2C_Write(0x21);
  4437   000D9E  0E21               	movlw	33
  4438   000DA0  EC00  F00B         	call	_I2C_Write
  4439   000DA4                     
  4440                           ;./SSD1306.h: 87:  I2C_Write(0);
  4441   000DA4  0E00               	movlw	0
  4442   000DA6  EC00  F00B         	call	_I2C_Write
  4443   000DAA                     
  4444                           ;./SSD1306.h: 88:  I2C_Write(127);
  4445   000DAA  0E7F               	movlw	127
  4446   000DAC  EC00  F00B         	call	_I2C_Write
  4447   000DB0                     
  4448                           ;./SSD1306.h: 89:  I2C_Write(0x22);
  4449   000DB0  0E22               	movlw	34
  4450   000DB2  EC00  F00B         	call	_I2C_Write
  4451   000DB6                     
  4452                           ;./SSD1306.h: 90:  I2C_Write(0);
  4453   000DB6  0E00               	movlw	0
  4454   000DB8  EC00  F00B         	call	_I2C_Write
  4455   000DBC                     
  4456                           ;./SSD1306.h: 91:  I2C_Write(7);
  4457   000DBC  0E07               	movlw	7
  4458   000DBE  EC00  F00B         	call	_I2C_Write
  4459   000DC2                     
  4460                           ;./SSD1306.h: 92:  I2C_Stop();
  4461   000DC2  EC19  F00B         	call	_I2C_Stop	;wreg free
  4462   000DC6  0012               	return		;funcret
  4463   000DC8                     __end_of_SSD1306_Init:
  4464                           	callstack 0
  4465                           
  4466 ;; *************** function _SSD1306_WriteCommand *****************
  4467 ;; Defined at:
  4468 ;;		line 38 in file "./SSD1306.h"
  4469 ;; Parameters:    Size  Location     Type
  4470 ;;  cmd             1    wreg     unsigned char 
  4471 ;; Auto vars:     Size  Location     Type
  4472 ;;  cmd             1    2[COMRAM] unsigned char 
  4473 ;; Return value:  Size  Location     Type
  4474 ;;                  1    wreg      void 
  4475 ;; Registers used:
  4476 ;;		wreg, status,2, status,0, cstack
  4477 ;; Tracked objects:
  4478 ;;		On entry : 0/0
  4479 ;;		On exit  : 0/0
  4480 ;;		Unchanged: 0/0
  4481 ;; Data sizes:     COMRAM   BANK0   BANK1   BANK2   BANK3   BANK4   BANK5
  4482 ;;      Params:         0       0       0       0       0       0       0
  4483 ;;      Locals:         1       0       0       0       0       0       0
  4484 ;;      Temps:          0       0       0       0       0       0       0
  4485 ;;      Totals:         1       0       0       0       0       0       0
  4486 ;;Total ram usage:        1 bytes
  4487 ;; Hardware stack levels used: 1
  4488 ;; Hardware stack levels required when called: 4
  4489 ;; This function calls:
  4490 ;;		_I2C_Start
  4491 ;;		_I2C_Stop
  4492 ;;		_I2C_Write
  4493 ;; This function is called by:
  4494 ;;		_SSD1306_Init
  4495 ;; This function uses a non-reentrant model
  4496 ;;
  4497                           
  4498                           	psect	text23
  4499   0015E2                     __ptext23:
  4500                           	callstack 0
  4501   0015E2                     _SSD1306_WriteCommand:
  4502                           	callstack 25
  4503                           
  4504                           ;incstack = 0
  4505                           ;SSD1306_WriteCommand@cmd stored from wreg
  4506   0015E2  6E03               	movwf	SSD1306_WriteCommand@cmd^0,c
  4507   0015E4                     
  4508                           ;./SSD1306.h: 39:  I2C_Start();
  4509   0015E4  EC24  F00B         	call	_I2C_Start	;wreg free
  4510                           
  4511                           ;./SSD1306.h: 40:  I2C_Write(0x78);
  4512   0015E8  0E78               	movlw	120
  4513   0015EA  EC00  F00B         	call	_I2C_Write
  4514                           
  4515                           ;./SSD1306.h: 41:  I2C_Write(0x00);
  4516   0015EE  0E00               	movlw	0
  4517   0015F0  EC00  F00B         	call	_I2C_Write
  4518                           
  4519                           ;./SSD1306.h: 42:  I2C_Write(cmd);
  4520   0015F4  5003               	movf	SSD1306_WriteCommand@cmd^0,w,c
  4521   0015F6  EC00  F00B         	call	_I2C_Write
  4522                           
  4523                           ;./SSD1306.h: 43:  I2C_Stop();
  4524   0015FA  EC19  F00B         	call	_I2C_Stop	;wreg free
  4525   0015FE  0012               	return		;funcret
  4526   001600                     __end_of_SSD1306_WriteCommand:
  4527                           	callstack 0
  4528                           
  4529 ;; *************** function _I2C_Write *****************
  4530 ;; Defined at:
  4531 ;;		line 47 in file "./I2C.h"
  4532 ;; Parameters:    Size  Location     Type
  4533 ;;  data            1    wreg     unsigned char 
  4534 ;; Auto vars:     Size  Location     Type
  4535 ;;  data            1    1[COMRAM] unsigned char 
  4536 ;; Return value:  Size  Location     Type
  4537 ;;                  1    wreg      void 
  4538 ;; Registers used:
  4539 ;;		wreg, status,2, status,0, cstack
  4540 ;; Tracked objects:
  4541 ;;		On entry : 0/0
  4542 ;;		On exit  : 0/0
  4543 ;;		Unchanged: 0/0
  4544 ;; Data sizes:     COMRAM   BANK0   BANK1   BANK2   BANK3   BANK4   BANK5
  4545 ;;      Params:         0       0       0       0       0       0       0
  4546 ;;      Locals:         1       0       0       0       0       0       0
  4547 ;;      Temps:          0       0       0       0       0       0       0
  4548 ;;      Totals:         1       0       0       0       0       0       0
  4549 ;;Total ram usage:        1 bytes
  4550 ;; Hardware stack levels used: 1
  4551 ;; Hardware stack levels required when called: 3
  4552 ;; This function calls:
  4553 ;;		_I2C_Hold
  4554 ;; This function is called by:
  4555 ;;		_SSD1306_WriteCommand
  4556 ;;		_SSD1306_Init
  4557 ;;		_SSD1306_GotoStart
  4558 ;;		_SSD1306_String
  4559 ;;		_SSD1306_ClearScreen
  4560 ;; This function uses a non-reentrant model
  4561 ;;
  4562                           
  4563                           	psect	text24
  4564   001600                     __ptext24:
  4565                           	callstack 0
  4566   001600                     _I2C_Write:
  4567                           	callstack 25
  4568                           
  4569                           ;incstack = 0
  4570                           ;I2C_Write@data stored from wreg
  4571   001600  6E02               	movwf	I2C_Write@data^0,c
  4572   001602                     
  4573                           ;./I2C.h: 48:  I2C_Hold();
  4574   001602  ECCF  F00A         	call	_I2C_Hold	;wreg free
  4575   001606                     
  4576                           ;./I2C.h: 49:  SSPBUF = data;
  4577   001606  C002  FFC9         	movff	I2C_Write@data,4041	;volatile
  4578   00160A                     l116:
  4579   00160A  A69E               	btfss	3998,3,c	;volatile
  4580   00160C  EF0A  F00B         	goto	u201
  4581   001610  EF0C  F00B         	goto	u200
  4582   001614                     u201:
  4583   001614  EF05  F00B         	goto	l116
  4584   001618                     u200:
  4585   001618                     
  4586                           ;./I2C.h: 51:  SSPIF = 0;
  4587   001618  969E               	bcf	3998,3,c	;volatile
  4588   00161A  0012               	return		;funcret
  4589   00161C                     __end_of_I2C_Write:
  4590                           	callstack 0
  4591                           
  4592 ;; *************** function _I2C_Stop *****************
  4593 ;; Defined at:
  4594 ;;		line 41 in file "./I2C.h"
  4595 ;; Parameters:    Size  Location     Type
  4596 ;;		None
  4597 ;; Auto vars:     Size  Location     Type
  4598 ;;		None
  4599 ;; Return value:  Size  Location     Type
  4600 ;;                  1    wreg      void 
  4601 ;; Registers used:
  4602 ;;		wreg, status,2, status,0, cstack
  4603 ;; Tracked objects:
  4604 ;;		On entry : 0/0
  4605 ;;		On exit  : 0/0
  4606 ;;		Unchanged: 0/0
  4607 ;; Data sizes:     COMRAM   BANK0   BANK1   BANK2   BANK3   BANK4   BANK5
  4608 ;;      Params:         0       0       0       0       0       0       0
  4609 ;;      Locals:         0       0       0       0       0       0       0
  4610 ;;      Temps:          0       0       0       0       0       0       0
  4611 ;;      Totals:         0       0       0       0       0       0       0
  4612 ;;Total ram usage:        0 bytes
  4613 ;; Hardware stack levels used: 1
  4614 ;; Hardware stack levels required when called: 3
  4615 ;; This function calls:
  4616 ;;		_I2C_Hold
  4617 ;; This function is called by:
  4618 ;;		_SSD1306_WriteCommand
  4619 ;;		_SSD1306_Init
  4620 ;;		_SSD1306_GotoStart
  4621 ;;		_SSD1306_String
  4622 ;;		_SSD1306_ClearScreen
  4623 ;; This function uses a non-reentrant model
  4624 ;;
  4625                           
  4626                           	psect	text25
  4627   001632                     __ptext25:
  4628                           	callstack 0
  4629   001632                     _I2C_Stop:
  4630                           	callstack 25
  4631   001632                     
  4632                           ;./I2C.h: 42:  I2C_Hold();
  4633   001632  ECCF  F00A         	call	_I2C_Hold	;wreg free
  4634   001636                     
  4635                           ;./I2C.h: 43:  PEN = 1;
  4636   001636  84C5               	bsf	4037,2,c	;volatile
  4637   001638                     l110:
  4638   001638  B4C5               	btfsc	4037,2,c	;volatile
  4639   00163A  EF21  F00B         	goto	u191
  4640   00163E  EF23  F00B         	goto	u190
  4641   001642                     u191:
  4642   001642  EF1C  F00B         	goto	l110
  4643   001646                     u190:
  4644   001646  0012               	return		;funcret
  4645   001648                     __end_of_I2C_Stop:
  4646                           	callstack 0
  4647                           
  4648 ;; *************** function _I2C_Start *****************
  4649 ;; Defined at:
  4650 ;;		line 35 in file "./I2C.h"
  4651 ;; Parameters:    Size  Location     Type
  4652 ;;		None
  4653 ;; Auto vars:     Size  Location     Type
  4654 ;;		None
  4655 ;; Return value:  Size  Location     Type
  4656 ;;                  1    wreg      void 
  4657 ;; Registers used:
  4658 ;;		wreg, status,2, status,0, cstack
  4659 ;; Tracked objects:
  4660 ;;		On entry : 0/0
  4661 ;;		On exit  : 0/0
  4662 ;;		Unchanged: 0/0
  4663 ;; Data sizes:     COMRAM   BANK0   BANK1   BANK2   BANK3   BANK4   BANK5
  4664 ;;      Params:         0       0       0       0       0       0       0
  4665 ;;      Locals:         0       0       0       0       0       0       0
  4666 ;;      Temps:          0       0       0       0       0       0       0
  4667 ;;      Totals:         0       0       0       0       0       0       0
  4668 ;;Total ram usage:        0 bytes
  4669 ;; Hardware stack levels used: 1
  4670 ;; Hardware stack levels required when called: 3
  4671 ;; This function calls:
  4672 ;;		_I2C_Hold
  4673 ;; This function is called by:
  4674 ;;		_SSD1306_WriteCommand
  4675 ;;		_SSD1306_Init
  4676 ;;		_SSD1306_GotoStart
  4677 ;;		_SSD1306_String
  4678 ;;		_SSD1306_ClearScreen
  4679 ;; This function uses a non-reentrant model
  4680 ;;
  4681                           
  4682                           	psect	text26
  4683   001648                     __ptext26:
  4684                           	callstack 0
  4685   001648                     _I2C_Start:
  4686                           	callstack 25
  4687   001648                     
  4688                           ;./I2C.h: 36:  I2C_Hold();
  4689   001648  ECCF  F00A         	call	_I2C_Hold	;wreg free
  4690   00164C                     
  4691                           ;./I2C.h: 37:  SEN = 1;
  4692   00164C  80C5               	bsf	4037,0,c	;volatile
  4693   00164E                     l104:
  4694   00164E  B0C5               	btfsc	4037,0,c	;volatile
  4695   001650  EF2C  F00B         	goto	u181
  4696   001654  EF2E  F00B         	goto	u180
  4697   001658                     u181:
  4698   001658  EF27  F00B         	goto	l104
  4699   00165C                     u180:
  4700   00165C  0012               	return		;funcret
  4701   00165E                     __end_of_I2C_Start:
  4702                           	callstack 0
  4703                           
  4704 ;; *************** function _I2C_Hold *****************
  4705 ;; Defined at:
  4706 ;;		line 31 in file "./I2C.h"
  4707 ;; Parameters:    Size  Location     Type
  4708 ;;		None
  4709 ;; Auto vars:     Size  Location     Type
  4710 ;;		None
  4711 ;; Return value:  Size  Location     Type
  4712 ;;                  1    wreg      void 
  4713 ;; Registers used:
  4714 ;;		wreg, status,2, status,0
  4715 ;; Tracked objects:
  4716 ;;		On entry : 0/0
  4717 ;;		On exit  : 0/0
  4718 ;;		Unchanged: 0/0
  4719 ;; Data sizes:     COMRAM   BANK0   BANK1   BANK2   BANK3   BANK4   BANK5
  4720 ;;      Params:         0       0       0       0       0       0       0
  4721 ;;      Locals:         0       0       0       0       0       0       0
  4722 ;;      Temps:          1       0       0       0       0       0       0
  4723 ;;      Totals:         1       0       0       0       0       0       0
  4724 ;;Total ram usage:        1 bytes
  4725 ;; Hardware stack levels used: 1
  4726 ;; Hardware stack levels required when called: 2
  4727 ;; This function calls:
  4728 ;;		Nothing
  4729 ;; This function is called by:
  4730 ;;		_I2C_Start
  4731 ;;		_I2C_Stop
  4732 ;;		_I2C_Write
  4733 ;; This function uses a non-reentrant model
  4734 ;;
  4735                           
  4736                           	psect	text27
  4737   00159E                     __ptext27:
  4738                           	callstack 0
  4739   00159E                     _I2C_Hold:
  4740                           	callstack 25
  4741   00159E                     l1043:
  4742   00159E  CFC5 F001          	movff	4037,??_I2C_Hold	;volatile
  4743   0015A2  0E1F               	movlw	31
  4744   0015A4  1601               	andwf	??_I2C_Hold^0,f,c
  4745   0015A6  A4D8               	btfss	status,2,c
  4746   0015A8  EFD8  F00A         	goto	u111
  4747   0015AC  EFDA  F00A         	goto	u110
  4748   0015B0                     u111:
  4749   0015B0  EFCF  F00A         	goto	l1043
  4750   0015B4                     u110:
  4751   0015B4  B4C7               	btfsc	199,2,c	;volatile
  4752   0015B6  EFDF  F00A         	goto	u121
  4753   0015BA  EFE1  F00A         	goto	u120
  4754   0015BE                     u121:
  4755   0015BE  EFCF  F00A         	goto	l1043
  4756   0015C2                     u120:
  4757   0015C2  0012               	return		;funcret
  4758   0015C4                     __end_of_I2C_Hold:
  4759                           	callstack 0
  4760                           
  4761 ;; *************** function _I2C_Init *****************
  4762 ;; Defined at:
  4763 ;;		line 24 in file "./I2C.h"
  4764 ;; Parameters:    Size  Location     Type
  4765 ;;		None
  4766 ;; Auto vars:     Size  Location     Type
  4767 ;;		None
  4768 ;; Return value:  Size  Location     Type
  4769 ;;                  1    wreg      void 
  4770 ;; Registers used:
  4771 ;;		wreg, status,2
  4772 ;; Tracked objects:
  4773 ;;		On entry : 0/0
  4774 ;;		On exit  : 0/0
  4775 ;;		Unchanged: 0/0
  4776 ;; Data sizes:     COMRAM   BANK0   BANK1   BANK2   BANK3   BANK4   BANK5
  4777 ;;      Params:         0       0       0       0       0       0       0
  4778 ;;      Locals:         0       0       0       0       0       0       0
  4779 ;;      Temps:          0       0       0       0       0       0       0
  4780 ;;      Totals:         0       0       0       0       0       0       0
  4781 ;;Total ram usage:        0 bytes
  4782 ;; Hardware stack levels used: 1
  4783 ;; Hardware stack levels required when called: 2
  4784 ;; This function calls:
  4785 ;;		Nothing
  4786 ;; This function is called by:
  4787 ;;		_main
  4788 ;; This function uses a non-reentrant model
  4789 ;;
  4790                           
  4791                           	psect	text28
  4792   00165E                     __ptext28:
  4793                           	callstack 0
  4794   00165E                     _I2C_Init:
  4795                           	callstack 28
  4796   00165E                     
  4797                           ;./I2C.h: 25:  SSPCON1 = 0b00101000;
  4798   00165E  0E28               	movlw	40
  4799   001660  6EC6               	movwf	198,c	;volatile
  4800   001662                     
  4801                           ;./I2C.h: 26:  SSPCON2 = 0b00000000;
  4802   001662  6AC5               	clrf	197,c	;volatile
  4803                           
  4804                           ;./I2C.h: 27:  SSPADD = ((4000000 / 4) / 100000) - 1;
  4805   001664  0E09               	movlw	9
  4806   001666  6EC8               	movwf	200,c	;volatile
  4807   001668                     
  4808                           ;./I2C.h: 28:  SSPSTAT = 0b00000000;
  4809   001668  6AC7               	clrf	199,c	;volatile
  4810   00166A  0012               	return		;funcret
  4811   00166C                     __end_of_I2C_Init:
  4812                           	callstack 0
  4813                           
  4814 ;; *************** function _GetDistance *****************
  4815 ;; Defined at:
  4816 ;;		line 101 in file "main.c"
  4817 ;; Parameters:    Size  Location     Type
  4818 ;;		None
  4819 ;; Auto vars:     Size  Location     Type
  4820 ;;  pulseWidth      2   55[COMRAM] unsigned int 
  4821 ;;  distance_cm     2   53[COMRAM] unsigned int 
  4822 ;; Return value:  Size  Location     Type
  4823 ;;                  2   49[COMRAM] unsigned int 
  4824 ;; Registers used:
  4825 ;;		wreg, status,2, status,0, prodl, prodh, cstack
  4826 ;; Tracked objects:
  4827 ;;		On entry : 0/0
  4828 ;;		On exit  : 0/0
  4829 ;;		Unchanged: 0/0
  4830 ;; Data sizes:     COMRAM   BANK0   BANK1   BANK2   BANK3   BANK4   BANK5
  4831 ;;      Params:         2       0       0       0       0       0       0
  4832 ;;      Locals:         4       0       0       0       0       0       0
  4833 ;;      Temps:          2       0       0       0       0       0       0
  4834 ;;      Totals:         8       0       0       0       0       0       0
  4835 ;;Total ram usage:        8 bytes
  4836 ;; Hardware stack levels used: 1
  4837 ;; Hardware stack levels required when called: 3
  4838 ;; This function calls:
  4839 ;;		___flmul
  4840 ;;		___fltol
  4841 ;;		___xxtofl
  4842 ;; This function is called by:
  4843 ;;		_main
  4844 ;; This function uses a non-reentrant model
  4845 ;;
  4846                           
  4847                           	psect	text29
  4848   000F7A                     __ptext29:
  4849                           	callstack 0
  4850   000F7A                     _GetDistance:
  4851                           	callstack 27
  4852   000F7A                     
  4853                           ;main.c: 103:     unsigned int pulseWidth = 0;
  4854   000F7A  0E00               	movlw	0
  4855   000F7C  6E39               	movwf	(GetDistance@pulseWidth+1)^0,c
  4856   000F7E  0E00               	movlw	0
  4857   000F80  6E38               	movwf	GetDistance@pulseWidth^0,c
  4858   000F82                     
  4859                           ;main.c: 105:     TMR1H = 0;
  4860   000F82  6ACF               	clrf	207,c	;volatile
  4861   000F84                     
  4862                           ;main.c: 106:     TMR1L = 0;
  4863   000F84  6ACE               	clrf	206,c	;volatile
  4864   000F86                     
  4865                           ;main.c: 107:     PIR1bits.TMR1IF = 0;
  4866   000F86  909E               	bcf	158,0,c	;volatile
  4867   000F88                     
  4868                           ;main.c: 109:     LATDbits.LATD2 = 0;
  4869   000F88  948C               	bcf	140,2,c	;volatile
  4870   000F8A                     
  4871                           ;main.c: 110:     _delay((unsigned long)((2)*(4000000/4000000.0)));
  4872   000F8A  D000               	nop2		;2 cycle nop
  4873   000F8C                     
  4874                           ;main.c: 111:     LATDbits.LATD2 = 1;
  4875   000F8C  848C               	bsf	140,2,c	;volatile
  4876   000F8E                     
  4877                           ;main.c: 112:     _delay((unsigned long)((11)*(4000000/4000000.0)));
  4878   000F8E  0E03               	movlw	3
  4879   000F90                     u1907:
  4880   000F90  2EE8               	decfsz	wreg,f,c
  4881   000F92  D7FE               	bra	u1907
  4882   000F94  D000               	nop2	
  4883   000F96                     
  4884                           ;main.c: 113:     LATDbits.LATD2 = 0;
  4885   000F96  948C               	bcf	140,2,c	;volatile
  4886   000F98                     l190:
  4887   000F98  A683               	btfss	131,3,c	;volatile
  4888   000F9A  EFD1  F007         	goto	u1581
  4889   000F9E  EFD3  F007         	goto	u1580
  4890   000FA2                     u1581:
  4891   000FA2  EFCC  F007         	goto	l190
  4892   000FA6                     u1580:
  4893   000FA6                     
  4894                           ;main.c: 116:     T1CONbits.TMR1ON = 1;
  4895   000FA6  80CD               	bsf	205,0,c	;volatile
  4896   000FA8                     l193:
  4897   000FA8  B683               	btfsc	131,3,c	;volatile
  4898   000FAA  EFD9  F007         	goto	u1591
  4899   000FAE  EFDB  F007         	goto	u1590
  4900   000FB2                     u1591:
  4901   000FB2  EFD4  F007         	goto	l193
  4902   000FB6                     u1590:
  4903   000FB6                     
  4904                           ;main.c: 118:     T1CONbits.TMR1ON = 0;
  4905   000FB6  90CD               	bcf	205,0,c	;volatile
  4906   000FB8                     
  4907                           ;main.c: 120:     pulseWidth = ((TMR1H << 8) | TMR1L);
  4908   000FB8  50CE               	movf	206,w,c	;volatile
  4909   000FBA  CFCF F034          	movff	4047,??_GetDistance	;volatile
  4910   000FBE  6A35               	clrf	(??_GetDistance+1)^0,c
  4911   000FC0  C034  F035         	movff	??_GetDistance,??_GetDistance+1
  4912   000FC4  6A34               	clrf	??_GetDistance^0,c
  4913   000FC6  1034               	iorwf	??_GetDistance^0,w,c
  4914   000FC8  6E38               	movwf	GetDistance@pulseWidth^0,c
  4915   000FCA  5035               	movf	(??_GetDistance+1)^0,w,c
  4916   000FCC  6E39               	movwf	(GetDistance@pulseWidth+1)^0,c
  4917   000FCE                     
  4918                           ;main.c: 121:     distance_cm = pulseWidth * 0.0343;
  4919   000FCE  0E28               	movlw	40
  4920   000FD0  6E13               	movwf	___flmul@a^0,c
  4921   000FD2  0E7E               	movlw	126
  4922   000FD4  6E14               	movwf	(___flmul@a+1)^0,c
  4923   000FD6  0E0C               	movlw	12
  4924   000FD8  6E15               	movwf	(___flmul@a+2)^0,c
  4925   000FDA  0E3D               	movlw	61
  4926   000FDC  6E16               	movwf	(___flmul@a+3)^0,c
  4927   000FDE  C038  F001         	movff	GetDistance@pulseWidth,___xxtofl@val
  4928   000FE2  C039  F002         	movff	GetDistance@pulseWidth+1,___xxtofl@val+1
  4929   000FE6  6A03               	clrf	(___xxtofl@val+2)^0,c
  4930   000FE8  6A04               	clrf	(___xxtofl@val+3)^0,c
  4931   000FEA  0E00               	movlw	0
  4932   000FEC  EC1C  F002         	call	___xxtofl
  4933   000FF0  C001  F00F         	movff	?___xxtofl,___flmul@b
  4934   000FF4  C002  F010         	movff	?___xxtofl+1,___flmul@b+1
  4935   000FF8  C003  F011         	movff	?___xxtofl+2,___flmul@b+2
  4936   000FFC  C004  F012         	movff	?___xxtofl+3,___flmul@b+3
  4937   001000  EC09  F000         	call	___flmul	;wreg free
  4938   001004  C00F  F028         	movff	?___flmul,___fltol@f1
  4939   001008  C010  F029         	movff	?___flmul+1,___fltol@f1+1
  4940   00100C  C011  F02A         	movff	?___flmul+2,___fltol@f1+2
  4941   001010  C012  F02B         	movff	?___flmul+3,___fltol@f1+3
  4942   001014  ECE4  F005         	call	___fltol	;wreg free
  4943   001018  C028  F036         	movff	?___fltol,GetDistance@distance_cm
  4944   00101C  C029  F037         	movff	?___fltol+1,GetDistance@distance_cm+1
  4945   001020                     
  4946                           ;main.c: 123:     return distance_cm;
  4947   001020  C036  F032         	movff	GetDistance@distance_cm,?_GetDistance
  4948   001024  C037  F033         	movff	GetDistance@distance_cm+1,?_GetDistance+1
  4949   001028  0012               	return		;funcret
  4950   00102A                     __end_of_GetDistance:
  4951                           	callstack 0
  4952                           
  4953 ;; *************** function ___xxtofl *****************
  4954 ;; Defined at:
  4955 ;;		line 10 in file "C:\Program Files\Microchip\xc8\v3.00\pic\sources\c99\common\xxtofl.c"
  4956 ;; Parameters:    Size  Location     Type
  4957 ;;  sign            1    wreg     unsigned char 
  4958 ;;  val             4    0[COMRAM] long 
  4959 ;; Auto vars:     Size  Location     Type
  4960 ;;  sign            1    8[COMRAM] unsigned char 
  4961 ;;  arg             4   10[COMRAM] unsigned long 
  4962 ;;  exp             1    9[COMRAM] unsigned char 
  4963 ;; Return value:  Size  Location     Type
  4964 ;;                  4    0[COMRAM] unsigned char 
  4965 ;; Registers used:
  4966 ;;		wreg, status,2, status,0
  4967 ;; Tracked objects:
  4968 ;;		On entry : 0/0
  4969 ;;		On exit  : 0/0
  4970 ;;		Unchanged: 0/0
  4971 ;; Data sizes:     COMRAM   BANK0   BANK1   BANK2   BANK3   BANK4   BANK5
  4972 ;;      Params:         4       0       0       0       0       0       0
  4973 ;;      Locals:         6       0       0       0       0       0       0
  4974 ;;      Temps:          4       0       0       0       0       0       0
  4975 ;;      Totals:        14       0       0       0       0       0       0
  4976 ;;Total ram usage:       14 bytes
  4977 ;; Hardware stack levels used: 1
  4978 ;; Hardware stack levels required when called: 2
  4979 ;; This function calls:
  4980 ;;		Nothing
  4981 ;; This function is called by:
  4982 ;;		_GetDistance
  4983 ;; This function uses a non-reentrant model
  4984 ;;
  4985                           
  4986                           	psect	text30
  4987   000438                     __ptext30:
  4988                           	callstack 0
  4989   000438                     ___xxtofl:
  4990                           	callstack 27
  4991                           
  4992                           ;incstack = 0
  4993                           ;___xxtofl@sign stored from wreg
  4994   000438  6E09               	movwf	___xxtofl@sign^0,c
  4995   00043A  5009               	movf	___xxtofl@sign^0,w,c
  4996   00043C  B4D8               	btfsc	status,2,c
  4997   00043E  EF23  F002         	goto	u1481
  4998   000442  EF25  F002         	goto	u1480
  4999   000446                     u1481:
  5000   000446  EF47  F002         	goto	l891
  5001   00044A                     u1480:
  5002   00044A  BE04               	btfsc	(___xxtofl@val+3)^0,7,c
  5003   00044C  EF2C  F002         	goto	u1490
  5004   000450  EF2A  F002         	goto	u1491
  5005   000454                     u1491:
  5006   000454  EF47  F002         	goto	l891
  5007   000458                     u1490:
  5008   000458  C001  F005         	movff	___xxtofl@val,??___xxtofl
  5009   00045C  C002  F006         	movff	___xxtofl@val+1,??___xxtofl+1
  5010   000460  C003  F007         	movff	___xxtofl@val+2,??___xxtofl+2
  5011   000464  C004  F008         	movff	___xxtofl@val+3,??___xxtofl+3
  5012   000468  1E05               	comf	??___xxtofl^0,f,c
  5013   00046A  1E06               	comf	(??___xxtofl+1)^0,f,c
  5014   00046C  1E07               	comf	(??___xxtofl+2)^0,f,c
  5015   00046E  1E08               	comf	(??___xxtofl+3)^0,f,c
  5016   000470  2A05               	incf	??___xxtofl^0,f,c
  5017   000472  0E00               	movlw	0
  5018   000474  2206               	addwfc	(??___xxtofl+1)^0,f,c
  5019   000476  2207               	addwfc	(??___xxtofl+2)^0,f,c
  5020   000478  2208               	addwfc	(??___xxtofl+3)^0,f,c
  5021   00047A  C005  F00B         	movff	??___xxtofl,___xxtofl@arg
  5022   00047E  C006  F00C         	movff	??___xxtofl+1,___xxtofl@arg+1
  5023   000482  C007  F00D         	movff	??___xxtofl+2,___xxtofl@arg+2
  5024   000486  C008  F00E         	movff	??___xxtofl+3,___xxtofl@arg+3
  5025   00048A  EF4F  F002         	goto	l2183
  5026   00048E                     l891:
  5027   00048E  C001  F00B         	movff	___xxtofl@val,___xxtofl@arg
  5028   000492  C002  F00C         	movff	___xxtofl@val+1,___xxtofl@arg+1
  5029   000496  C003  F00D         	movff	___xxtofl@val+2,___xxtofl@arg+2
  5030   00049A  C004  F00E         	movff	___xxtofl@val+3,___xxtofl@arg+3
  5031   00049E                     l2183:
  5032   00049E  5001               	movf	___xxtofl@val^0,w,c
  5033   0004A0  1002               	iorwf	(___xxtofl@val+1)^0,w,c
  5034   0004A2  1003               	iorwf	(___xxtofl@val+2)^0,w,c
  5035   0004A4  1004               	iorwf	(___xxtofl@val+3)^0,w,c
  5036   0004A6  A4D8               	btfss	status,2,c
  5037   0004A8  EF58  F002         	goto	u1501
  5038   0004AC  EF5A  F002         	goto	u1500
  5039   0004B0                     u1501:
  5040   0004B0  EF64  F002         	goto	l2189
  5041   0004B4                     u1500:
  5042   0004B4  0E00               	movlw	0
  5043   0004B6  6E01               	movwf	?___xxtofl^0,c
  5044   0004B8  0E00               	movlw	0
  5045   0004BA  6E02               	movwf	(?___xxtofl+1)^0,c
  5046   0004BC  0E00               	movlw	0
  5047   0004BE  6E03               	movwf	(?___xxtofl+2)^0,c
  5048   0004C0  0E00               	movlw	0
  5049   0004C2  6E04               	movwf	(?___xxtofl+3)^0,c
  5050   0004C4  EFF5  F002         	goto	l894
  5051   0004C8                     l2189:
  5052   0004C8  0E96               	movlw	150
  5053   0004CA  6E0A               	movwf	___xxtofl@exp^0,c
  5054   0004CC  EF6E  F002         	goto	l2193
  5055   0004D0                     l2191:
  5056   0004D0  2A0A               	incf	___xxtofl@exp^0,f,c
  5057   0004D2  90D8               	bcf	status,0,c
  5058   0004D4  320E               	rrcf	(___xxtofl@arg+3)^0,f,c
  5059   0004D6  320D               	rrcf	(___xxtofl@arg+2)^0,f,c
  5060   0004D8  320C               	rrcf	(___xxtofl@arg+1)^0,f,c
  5061   0004DA  320B               	rrcf	___xxtofl@arg^0,f,c
  5062   0004DC                     l2193:
  5063   0004DC  0E00               	movlw	0
  5064   0004DE  140B               	andwf	___xxtofl@arg^0,w,c
  5065   0004E0  6E05               	movwf	??___xxtofl^0,c
  5066   0004E2  0E00               	movlw	0
  5067   0004E4  140C               	andwf	(___xxtofl@arg+1)^0,w,c
  5068   0004E6  6E06               	movwf	(??___xxtofl+1)^0,c
  5069   0004E8  0E00               	movlw	0
  5070   0004EA  140D               	andwf	(___xxtofl@arg+2)^0,w,c
  5071   0004EC  6E07               	movwf	(??___xxtofl+2)^0,c
  5072   0004EE  0EFE               	movlw	254
  5073   0004F0  140E               	andwf	(___xxtofl@arg+3)^0,w,c
  5074   0004F2  6E08               	movwf	(??___xxtofl+3)^0,c
  5075   0004F4  5005               	movf	??___xxtofl^0,w,c
  5076   0004F6  1006               	iorwf	(??___xxtofl+1)^0,w,c
  5077   0004F8  1007               	iorwf	(??___xxtofl+2)^0,w,c
  5078   0004FA  1008               	iorwf	(??___xxtofl+3)^0,w,c
  5079   0004FC  A4D8               	btfss	status,2,c
  5080   0004FE  EF83  F002         	goto	u1511
  5081   000502  EF85  F002         	goto	u1510
  5082   000506                     u1511:
  5083   000506  EF68  F002         	goto	l2191
  5084   00050A                     u1510:
  5085   00050A  EF93  F002         	goto	l898
  5086   00050E                     l2195:
  5087   00050E  2A0A               	incf	___xxtofl@exp^0,f,c
  5088   000510  0E01               	movlw	1
  5089   000512  260B               	addwf	___xxtofl@arg^0,f,c
  5090   000514  0E00               	movlw	0
  5091   000516  220C               	addwfc	(___xxtofl@arg+1)^0,f,c
  5092   000518  220D               	addwfc	(___xxtofl@arg+2)^0,f,c
  5093   00051A  220E               	addwfc	(___xxtofl@arg+3)^0,f,c
  5094   00051C  90D8               	bcf	status,0,c
  5095   00051E  320E               	rrcf	(___xxtofl@arg+3)^0,f,c
  5096   000520  320D               	rrcf	(___xxtofl@arg+2)^0,f,c
  5097   000522  320C               	rrcf	(___xxtofl@arg+1)^0,f,c
  5098   000524  320B               	rrcf	___xxtofl@arg^0,f,c
  5099   000526                     l898:
  5100   000526  0E00               	movlw	0
  5101   000528  140B               	andwf	___xxtofl@arg^0,w,c
  5102   00052A  6E05               	movwf	??___xxtofl^0,c
  5103   00052C  0E00               	movlw	0
  5104   00052E  140C               	andwf	(___xxtofl@arg+1)^0,w,c
  5105   000530  6E06               	movwf	(??___xxtofl+1)^0,c
  5106   000532  0E00               	movlw	0
  5107   000534  140D               	andwf	(___xxtofl@arg+2)^0,w,c
  5108   000536  6E07               	movwf	(??___xxtofl+2)^0,c
  5109   000538  0EFF               	movlw	255
  5110   00053A  140E               	andwf	(___xxtofl@arg+3)^0,w,c
  5111   00053C  6E08               	movwf	(??___xxtofl+3)^0,c
  5112   00053E  5005               	movf	??___xxtofl^0,w,c
  5113   000540  1006               	iorwf	(??___xxtofl+1)^0,w,c
  5114   000542  1007               	iorwf	(??___xxtofl+2)^0,w,c
  5115   000544  1008               	iorwf	(??___xxtofl+3)^0,w,c
  5116   000546  A4D8               	btfss	status,2,c
  5117   000548  EFA8  F002         	goto	u1521
  5118   00054C  EFAA  F002         	goto	u1520
  5119   000550                     u1521:
  5120   000550  EF87  F002         	goto	l2195
  5121   000554                     u1520:
  5122   000554  EFB2  F002         	goto	l2203
  5123   000558                     l2201:
  5124   000558  060A               	decf	___xxtofl@exp^0,f,c
  5125   00055A  90D8               	bcf	status,0,c
  5126   00055C  360B               	rlcf	___xxtofl@arg^0,f,c
  5127   00055E  360C               	rlcf	(___xxtofl@arg+1)^0,f,c
  5128   000560  360D               	rlcf	(___xxtofl@arg+2)^0,f,c
  5129   000562  360E               	rlcf	(___xxtofl@arg+3)^0,f,c
  5130   000564                     l2203:
  5131   000564  BE0D               	btfsc	(___xxtofl@arg+2)^0,7,c
  5132   000566  EFB7  F002         	goto	u1531
  5133   00056A  EFB9  F002         	goto	u1530
  5134   00056E                     u1531:
  5135   00056E  EFC1  F002         	goto	l905
  5136   000572                     u1530:
  5137   000572  0E02               	movlw	2
  5138   000574  600A               	cpfslt	___xxtofl@exp^0,c
  5139   000576  EFBF  F002         	goto	u1541
  5140   00057A  EFC1  F002         	goto	u1540
  5141   00057E                     u1541:
  5142   00057E  EFAC  F002         	goto	l2201
  5143   000582                     u1540:
  5144   000582                     l905:
  5145   000582  B00A               	btfsc	___xxtofl@exp^0,0,c
  5146   000584  EFC6  F002         	goto	u1551
  5147   000588  EFC8  F002         	goto	u1550
  5148   00058C                     u1551:
  5149   00058C  EFC9  F002         	goto	l2209
  5150   000590                     u1550:
  5151   000590  9E0D               	bcf	(___xxtofl@arg+2)^0,7,c
  5152   000592                     l2209:
  5153   000592  90D8               	bcf	status,0,c
  5154   000594  320A               	rrcf	___xxtofl@exp^0,f,c
  5155   000596  C00A  F005         	movff	___xxtofl@exp,??___xxtofl
  5156   00059A  6A06               	clrf	(??___xxtofl+1)^0,c
  5157   00059C  6A07               	clrf	(??___xxtofl+2)^0,c
  5158   00059E  6A08               	clrf	(??___xxtofl+3)^0,c
  5159   0005A0  C005  F008         	movff	??___xxtofl,??___xxtofl+3
  5160   0005A4  6A07               	clrf	(??___xxtofl+2)^0,c
  5161   0005A6  6A06               	clrf	(??___xxtofl+1)^0,c
  5162   0005A8  6A05               	clrf	??___xxtofl^0,c
  5163   0005AA  5005               	movf	??___xxtofl^0,w,c
  5164   0005AC  120B               	iorwf	___xxtofl@arg^0,f,c
  5165   0005AE  5006               	movf	(??___xxtofl+1)^0,w,c
  5166   0005B0  120C               	iorwf	(___xxtofl@arg+1)^0,f,c
  5167   0005B2  5007               	movf	(??___xxtofl+2)^0,w,c
  5168   0005B4  120D               	iorwf	(___xxtofl@arg+2)^0,f,c
  5169   0005B6  5008               	movf	(??___xxtofl+3)^0,w,c
  5170   0005B8  120E               	iorwf	(___xxtofl@arg+3)^0,f,c
  5171   0005BA  5009               	movf	___xxtofl@sign^0,w,c
  5172   0005BC  B4D8               	btfsc	status,2,c
  5173   0005BE  EFE3  F002         	goto	u1561
  5174   0005C2  EFE5  F002         	goto	u1560
  5175   0005C6                     u1561:
  5176   0005C6  EFED  F002         	goto	l2219
  5177   0005CA                     u1560:
  5178   0005CA  BE04               	btfsc	(___xxtofl@val+3)^0,7,c
  5179   0005CC  EFEC  F002         	goto	u1570
  5180   0005D0  EFEA  F002         	goto	u1571
  5181   0005D4                     u1571:
  5182   0005D4  EFED  F002         	goto	l2219
  5183   0005D8                     u1570:
  5184   0005D8  8E0E               	bsf	(___xxtofl@arg+3)^0,7,c
  5185   0005DA                     l2219:
  5186   0005DA  C00B  F001         	movff	___xxtofl@arg,?___xxtofl
  5187   0005DE  C00C  F002         	movff	___xxtofl@arg+1,?___xxtofl+1
  5188   0005E2  C00D  F003         	movff	___xxtofl@arg+2,?___xxtofl+2
  5189   0005E6  C00E  F004         	movff	___xxtofl@arg+3,?___xxtofl+3
  5190   0005EA                     l894:
  5191   0005EA  0012               	return		;funcret
  5192   0005EC                     __end_of___xxtofl:
  5193                           	callstack 0
  5194                           
  5195 ;; *************** function ___fltol *****************
  5196 ;; Defined at:
  5197 ;;		line 43 in file "C:\Program Files\Microchip\xc8\v3.00\pic\sources\c99\common\fltol.c"
  5198 ;; Parameters:    Size  Location     Type
  5199 ;;  f1              4   39[COMRAM] unsigned char 
  5200 ;; Auto vars:     Size  Location     Type
  5201 ;;  exp1            1   48[COMRAM] unsigned char 
  5202 ;;  sign1           1   47[COMRAM] unsigned char 
  5203 ;; Return value:  Size  Location     Type
  5204 ;;                  4   39[COMRAM] long 
  5205 ;; Registers used:
  5206 ;;		wreg, status,2, status,0
  5207 ;; Tracked objects:
  5208 ;;		On entry : 0/0
  5209 ;;		On exit  : 0/0
  5210 ;;		Unchanged: 0/0
  5211 ;; Data sizes:     COMRAM   BANK0   BANK1   BANK2   BANK3   BANK4   BANK5
  5212 ;;      Params:         4       0       0       0       0       0       0
  5213 ;;      Locals:         2       0       0       0       0       0       0
  5214 ;;      Temps:          4       0       0       0       0       0       0
  5215 ;;      Totals:        10       0       0       0       0       0       0
  5216 ;;Total ram usage:       10 bytes
  5217 ;; Hardware stack levels used: 1
  5218 ;; Hardware stack levels required when called: 2
  5219 ;; This function calls:
  5220 ;;		Nothing
  5221 ;; This function is called by:
  5222 ;;		_GetDistance
  5223 ;; This function uses a non-reentrant model
  5224 ;;
  5225                           
  5226                           	psect	text31
  5227   000BC8                     __ptext31:
  5228                           	callstack 0
  5229   000BC8                     ___fltol:
  5230                           	callstack 27
  5231   000BC8  342A               	rlcf	(___fltol@f1+2)^0,w,c
  5232   000BCA  342B               	rlcf	(___fltol@f1+3)^0,w,c
  5233   000BCC  6E31               	movwf	___fltol@exp1^0,c
  5234   000BCE  5031               	movf	___fltol@exp1^0,w,c
  5235   000BD0  A4D8               	btfss	status,2,c
  5236   000BD2  EFED  F005         	goto	u1411
  5237   000BD6  EFEF  F005         	goto	u1410
  5238   000BDA                     u1411:
  5239   000BDA  EFF9  F005         	goto	l2139
  5240   000BDE                     u1410:
  5241   000BDE                     l2135:
  5242   000BDE  0E00               	movlw	0
  5243   000BE0  6E28               	movwf	?___fltol^0,c
  5244   000BE2  0E00               	movlw	0
  5245   000BE4  6E29               	movwf	(?___fltol+1)^0,c
  5246   000BE6  0E00               	movlw	0
  5247   000BE8  6E2A               	movwf	(?___fltol+2)^0,c
  5248   000BEA  0E00               	movlw	0
  5249   000BEC  6E2B               	movwf	(?___fltol+3)^0,c
  5250   000BEE  EF66  F006         	goto	l533
  5251   000BF2                     l2139:
  5252   000BF2  C028  F02C         	movff	___fltol@f1,??___fltol
  5253   000BF6  C029  F02D         	movff	___fltol@f1+1,??___fltol+1
  5254   000BFA  C02A  F02E         	movff	___fltol@f1+2,??___fltol+2
  5255   000BFE  C02B  F02F         	movff	___fltol@f1+3,??___fltol+3
  5256   000C02  0E20               	movlw	32
  5257   000C04  EF09  F006         	goto	u1420
  5258   000C08                     u1425:
  5259   000C08  90D8               	bcf	status,0,c
  5260   000C0A  322F               	rrcf	(??___fltol+3)^0,f,c
  5261   000C0C  322E               	rrcf	(??___fltol+2)^0,f,c
  5262   000C0E  322D               	rrcf	(??___fltol+1)^0,f,c
  5263   000C10  322C               	rrcf	??___fltol^0,f,c
  5264   000C12                     u1420:
  5265   000C12  2EE8               	decfsz	wreg,f,c
  5266   000C14  EF04  F006         	goto	u1425
  5267   000C18  502C               	movf	??___fltol^0,w,c
  5268   000C1A  6E30               	movwf	___fltol@sign1^0,c
  5269   000C1C  8E2A               	bsf	(___fltol@f1+2)^0,7,c
  5270   000C1E  0EFF               	movlw	255
  5271   000C20  1628               	andwf	___fltol@f1^0,f,c
  5272   000C22  0EFF               	movlw	255
  5273   000C24  1629               	andwf	(___fltol@f1+1)^0,f,c
  5274   000C26  0EFF               	movlw	255
  5275   000C28  162A               	andwf	(___fltol@f1+2)^0,f,c
  5276   000C2A  0E00               	movlw	0
  5277   000C2C  162B               	andwf	(___fltol@f1+3)^0,f,c
  5278   000C2E  0E96               	movlw	150
  5279   000C30  5E31               	subwf	___fltol@exp1^0,f,c
  5280   000C32  BE31               	btfsc	___fltol@exp1^0,7,c
  5281   000C34  EF20  F006         	goto	u1430
  5282   000C38  EF1E  F006         	goto	u1431
  5283   000C3C                     u1431:
  5284   000C3C  EF36  F006         	goto	l2159
  5285   000C40                     u1430:
  5286   000C40  5031               	movf	___fltol@exp1^0,w,c
  5287   000C42  0A80               	xorlw	128
  5288   000C44  0F97               	addlw	151
  5289   000C46  B0D8               	btfsc	status,0,c
  5290   000C48  EF28  F006         	goto	u1441
  5291   000C4C  EF2A  F006         	goto	u1440
  5292   000C50                     u1441:
  5293   000C50  EF2C  F006         	goto	l2155
  5294   000C54                     u1440:
  5295   000C54  EFEF  F005         	goto	l2135
  5296   000C58                     l2155:
  5297   000C58  90D8               	bcf	status,0,c
  5298   000C5A  322B               	rrcf	(___fltol@f1+3)^0,f,c
  5299   000C5C  322A               	rrcf	(___fltol@f1+2)^0,f,c
  5300   000C5E  3229               	rrcf	(___fltol@f1+1)^0,f,c
  5301   000C60  3228               	rrcf	___fltol@f1^0,f,c
  5302   000C62  3E31               	incfsz	___fltol@exp1^0,f,c
  5303   000C64  EF2C  F006         	goto	l2155
  5304   000C68  EF4E  F006         	goto	l2169
  5305   000C6C                     l2159:
  5306   000C6C  0E1F               	movlw	31
  5307   000C6E  6431               	cpfsgt	___fltol@exp1^0,c
  5308   000C70  EF3C  F006         	goto	u1451
  5309   000C74  EF3E  F006         	goto	u1450
  5310   000C78                     u1451:
  5311   000C78  EF46  F006         	goto	l2167
  5312   000C7C                     u1450:
  5313   000C7C  EFEF  F005         	goto	l2135
  5314   000C80                     l2165:
  5315   000C80  90D8               	bcf	status,0,c
  5316   000C82  3628               	rlcf	___fltol@f1^0,f,c
  5317   000C84  3629               	rlcf	(___fltol@f1+1)^0,f,c
  5318   000C86  362A               	rlcf	(___fltol@f1+2)^0,f,c
  5319   000C88  362B               	rlcf	(___fltol@f1+3)^0,f,c
  5320   000C8A  0631               	decf	___fltol@exp1^0,f,c
  5321   000C8C                     l2167:
  5322   000C8C  5031               	movf	___fltol@exp1^0,w,c
  5323   000C8E  A4D8               	btfss	status,2,c
  5324   000C90  EF4C  F006         	goto	u1461
  5325   000C94  EF4E  F006         	goto	u1460
  5326   000C98                     u1461:
  5327   000C98  EF40  F006         	goto	l2165
  5328   000C9C                     u1460:
  5329   000C9C                     l2169:
  5330   000C9C  5030               	movf	___fltol@sign1^0,w,c
  5331   000C9E  B4D8               	btfsc	status,2,c
  5332   000CA0  EF54  F006         	goto	u1471
  5333   000CA4  EF56  F006         	goto	u1470
  5334   000CA8                     u1471:
  5335   000CA8  EF5E  F006         	goto	l2173
  5336   000CAC                     u1470:
  5337   000CAC  1E2B               	comf	(___fltol@f1+3)^0,f,c
  5338   000CAE  1E2A               	comf	(___fltol@f1+2)^0,f,c
  5339   000CB0  1E29               	comf	(___fltol@f1+1)^0,f,c
  5340   000CB2  6C28               	negf	___fltol@f1^0,c
  5341   000CB4  0E00               	movlw	0
  5342   000CB6  2229               	addwfc	(___fltol@f1+1)^0,f,c
  5343   000CB8  222A               	addwfc	(___fltol@f1+2)^0,f,c
  5344   000CBA  222B               	addwfc	(___fltol@f1+3)^0,f,c
  5345   000CBC                     l2173:
  5346   000CBC  C028  F028         	movff	___fltol@f1,?___fltol
  5347   000CC0  C029  F029         	movff	___fltol@f1+1,?___fltol+1
  5348   000CC4  C02A  F02A         	movff	___fltol@f1+2,?___fltol+2
  5349   000CC8  C02B  F02B         	movff	___fltol@f1+3,?___fltol+3
  5350   000CCC                     l533:
  5351   000CCC  0012               	return		;funcret
  5352   000CCE                     __end_of___fltol:
  5353                           	callstack 0
  5354                           
  5355 ;; *************** function ___flmul *****************
  5356 ;; Defined at:
  5357 ;;		line 8 in file "C:\Program Files\Microchip\xc8\v3.00\pic\sources\c99\common\sprcmul.c"
  5358 ;; Parameters:    Size  Location     Type
  5359 ;;  b               4   14[COMRAM] long 
  5360 ;;  a               4   18[COMRAM] long 
  5361 ;; Auto vars:     Size  Location     Type
  5362 ;;  prod            4   33[COMRAM] struct .
  5363 ;;  grs             4   27[COMRAM] unsigned long 
  5364 ;;  temp            2   37[COMRAM] struct .
  5365 ;;  bexp            1   32[COMRAM] unsigned char 
  5366 ;;  aexp            1   31[COMRAM] unsigned char 
  5367 ;;  sign            1   26[COMRAM] unsigned char 
  5368 ;; Return value:  Size  Location     Type
  5369 ;;                  4   14[COMRAM] unsigned char 
  5370 ;; Registers used:
  5371 ;;		wreg, status,2, status,0, prodl, prodh
  5372 ;; Tracked objects:
  5373 ;;		On entry : 0/0
  5374 ;;		On exit  : 0/0
  5375 ;;		Unchanged: 0/0
  5376 ;; Data sizes:     COMRAM   BANK0   BANK1   BANK2   BANK3   BANK4   BANK5
  5377 ;;      Params:         8       0       0       0       0       0       0
  5378 ;;      Locals:        13       0       0       0       0       0       0
  5379 ;;      Temps:          4       0       0       0       0       0       0
  5380 ;;      Totals:        25       0       0       0       0       0       0
  5381 ;;Total ram usage:       25 bytes
  5382 ;; Hardware stack levels used: 1
  5383 ;; Hardware stack levels required when called: 2
  5384 ;; This function calls:
  5385 ;;		Nothing
  5386 ;; This function is called by:
  5387 ;;		_GetDistance
  5388 ;; This function uses a non-reentrant model
  5389 ;;
  5390                           
  5391                           	psect	text32
  5392   000012                     __ptext32:
  5393                           	callstack 0
  5394   000012                     ___flmul:
  5395                           	callstack 27
  5396   000012  5012               	movf	(___flmul@b+3)^0,w,c
  5397   000014  0B80               	andlw	128
  5398   000016  6E1B               	movwf	___flmul@sign^0,c
  5399   000018  5012               	movf	(___flmul@b+3)^0,w,c
  5400   00001A  2412               	addwf	(___flmul@b+3)^0,w,c
  5401   00001C  6E21               	movwf	___flmul@bexp^0,c
  5402   00001E  AE11               	btfss	(___flmul@b+2)^0,7,c
  5403   000020  EF14  F000         	goto	u1221
  5404   000024  EF16  F000         	goto	u1220
  5405   000028                     u1221:
  5406   000028  EF17  F000         	goto	l2011
  5407   00002C                     u1220:
  5408   00002C  8021               	bsf	___flmul@bexp^0,0,c
  5409   00002E                     l2011:
  5410   00002E  5021               	movf	___flmul@bexp^0,w,c
  5411   000030  B4D8               	btfsc	status,2,c
  5412   000032  EF1D  F000         	goto	u1231
  5413   000036  EF1F  F000         	goto	u1230
  5414   00003A                     u1231:
  5415   00003A  EF32  F000         	goto	l2019
  5416   00003E                     u1230:
  5417   00003E  2821               	incf	___flmul@bexp^0,w,c
  5418   000040  A4D8               	btfss	status,2,c
  5419   000042  EF25  F000         	goto	u1241
  5420   000046  EF27  F000         	goto	u1240
  5421   00004A                     u1241:
  5422   00004A  EF2F  F000         	goto	l2017
  5423   00004E                     u1240:
  5424   00004E  0E00               	movlw	0
  5425   000050  6E0F               	movwf	___flmul@b^0,c
  5426   000052  0E00               	movlw	0
  5427   000054  6E10               	movwf	(___flmul@b+1)^0,c
  5428   000056  0E00               	movlw	0
  5429   000058  6E11               	movwf	(___flmul@b+2)^0,c
  5430   00005A  0E00               	movlw	0
  5431   00005C  6E12               	movwf	(___flmul@b+3)^0,c
  5432   00005E                     l2017:
  5433   00005E  8E11               	bsf	(___flmul@b+2)^0,7,c
  5434   000060  EF3A  F000         	goto	l2021
  5435   000064                     l2019:
  5436   000064  0E00               	movlw	0
  5437   000066  6E0F               	movwf	___flmul@b^0,c
  5438   000068  0E00               	movlw	0
  5439   00006A  6E10               	movwf	(___flmul@b+1)^0,c
  5440   00006C  0E00               	movlw	0
  5441   00006E  6E11               	movwf	(___flmul@b+2)^0,c
  5442   000070  0E00               	movlw	0
  5443   000072  6E12               	movwf	(___flmul@b+3)^0,c
  5444   000074                     l2021:
  5445   000074  5016               	movf	(___flmul@a+3)^0,w,c
  5446   000076  0B80               	andlw	128
  5447   000078  1A1B               	xorwf	___flmul@sign^0,f,c
  5448   00007A  5016               	movf	(___flmul@a+3)^0,w,c
  5449   00007C  2416               	addwf	(___flmul@a+3)^0,w,c
  5450   00007E  6E20               	movwf	___flmul@aexp^0,c
  5451   000080  AE15               	btfss	(___flmul@a+2)^0,7,c
  5452   000082  EF45  F000         	goto	u1251
  5453   000086  EF47  F000         	goto	u1250
  5454   00008A                     u1251:
  5455   00008A  EF48  F000         	goto	l2029
  5456   00008E                     u1250:
  5457   00008E  8020               	bsf	___flmul@aexp^0,0,c
  5458   000090                     l2029:
  5459   000090  5020               	movf	___flmul@aexp^0,w,c
  5460   000092  B4D8               	btfsc	status,2,c
  5461   000094  EF4E  F000         	goto	u1261
  5462   000098  EF50  F000         	goto	u1260
  5463   00009C                     u1261:
  5464   00009C  EF63  F000         	goto	l2037
  5465   0000A0                     u1260:
  5466   0000A0  2820               	incf	___flmul@aexp^0,w,c
  5467   0000A2  A4D8               	btfss	status,2,c
  5468   0000A4  EF56  F000         	goto	u1271
  5469   0000A8  EF58  F000         	goto	u1270
  5470   0000AC                     u1271:
  5471   0000AC  EF60  F000         	goto	l2035
  5472   0000B0                     u1270:
  5473   0000B0  0E00               	movlw	0
  5474   0000B2  6E13               	movwf	___flmul@a^0,c
  5475   0000B4  0E00               	movlw	0
  5476   0000B6  6E14               	movwf	(___flmul@a+1)^0,c
  5477   0000B8  0E00               	movlw	0
  5478   0000BA  6E15               	movwf	(___flmul@a+2)^0,c
  5479   0000BC  0E00               	movlw	0
  5480   0000BE  6E16               	movwf	(___flmul@a+3)^0,c
  5481   0000C0                     l2035:
  5482   0000C0  8E15               	bsf	(___flmul@a+2)^0,7,c
  5483   0000C2  EF6B  F000         	goto	l850
  5484   0000C6                     l2037:
  5485   0000C6  0E00               	movlw	0
  5486   0000C8  6E13               	movwf	___flmul@a^0,c
  5487   0000CA  0E00               	movlw	0
  5488   0000CC  6E14               	movwf	(___flmul@a+1)^0,c
  5489   0000CE  0E00               	movlw	0
  5490   0000D0  6E15               	movwf	(___flmul@a+2)^0,c
  5491   0000D2  0E00               	movlw	0
  5492   0000D4  6E16               	movwf	(___flmul@a+3)^0,c
  5493   0000D6                     l850:
  5494   0000D6  5020               	movf	___flmul@aexp^0,w,c
  5495   0000D8  B4D8               	btfsc	status,2,c
  5496   0000DA  EF71  F000         	goto	u1281
  5497   0000DE  EF73  F000         	goto	u1280
  5498   0000E2                     u1281:
  5499   0000E2  EF7B  F000         	goto	l2041
  5500   0000E6                     u1280:
  5501   0000E6  5021               	movf	___flmul@bexp^0,w,c
  5502   0000E8  A4D8               	btfss	status,2,c
  5503   0000EA  EF79  F000         	goto	u1291
  5504   0000EE  EF7B  F000         	goto	u1290
  5505   0000F2                     u1291:
  5506   0000F2  EF85  F000         	goto	l2045
  5507   0000F6                     u1290:
  5508   0000F6                     l2041:
  5509   0000F6  0E00               	movlw	0
  5510   0000F8  6E0F               	movwf	?___flmul^0,c
  5511   0000FA  0E00               	movlw	0
  5512   0000FC  6E10               	movwf	(?___flmul+1)^0,c
  5513   0000FE  0E00               	movlw	0
  5514   000100  6E11               	movwf	(?___flmul+2)^0,c
  5515   000102  0E00               	movlw	0
  5516   000104  6E12               	movwf	(?___flmul+3)^0,c
  5517   000106  EF1B  F002         	goto	l854
  5518   00010A                     l2045:
  5519   00010A  5015               	movf	(___flmul@a+2)^0,w,c
  5520   00010C  020F               	mulwf	___flmul@b^0,c
  5521   00010E  CFF3 F026          	movff	prodl,___flmul@temp
  5522   000112  CFF4 F027          	movff	prodh,___flmul@temp+1
  5523   000116  5026               	movf	___flmul@temp^0,w,c
  5524   000118  6E1C               	movwf	___flmul@grs^0,c
  5525   00011A  6A1D               	clrf	(___flmul@grs+1)^0,c
  5526   00011C  6A1E               	clrf	(___flmul@grs+2)^0,c
  5527   00011E  6A1F               	clrf	(___flmul@grs+3)^0,c
  5528   000120  5027               	movf	(___flmul@temp+1)^0,w,c
  5529   000122  6E22               	movwf	___flmul@prod^0,c
  5530   000124  6A23               	clrf	(___flmul@prod+1)^0,c
  5531   000126  6A24               	clrf	(___flmul@prod+2)^0,c
  5532   000128  6A25               	clrf	(___flmul@prod+3)^0,c
  5533   00012A  5014               	movf	(___flmul@a+1)^0,w,c
  5534   00012C  0210               	mulwf	(___flmul@b+1)^0,c
  5535   00012E  CFF3 F026          	movff	prodl,___flmul@temp
  5536   000132  CFF4 F027          	movff	prodh,___flmul@temp+1
  5537   000136  5026               	movf	___flmul@temp^0,w,c
  5538   000138  261C               	addwf	___flmul@grs^0,f,c
  5539   00013A  0E00               	movlw	0
  5540   00013C  221D               	addwfc	(___flmul@grs+1)^0,f,c
  5541   00013E  221E               	addwfc	(___flmul@grs+2)^0,f,c
  5542   000140  221F               	addwfc	(___flmul@grs+3)^0,f,c
  5543   000142  5027               	movf	(___flmul@temp+1)^0,w,c
  5544   000144  2622               	addwf	___flmul@prod^0,f,c
  5545   000146  0E00               	movlw	0
  5546   000148  2223               	addwfc	(___flmul@prod+1)^0,f,c
  5547   00014A  2224               	addwfc	(___flmul@prod+2)^0,f,c
  5548   00014C  2225               	addwfc	(___flmul@prod+3)^0,f,c
  5549   00014E  5013               	movf	___flmul@a^0,w,c
  5550   000150  0211               	mulwf	(___flmul@b+2)^0,c
  5551   000152  CFF3 F026          	movff	prodl,___flmul@temp
  5552   000156  CFF4 F027          	movff	prodh,___flmul@temp+1
  5553   00015A  5026               	movf	___flmul@temp^0,w,c
  5554   00015C  261C               	addwf	___flmul@grs^0,f,c
  5555   00015E  0E00               	movlw	0
  5556   000160  221D               	addwfc	(___flmul@grs+1)^0,f,c
  5557   000162  221E               	addwfc	(___flmul@grs+2)^0,f,c
  5558   000164  221F               	addwfc	(___flmul@grs+3)^0,f,c
  5559   000166  5027               	movf	(___flmul@temp+1)^0,w,c
  5560   000168  2622               	addwf	___flmul@prod^0,f,c
  5561   00016A  0E00               	movlw	0
  5562   00016C  2223               	addwfc	(___flmul@prod+1)^0,f,c
  5563   00016E  2224               	addwfc	(___flmul@prod+2)^0,f,c
  5564   000170  2225               	addwfc	(___flmul@prod+3)^0,f,c
  5565   000172  C01E  F01F         	movff	___flmul@grs+2,___flmul@grs+3
  5566   000176  C01D  F01E         	movff	___flmul@grs+1,___flmul@grs+2
  5567   00017A  C01C  F01D         	movff	___flmul@grs,___flmul@grs+1
  5568   00017E  6A1C               	clrf	___flmul@grs^0,c
  5569   000180  5013               	movf	___flmul@a^0,w,c
  5570   000182  0210               	mulwf	(___flmul@b+1)^0,c
  5571   000184  CFF3 F026          	movff	prodl,___flmul@temp
  5572   000188  CFF4 F027          	movff	prodh,___flmul@temp+1
  5573   00018C  5026               	movf	___flmul@temp^0,w,c
  5574   00018E  261C               	addwf	___flmul@grs^0,f,c
  5575   000190  5027               	movf	(___flmul@temp+1)^0,w,c
  5576   000192  221D               	addwfc	(___flmul@grs+1)^0,f,c
  5577   000194  0E00               	movlw	0
  5578   000196  221E               	addwfc	(___flmul@grs+2)^0,f,c
  5579   000198  0E00               	movlw	0
  5580   00019A  221F               	addwfc	(___flmul@grs+3)^0,f,c
  5581   00019C  5014               	movf	(___flmul@a+1)^0,w,c
  5582   00019E  020F               	mulwf	___flmul@b^0,c
  5583   0001A0  CFF3 F026          	movff	prodl,___flmul@temp
  5584   0001A4  CFF4 F027          	movff	prodh,___flmul@temp+1
  5585   0001A8  5026               	movf	___flmul@temp^0,w,c
  5586   0001AA  261C               	addwf	___flmul@grs^0,f,c
  5587   0001AC  5027               	movf	(___flmul@temp+1)^0,w,c
  5588   0001AE  221D               	addwfc	(___flmul@grs+1)^0,f,c
  5589   0001B0  0E00               	movlw	0
  5590   0001B2  221E               	addwfc	(___flmul@grs+2)^0,f,c
  5591   0001B4  0E00               	movlw	0
  5592   0001B6  221F               	addwfc	(___flmul@grs+3)^0,f,c
  5593   0001B8  C01E  F01F         	movff	___flmul@grs+2,___flmul@grs+3
  5594   0001BC  C01D  F01E         	movff	___flmul@grs+1,___flmul@grs+2
  5595   0001C0  C01C  F01D         	movff	___flmul@grs,___flmul@grs+1
  5596   0001C4  6A1C               	clrf	___flmul@grs^0,c
  5597   0001C6  5013               	movf	___flmul@a^0,w,c
  5598   0001C8  020F               	mulwf	___flmul@b^0,c
  5599   0001CA  CFF3 F026          	movff	prodl,___flmul@temp
  5600   0001CE  CFF4 F027          	movff	prodh,___flmul@temp+1
  5601   0001D2  5026               	movf	___flmul@temp^0,w,c
  5602   0001D4  261C               	addwf	___flmul@grs^0,f,c
  5603   0001D6  5027               	movf	(___flmul@temp+1)^0,w,c
  5604   0001D8  221D               	addwfc	(___flmul@grs+1)^0,f,c
  5605   0001DA  0E00               	movlw	0
  5606   0001DC  221E               	addwfc	(___flmul@grs+2)^0,f,c
  5607   0001DE  0E00               	movlw	0
  5608   0001E0  221F               	addwfc	(___flmul@grs+3)^0,f,c
  5609   0001E2  5015               	movf	(___flmul@a+2)^0,w,c
  5610   0001E4  0210               	mulwf	(___flmul@b+1)^0,c
  5611   0001E6  CFF3 F026          	movff	prodl,___flmul@temp
  5612   0001EA  CFF4 F027          	movff	prodh,___flmul@temp+1
  5613   0001EE  5026               	movf	___flmul@temp^0,w,c
  5614   0001F0  2622               	addwf	___flmul@prod^0,f,c
  5615   0001F2  5027               	movf	(___flmul@temp+1)^0,w,c
  5616   0001F4  2223               	addwfc	(___flmul@prod+1)^0,f,c
  5617   0001F6  0E00               	movlw	0
  5618   0001F8  2224               	addwfc	(___flmul@prod+2)^0,f,c
  5619   0001FA  0E00               	movlw	0
  5620   0001FC  2225               	addwfc	(___flmul@prod+3)^0,f,c
  5621   0001FE  5014               	movf	(___flmul@a+1)^0,w,c
  5622   000200  0211               	mulwf	(___flmul@b+2)^0,c
  5623   000202  CFF3 F026          	movff	prodl,___flmul@temp
  5624   000206  CFF4 F027          	movff	prodh,___flmul@temp+1
  5625   00020A  5026               	movf	___flmul@temp^0,w,c
  5626   00020C  2622               	addwf	___flmul@prod^0,f,c
  5627   00020E  5027               	movf	(___flmul@temp+1)^0,w,c
  5628   000210  2223               	addwfc	(___flmul@prod+1)^0,f,c
  5629   000212  0E00               	movlw	0
  5630   000214  2224               	addwfc	(___flmul@prod+2)^0,f,c
  5631   000216  0E00               	movlw	0
  5632   000218  2225               	addwfc	(___flmul@prod+3)^0,f,c
  5633   00021A  5015               	movf	(___flmul@a+2)^0,w,c
  5634   00021C  0211               	mulwf	(___flmul@b+2)^0,c
  5635   00021E  CFF3 F026          	movff	prodl,___flmul@temp
  5636   000222  CFF4 F027          	movff	prodh,___flmul@temp+1
  5637   000226  5026               	movf	___flmul@temp^0,w,c
  5638   000228  6E17               	movwf	??___flmul^0,c
  5639   00022A  5027               	movf	(___flmul@temp+1)^0,w,c
  5640   00022C  6E18               	movwf	(??___flmul+1)^0,c
  5641   00022E  6A19               	clrf	(??___flmul+2)^0,c
  5642   000230  6A1A               	clrf	(??___flmul+3)^0,c
  5643   000232  C019  F01A         	movff	??___flmul+2,??___flmul+3
  5644   000236  C018  F019         	movff	??___flmul+1,??___flmul+2
  5645   00023A  C017  F018         	movff	??___flmul,??___flmul+1
  5646   00023E  6A17               	clrf	??___flmul^0,c
  5647   000240  5017               	movf	??___flmul^0,w,c
  5648   000242  2622               	addwf	___flmul@prod^0,f,c
  5649   000244  5018               	movf	(??___flmul+1)^0,w,c
  5650   000246  2223               	addwfc	(___flmul@prod+1)^0,f,c
  5651   000248  5019               	movf	(??___flmul+2)^0,w,c
  5652   00024A  2224               	addwfc	(___flmul@prod+2)^0,f,c
  5653   00024C  501A               	movf	(??___flmul+3)^0,w,c
  5654   00024E  2225               	addwfc	(___flmul@prod+3)^0,f,c
  5655   000250  C01C  F017         	movff	___flmul@grs,??___flmul
  5656   000254  C01D  F018         	movff	___flmul@grs+1,??___flmul+1
  5657   000258  C01E  F019         	movff	___flmul@grs+2,??___flmul+2
  5658   00025C  C01F  F01A         	movff	___flmul@grs+3,??___flmul+3
  5659   000260  0E19               	movlw	25
  5660   000262  EF38  F001         	goto	u1300
  5661   000266                     u1305:
  5662   000266  90D8               	bcf	status,0,c
  5663   000268  321A               	rrcf	(??___flmul+3)^0,f,c
  5664   00026A  3219               	rrcf	(??___flmul+2)^0,f,c
  5665   00026C  3218               	rrcf	(??___flmul+1)^0,f,c
  5666   00026E  3217               	rrcf	??___flmul^0,f,c
  5667   000270                     u1300:
  5668   000270  2EE8               	decfsz	wreg,f,c
  5669   000272  EF33  F001         	goto	u1305
  5670   000276  5017               	movf	??___flmul^0,w,c
  5671   000278  2622               	addwf	___flmul@prod^0,f,c
  5672   00027A  5018               	movf	(??___flmul+1)^0,w,c
  5673   00027C  2223               	addwfc	(___flmul@prod+1)^0,f,c
  5674   00027E  5019               	movf	(??___flmul+2)^0,w,c
  5675   000280  2224               	addwfc	(___flmul@prod+2)^0,f,c
  5676   000282  501A               	movf	(??___flmul+3)^0,w,c
  5677   000284  2225               	addwfc	(___flmul@prod+3)^0,f,c
  5678   000286  C01E  F01F         	movff	___flmul@grs+2,___flmul@grs+3
  5679   00028A  C01D  F01E         	movff	___flmul@grs+1,___flmul@grs+2
  5680   00028E  C01C  F01D         	movff	___flmul@grs,___flmul@grs+1
  5681   000292  6A1C               	clrf	___flmul@grs^0,c
  5682   000294  5020               	movf	___flmul@aexp^0,w,c
  5683   000296  C021  F017         	movff	___flmul@bexp,??___flmul
  5684   00029A  6A18               	clrf	(??___flmul+1)^0,c
  5685   00029C  2617               	addwf	??___flmul^0,f,c
  5686   00029E  0E00               	movlw	0
  5687   0002A0  2218               	addwfc	(??___flmul+1)^0,f,c
  5688   0002A2  0E82               	movlw	130
  5689   0002A4  2417               	addwf	??___flmul^0,w,c
  5690   0002A6  6E26               	movwf	___flmul@temp^0,c
  5691   0002A8  0EFF               	movlw	255
  5692   0002AA  2018               	addwfc	(??___flmul+1)^0,w,c
  5693   0002AC  6E27               	movwf	(___flmul@temp+1)^0,c
  5694   0002AE  EF6E  F001         	goto	l2093
  5695   0002B2                     l2087:
  5696   0002B2  90D8               	bcf	status,0,c
  5697   0002B4  3622               	rlcf	___flmul@prod^0,f,c
  5698   0002B6  3623               	rlcf	(___flmul@prod+1)^0,f,c
  5699   0002B8  3624               	rlcf	(___flmul@prod+2)^0,f,c
  5700   0002BA  3625               	rlcf	(___flmul@prod+3)^0,f,c
  5701   0002BC  AE1F               	btfss	(___flmul@grs+3)^0,7,c
  5702   0002BE  EF63  F001         	goto	u1311
  5703   0002C2  EF65  F001         	goto	u1310
  5704   0002C6                     u1311:
  5705   0002C6  EF66  F001         	goto	l857
  5706   0002CA                     u1310:
  5707   0002CA  8022               	bsf	___flmul@prod^0,0,c
  5708   0002CC                     l857:
  5709   0002CC  90D8               	bcf	status,0,c
  5710   0002CE  361C               	rlcf	___flmul@grs^0,f,c
  5711   0002D0  361D               	rlcf	(___flmul@grs+1)^0,f,c
  5712   0002D2  361E               	rlcf	(___flmul@grs+2)^0,f,c
  5713   0002D4  361F               	rlcf	(___flmul@grs+3)^0,f,c
  5714   0002D6  0626               	decf	___flmul@temp^0,f,c
  5715   0002D8  A0D8               	btfss	status,0,c
  5716   0002DA  0627               	decf	(___flmul@temp+1)^0,f,c
  5717   0002DC                     l2093:
  5718   0002DC  AE24               	btfss	(___flmul@prod+2)^0,7,c
  5719   0002DE  EF73  F001         	goto	u1321
  5720   0002E2  EF75  F001         	goto	u1320
  5721   0002E6                     u1321:
  5722   0002E6  EF59  F001         	goto	l2087
  5723   0002EA                     u1320:
  5724   0002EA  6A20               	clrf	___flmul@aexp^0,c
  5725   0002EC  AE1F               	btfss	(___flmul@grs+3)^0,7,c
  5726   0002EE  EF7B  F001         	goto	u1331
  5727   0002F2  EF7D  F001         	goto	u1330
  5728   0002F6                     u1331:
  5729   0002F6  EFA1  F001         	goto	l859
  5730   0002FA                     u1330:
  5731   0002FA  0EFF               	movlw	255
  5732   0002FC  141C               	andwf	___flmul@grs^0,w,c
  5733   0002FE  6E17               	movwf	??___flmul^0,c
  5734   000300  0EFF               	movlw	255
  5735   000302  141D               	andwf	(___flmul@grs+1)^0,w,c
  5736   000304  6E18               	movwf	(??___flmul+1)^0,c
  5737   000306  0EFF               	movlw	255
  5738   000308  141E               	andwf	(___flmul@grs+2)^0,w,c
  5739   00030A  6E19               	movwf	(??___flmul+2)^0,c
  5740   00030C  0E7F               	movlw	127
  5741   00030E  141F               	andwf	(___flmul@grs+3)^0,w,c
  5742   000310  6E1A               	movwf	(??___flmul+3)^0,c
  5743   000312  5017               	movf	??___flmul^0,w,c
  5744   000314  1018               	iorwf	(??___flmul+1)^0,w,c
  5745   000316  1019               	iorwf	(??___flmul+2)^0,w,c
  5746   000318  101A               	iorwf	(??___flmul+3)^0,w,c
  5747   00031A  B4D8               	btfsc	status,2,c
  5748   00031C  EF92  F001         	goto	u1341
  5749   000320  EF94  F001         	goto	u1340
  5750   000324                     u1341:
  5751   000324  EF98  F001         	goto	l860
  5752   000328                     u1340:
  5753   000328                     l2097:
  5754   000328  0E01               	movlw	1
  5755   00032A  6E20               	movwf	___flmul@aexp^0,c
  5756   00032C  EFA1  F001         	goto	l859
  5757   000330                     l860:
  5758   000330  A022               	btfss	___flmul@prod^0,0,c
  5759   000332  EF9D  F001         	goto	u1351
  5760   000336  EF9F  F001         	goto	u1350
  5761   00033A                     u1351:
  5762   00033A  EFA1  F001         	goto	l859
  5763   00033E                     u1350:
  5764   00033E  EF94  F001         	goto	l2097
  5765   000342                     l859:
  5766   000342  5020               	movf	___flmul@aexp^0,w,c
  5767   000344  B4D8               	btfsc	status,2,c
  5768   000346  EFA7  F001         	goto	u1361
  5769   00034A  EFA9  F001         	goto	u1360
  5770   00034E                     u1361:
  5771   00034E  EFCD  F001         	goto	l2109
  5772   000352                     u1360:
  5773   000352  0E01               	movlw	1
  5774   000354  2622               	addwf	___flmul@prod^0,f,c
  5775   000356  0E00               	movlw	0
  5776   000358  2223               	addwfc	(___flmul@prod+1)^0,f,c
  5777   00035A  2224               	addwfc	(___flmul@prod+2)^0,f,c
  5778   00035C  2225               	addwfc	(___flmul@prod+3)^0,f,c
  5779   00035E  A025               	btfss	(___flmul@prod+3)^0,0,c
  5780   000360  EFB4  F001         	goto	u1371
  5781   000364  EFB6  F001         	goto	u1370
  5782   000368                     u1371:
  5783   000368  EFCD  F001         	goto	l2109
  5784   00036C                     u1370:
  5785   00036C  C022  F017         	movff	___flmul@prod,??___flmul
  5786   000370  C023  F018         	movff	___flmul@prod+1,??___flmul+1
  5787   000374  C024  F019         	movff	___flmul@prod+2,??___flmul+2
  5788   000378  C025  F01A         	movff	___flmul@prod+3,??___flmul+3
  5789   00037C  341A               	rlcf	(??___flmul+3)^0,w,c
  5790   00037E  321A               	rrcf	(??___flmul+3)^0,f,c
  5791   000380  3219               	rrcf	(??___flmul+2)^0,f,c
  5792   000382  3218               	rrcf	(??___flmul+1)^0,f,c
  5793   000384  3217               	rrcf	??___flmul^0,f,c
  5794   000386  C017  F022         	movff	??___flmul,___flmul@prod
  5795   00038A  C018  F023         	movff	??___flmul+1,___flmul@prod+1
  5796   00038E  C019  F024         	movff	??___flmul+2,___flmul@prod+2
  5797   000392  C01A  F025         	movff	??___flmul+3,___flmul@prod+3
  5798   000396  4A26               	infsnz	___flmul@temp^0,f,c
  5799   000398  2A27               	incf	(___flmul@temp+1)^0,f,c
  5800   00039A                     l2109:
  5801   00039A  BE27               	btfsc	(___flmul@temp+1)^0,7,c
  5802   00039C  EFD8  F001         	goto	u1381
  5803   0003A0  5027               	movf	(___flmul@temp+1)^0,w,c
  5804   0003A2  E108               	bnz	u1380
  5805   0003A4  2826               	incf	___flmul@temp^0,w,c
  5806   0003A6  A0D8               	btfss	status,0,c
  5807   0003A8  EFD8  F001         	goto	u1381
  5808   0003AC  EFDA  F001         	goto	u1380
  5809   0003B0                     u1381:
  5810   0003B0  EFE4  F001         	goto	l2113
  5811   0003B4                     u1380:
  5812   0003B4  0E00               	movlw	0
  5813   0003B6  6E22               	movwf	___flmul@prod^0,c
  5814   0003B8  0E00               	movlw	0
  5815   0003BA  6E23               	movwf	(___flmul@prod+1)^0,c
  5816   0003BC  0E80               	movlw	128
  5817   0003BE  6E24               	movwf	(___flmul@prod+2)^0,c
  5818   0003C0  0E7F               	movlw	127
  5819   0003C2  6E25               	movwf	(___flmul@prod+3)^0,c
  5820   0003C4  EF11  F002         	goto	l2127
  5821   0003C8                     l2113:
  5822   0003C8  BE27               	btfsc	(___flmul@temp+1)^0,7,c
  5823   0003CA  EFF1  F001         	goto	u1390
  5824   0003CE  5027               	movf	(___flmul@temp+1)^0,w,c
  5825   0003D0  E106               	bnz	u1391
  5826   0003D2  0426               	decf	___flmul@temp^0,w,c
  5827   0003D4  B0D8               	btfsc	status,0,c
  5828   0003D6  EFEF  F001         	goto	u1391
  5829   0003DA  EFF1  F001         	goto	u1390
  5830   0003DE                     u1391:
  5831   0003DE  EFFC  F001         	goto	l867
  5832   0003E2                     u1390:
  5833   0003E2  0E00               	movlw	0
  5834   0003E4  6E22               	movwf	___flmul@prod^0,c
  5835   0003E6  0E00               	movlw	0
  5836   0003E8  6E23               	movwf	(___flmul@prod+1)^0,c
  5837   0003EA  0E00               	movlw	0
  5838   0003EC  6E24               	movwf	(___flmul@prod+2)^0,c
  5839   0003EE  0E00               	movlw	0
  5840   0003F0  6E25               	movwf	(___flmul@prod+3)^0,c
  5841   0003F2  6A1B               	clrf	___flmul@sign^0,c
  5842   0003F4  EF11  F002         	goto	l2127
  5843   0003F8                     l867:
  5844   0003F8  C026  F021         	movff	___flmul@temp,___flmul@bexp
  5845   0003FC  0EFF               	movlw	255
  5846   0003FE  1622               	andwf	___flmul@prod^0,f,c
  5847   000400  0EFF               	movlw	255
  5848   000402  1623               	andwf	(___flmul@prod+1)^0,f,c
  5849   000404  0E7F               	movlw	127
  5850   000406  1624               	andwf	(___flmul@prod+2)^0,f,c
  5851   000408  0E00               	movlw	0
  5852   00040A  1625               	andwf	(___flmul@prod+3)^0,f,c
  5853   00040C  A021               	btfss	___flmul@bexp^0,0,c
  5854   00040E  EF0B  F002         	goto	u1401
  5855   000412  EF0D  F002         	goto	u1400
  5856   000416                     u1401:
  5857   000416  EF0E  F002         	goto	l2125
  5858   00041A                     u1400:
  5859   00041A  8E24               	bsf	(___flmul@prod+2)^0,7,c
  5860   00041C                     l2125:
  5861   00041C  90D8               	bcf	status,0,c
  5862   00041E  3021               	rrcf	___flmul@bexp^0,w,c
  5863   000420  6E25               	movwf	(___flmul@prod+3)^0,c
  5864   000422                     l2127:
  5865   000422  501B               	movf	___flmul@sign^0,w,c
  5866   000424  1225               	iorwf	(___flmul@prod+3)^0,f,c
  5867   000426  C022  F00F         	movff	___flmul@prod,?___flmul
  5868   00042A  C023  F010         	movff	___flmul@prod+1,?___flmul+1
  5869   00042E  C024  F011         	movff	___flmul@prod+2,?___flmul+2
  5870   000432  C025  F012         	movff	___flmul@prod+3,?___flmul+3
  5871   000436                     l854:
  5872   000436  0012               	return		;funcret
  5873   000438                     __end_of___flmul:
  5874                           	callstack 0
  5875                           
  5876 ;; *************** function __ISR *****************
  5877 ;; Defined at:
  5878 ;;		line 72 in file "main.c"
  5879 ;; Parameters:    Size  Location     Type
  5880 ;;		None
  5881 ;; Auto vars:     Size  Location     Type
  5882 ;;		None
  5883 ;; Return value:  Size  Location     Type
  5884 ;;                  1    wreg      void 
  5885 ;; Registers used:
  5886 ;;		wreg, status,2, status,0, cstack
  5887 ;; Tracked objects:
  5888 ;;		On entry : 0/0
  5889 ;;		On exit  : 0/0
  5890 ;;		Unchanged: 0/0
  5891 ;; Data sizes:     COMRAM   BANK0   BANK1   BANK2   BANK3   BANK4   BANK5
  5892 ;;      Params:         0       0       0       0       0       0       0
  5893 ;;      Locals:         0       0       0       0       0       0       0
  5894 ;;      Temps:          0       0       0       0       0       0       0
  5895 ;;      Totals:         0       0       0       0       0       0       0
  5896 ;;Total ram usage:        0 bytes
  5897 ;; Hardware stack levels used: 1
  5898 ;; Hardware stack levels required when called: 1
  5899 ;; This function calls:
  5900 ;;		_EUSART_Rx_InterruptHandler
  5901 ;; This function is called by:
  5902 ;;		Interrupt level 2
  5903 ;; This function uses a non-reentrant model
  5904 ;;
  5905                           
  5906                           	psect	intcode
  5907   000008                     __pintcode:
  5908                           	callstack 0
  5909   000008                     __ISR:
  5910                           	callstack 23
  5911                           
  5912                           ;incstack = 0
  5913   000008  824C               	bsf	int$flags,1,c	;set compiler interrupt flag (level 2)
  5914   00000A  EDE6  F009         	call	int_func,f	;refresh shadow registers
  5915                           
  5916                           	psect	intcode_body
  5917   0013CC                     __pintcode_body:
  5918                           	callstack 23
  5919   0013CC                     int_func:
  5920                           	callstack 23
  5921   0013CC  0006               	pop		; remove dummy address from shadow register refresh
  5922   0013CE                     
  5923                           ;main.c: 73:     if (PIR1bits.RCIF) {
  5924   0013CE  AA9E               	btfss	158,5,c	;volatile
  5925   0013D0  EFEC  F009         	goto	i2u80_41
  5926   0013D4  EFEE  F009         	goto	i2u80_40
  5927   0013D8                     i2u80_41:
  5928   0013D8  EFF0  F009         	goto	i2l1663
  5929   0013DC                     i2u80_40:
  5930   0013DC                     
  5931                           ;main.c: 74:         EUSART_Rx_InterruptHandler();
  5932   0013DC  EC36  F00B         	call	_EUSART_Rx_InterruptHandler	;wreg free
  5933   0013E0                     i2l1663:
  5934                           
  5935                           ;main.c: 77:     if (PIR1bits.TMR2IF) {
  5936   0013E0  A29E               	btfss	158,1,c	;volatile
  5937   0013E2  EFF5  F009         	goto	i2u81_41
  5938   0013E6  EFF7  F009         	goto	i2u81_40
  5939   0013EA                     i2u81_41:
  5940   0013EA  EF0D  F00A         	goto	i2l184
  5941   0013EE                     i2u81_40:
  5942   0013EE                     
  5943                           ;main.c: 78:         PIR1bits.TMR2IF = 0;
  5944   0013EE  929E               	bcf	158,1,c	;volatile
  5945   0013F0                     
  5946                           ;main.c: 80:         if (tone_toggle_count > 0) {
  5947   0013F0  5041               	movf	_tone_toggle_count^0,w,c	;volatile
  5948   0013F2  1042               	iorwf	(_tone_toggle_count+1)^0,w,c	;volatile
  5949   0013F4  1043               	iorwf	(_tone_toggle_count+2)^0,w,c	;volatile
  5950   0013F6  1044               	iorwf	(_tone_toggle_count+3)^0,w,c	;volatile
  5951   0013F8  B4D8               	btfsc	status,2,c
  5952   0013FA  EF01  F00A         	goto	i2u82_41
  5953   0013FE  EF03  F00A         	goto	i2u82_40
  5954   001402                     i2u82_41:
  5955   001402  EF0B  F00A         	goto	i2l182
  5956   001406                     i2u82_40:
  5957   001406                     
  5958                           ;main.c: 81:             LATDbits.LATD1 ^= 1;
  5959   001406  728C               	btg	140,1,c	;volatile
  5960                           
  5961                           ;main.c: 82:             tone_toggle_count--;
  5962   001408  0641               	decf	_tone_toggle_count^0,f,c	;volatile
  5963   00140A  0E00               	movlw	0
  5964   00140C  5A42               	subwfb	(_tone_toggle_count+1)^0,f,c	;volatile
  5965   00140E  5A43               	subwfb	(_tone_toggle_count+2)^0,f,c	;volatile
  5966   001410  5A44               	subwfb	(_tone_toggle_count+3)^0,f,c	;volatile
  5967                           
  5968                           ;main.c: 83:         } else {
  5969   001412  EF0D  F00A         	goto	i2l184
  5970   001416                     i2l182:
  5971                           
  5972                           ;main.c: 84:             T2CONbits.TMR2ON = 0;
  5973   001416  94CA               	bcf	202,2,c	;volatile
  5974                           
  5975                           ;main.c: 85:             LATDbits.LATD1 = 0;
  5976   001418  928C               	bcf	140,1,c	;volatile
  5977   00141A                     i2l184:
  5978   00141A  924C               	bcf	int$flags,1,c	;clear compiler interrupt flag (level 2)
  5979   00141C  0011               	retfie		f
  5980   00141E                     __end_of__ISR:
  5981                           	callstack 0
  5982                           
  5983 ;; *************** function _EUSART_Rx_InterruptHandler *****************
  5984 ;; Defined at:
  5985 ;;		line 71 in file "./EUSART.h"
  5986 ;; Parameters:    Size  Location     Type
  5987 ;;		None
  5988 ;; Auto vars:     Size  Location     Type
  5989 ;;		None
  5990 ;; Return value:  Size  Location     Type
  5991 ;;                  1    wreg      void 
  5992 ;; Registers used:
  5993 ;;		wreg, status,2
  5994 ;; Tracked objects:
  5995 ;;		On entry : 0/0
  5996 ;;		On exit  : 0/0
  5997 ;;		Unchanged: 0/0
  5998 ;; Data sizes:     COMRAM   BANK0   BANK1   BANK2   BANK3   BANK4   BANK5
  5999 ;;      Params:         0       0       0       0       0       0       0
  6000 ;;      Locals:         0       0       0       0       0       0       0
  6001 ;;      Temps:          0       0       0       0       0       0       0
  6002 ;;      Totals:         0       0       0       0       0       0       0
  6003 ;;Total ram usage:        0 bytes
  6004 ;; Hardware stack levels used: 1
  6005 ;; This function calls:
  6006 ;;		Nothing
  6007 ;; This function is called by:
  6008 ;;		__ISR
  6009 ;; This function uses a non-reentrant model
  6010 ;;
  6011                           
  6012                           	psect	text34
  6013   00166C                     __ptext34:
  6014                           	callstack 0
  6015   00166C                     _EUSART_Rx_InterruptHandler:
  6016                           	callstack 23
  6017   00166C                     
  6018                           ;./EUSART.h: 72:     rxData = RCREG;
  6019   00166C  CFAE F04B          	movff	4014,_rxData	;volatile
  6020   001670                     
  6021                           ;./EUSART.h: 73:     rxFlag = 1;
  6022   001670  0E01               	movlw	1
  6023   001672  6E4A               	movwf	_rxFlag^0,c	;volatile
  6024   001674  0012               	return		;funcret
  6025   001676                     __end_of_EUSART_Rx_InterruptHandler:
  6026                           	callstack 0
  6027                           
  6028                           	psect	rparam
  6029   000001                     ___rparam_used  equ	1
  6030   000000                     ___param_bank   equ	0
  6031   000000                     __Lparam        equ	__Lrparam
  6032   000000                     __Hparam        equ	__Hrparam
  6033                           
  6034                           	psect	temp
  6035   00004C                     btemp:
  6036                           	callstack 0
  6037   00004C                     	ds	1
  6038   00004C                     int$flags       set	btemp
  6039   00004D                     wtemp8          set	btemp+1
  6040   00004D                     ttemp5          set	btemp+1
  6041   000050                     ttemp6          set	btemp+4
  6042   000054                     ttemp7          set	btemp+8
  6043                           
  6044                           	psect	config
  6045                           
  6046                           ; Padding undefined space
  6047   300000                     	org	3145728
  6048   300000  FF                 	db	255
  6049                           
  6050                           ;Config register CONFIG1H @ 0x300001
  6051                           ;	Oscillator Selection bits
  6052                           ;	OSC = IRCIO67, Internal oscillator block, port function on RA6 and RA7
  6053                           ;	Fail-Safe Clock Monitor Enable bit
  6054                           ;	FCMEN = OFF, Fail-Safe Clock Monitor disabled
  6055                           ;	Internal/External Oscillator Switchover bit
  6056                           ;	IESO = OFF, Oscillator Switchover mode disabled
  6057   300001                     	org	3145729
  6058   300001  08                 	db	8
  6059                           
  6060                           ;Config register CONFIG2L @ 0x300002
  6061                           ;	Power-up Timer Enable bit
  6062                           ;	PWRT = OFF, PWRT disabled
  6063                           ;	Brown-out Reset Enable bits
  6064                           ;	BOREN = OFF, Brown-out Reset disabled in hardware and software
  6065                           ;	Brown-out Reset Voltage bits
  6066                           ;	BORV = 3, VBOR set to 2.1V
  6067   300002                     	org	3145730
  6068   300002  19                 	db	25
  6069                           
  6070                           ;Config register CONFIG2H @ 0x300003
  6071                           ;	Watchdog Timer Enable bit
  6072                           ;	WDT = OFF, WDT disabled (control is placed on the SWDTEN bit)
  6073                           ;	Watchdog Timer Postscale Select bits
  6074                           ;	WDTPS = 32768, 1:32768
  6075   300003                     	org	3145731
  6076   300003  1E                 	db	30
  6077                           
  6078                           ; Padding undefined space
  6079   300004                     	org	3145732
  6080   300004  FF                 	db	255
  6081                           
  6082                           ;Config register CONFIG3H @ 0x300005
  6083                           ;	PORTB A/D Enable bit
  6084                           ;	PBADEN = ON, PORTB<4:0> pins are configured as analog input channels on Reset
  6085                           ;	Low-Power Timer 1 Oscillator Enable bit
  6086                           ;	LPT1OSC = OFF, Timer1 configured for higher power operation
  6087                           ;	MCLR Pin Enable bit
  6088                           ;	MCLRE = OFF, RE3 input pin enabled; MCLR disabled
  6089   300005                     	org	3145733
  6090   300005  02                 	db	2
  6091                           
  6092                           ;Config register CONFIG4L @ 0x300006
  6093                           ;	Stack Full/Underflow Reset Enable bit
  6094                           ;	STVREN = ON, Stack full/underflow will cause Reset
  6095                           ;	Single-Supply ICSP Enable bit
  6096                           ;	LVP = OFF, Single-Supply ICSP disabled
  6097                           ;	Boot Block Size Select bit
  6098                           ;	BBSIZ = 1024, 1K words (2K bytes) boot block
  6099                           ;	Extended Instruction Set Enable bit
  6100                           ;	XINST = OFF, Instruction set extension and Indexed Addressing mode disabled (Legacy mo
      +                          de)
  6101                           ;	Background Debugger Enable bit
  6102                           ;	DEBUG = 0x1, unprogrammed default
  6103   300006                     	org	3145734
  6104   300006  81                 	db	129
  6105                           
  6106                           ; Padding undefined space
  6107   300007                     	org	3145735
  6108   300007  FF                 	db	255
  6109                           
  6110                           ;Config register CONFIG5L @ 0x300008
  6111                           ;	Code Protection bit
  6112                           ;	CP0 = OFF, Block 0 (000800-001FFFh) not code-protected
  6113                           ;	Code Protection bit
  6114                           ;	CP1 = OFF, Block 1 (002000-003FFFh) not code-protected
  6115                           ;	Code Protection bit
  6116                           ;	CP2 = OFF, Block 2 (004000-005FFFh) not code-protected
  6117                           ;	Code Protection bit
  6118                           ;	CP3 = OFF, Block 3 (006000-007FFFh) not code-protected
  6119   300008                     	org	3145736
  6120   300008  0F                 	db	15
  6121                           
  6122                           ;Config register CONFIG5H @ 0x300009
  6123                           ;	Boot Block Code Protection bit
  6124                           ;	CPB = OFF, Boot block (000000-0007FFh) not code-protected
  6125                           ;	Data EEPROM Code Protection bit
  6126                           ;	CPD = OFF, Data EEPROM not code-protected
  6127   300009                     	org	3145737
  6128   300009  C0                 	db	192
  6129                           
  6130                           ;Config register CONFIG6L @ 0x30000A
  6131                           ;	Write Protection bit
  6132                           ;	WRT0 = OFF, Block 0 (000800-001FFFh) not write-protected
  6133                           ;	Write Protection bit
  6134                           ;	WRT1 = OFF, Block 1 (002000-003FFFh) not write-protected
  6135                           ;	Write Protection bit
  6136                           ;	WRT2 = OFF, Block 2 (004000-005FFFh) not write-protected
  6137                           ;	Write Protection bit
  6138                           ;	WRT3 = OFF, Block 3 (006000-007FFFh) not write-protected
  6139   30000A                     	org	3145738
  6140   30000A  0F                 	db	15
  6141                           
  6142                           ;Config register CONFIG6H @ 0x30000B
  6143                           ;	Configuration Register Write Protection bit
  6144                           ;	WRTC = OFF, Configuration registers (300000-3000FFh) not write-protected
  6145                           ;	Boot Block Write Protection bit
  6146                           ;	WRTB = OFF, Boot block (000000-0007FFh) not write-protected
  6147                           ;	Data EEPROM Write Protection bit
  6148                           ;	WRTD = OFF, Data EEPROM not write-protected
  6149   30000B                     	org	3145739
  6150   30000B  E0                 	db	224
  6151                           
  6152                           ;Config register CONFIG7L @ 0x30000C
  6153                           ;	Table Read Protection bit
  6154                           ;	EBTR0 = OFF, Block 0 (000800-001FFFh) not protected from table reads executed in other
      +                           blocks
  6155                           ;	Table Read Protection bit
  6156                           ;	EBTR1 = OFF, Block 1 (002000-003FFFh) not protected from table reads executed in other
      +                           blocks
  6157                           ;	Table Read Protection bit
  6158                           ;	EBTR2 = OFF, Block 2 (004000-005FFFh) not protected from table reads executed in other
      +                           blocks
  6159                           ;	Table Read Protection bit
  6160                           ;	EBTR3 = OFF, Block 3 (006000-007FFFh) not protected from table reads executed in other
      +                           blocks
  6161   30000C                     	org	3145740
  6162   30000C  0F                 	db	15
  6163                           
  6164                           ;Config register CONFIG7H @ 0x30000D
  6165                           ;	Boot Block Table Read Protection bit
  6166                           ;	EBTRB = OFF, Boot block (000000-0007FFh) not protected from table reads executed in ot
      +                          her blocks
  6167   30000D                     	org	3145741
  6168   30000D  40                 	db	64
  6169                           tosu	equ	0xFFF
  6170                           tosh	equ	0xFFE
  6171                           tosl	equ	0xFFD
  6172                           stkptr	equ	0xFFC
  6173                           pclatu	equ	0xFFB
  6174                           pclath	equ	0xFFA
  6175                           pcl	equ	0xFF9
  6176                           tblptru	equ	0xFF8
  6177                           tblptrh	equ	0xFF7
  6178                           tblptrl	equ	0xFF6
  6179                           tablat	equ	0xFF5
  6180                           prodh	equ	0xFF4
  6181                           prodl	equ	0xFF3
  6182                           indf0	equ	0xFEF
  6183                           postinc0	equ	0xFEE
  6184                           postdec0	equ	0xFED
  6185                           preinc0	equ	0xFEC
  6186                           plusw0	equ	0xFEB
  6187                           fsr0h	equ	0xFEA
  6188                           fsr0l	equ	0xFE9
  6189                           wreg	equ	0xFE8
  6190                           indf1	equ	0xFE7
  6191                           postinc1	equ	0xFE6
  6192                           postdec1	equ	0xFE5
  6193                           preinc1	equ	0xFE4
  6194                           plusw1	equ	0xFE3
  6195                           fsr1h	equ	0xFE2
  6196                           fsr1l	equ	0xFE1
  6197                           bsr	equ	0xFE0
  6198                           indf2	equ	0xFDF
  6199                           postinc2	equ	0xFDE
  6200                           postdec2	equ	0xFDD
  6201                           preinc2	equ	0xFDC
  6202                           plusw2	equ	0xFDB
  6203                           fsr2h	equ	0xFDA
  6204                           fsr2l	equ	0xFD9
  6205                           status	equ	0xFD8

Data Sizes:
    Strings     7
    Constant    480
    Data        0
    BSS         43
    Persistent  0
    Stack       0

Auto Spaces:
    Space          Size  Autos    Used
    COMRAM           94     64      75
    BANK0           160      0      32
    BANK1           256      0       0
    BANK2           256      0       0
    BANK3           256      0       0
    BANK4           256      0       0
    BANK5           256      0       0

Pointer List with Targets:

    f$.$buffer	PTR unsigned char  size(1) Largest target is 7
		 -> UpdateScreen@a(COMRAM[7]), 

    f$.$source	PTR const unsigned char  size(2) Largest target is 0

    fputc@fp	PTR struct _IO_FILE size(1) Largest target is 11
		 -> sprintf@f(COMRAM[11]), 

    fputc@fp$.$buffer	PTR unsigned char  size(1) Largest target is 7
		 -> UpdateScreen@a(COMRAM[7]), 

    fputc@fp$.$source	PTR const unsigned char  size(2) Largest target is 0

    memcpy@d	PTR unsigned char  size(1) Largest target is 5
		 -> SSD1306_String@pixData(COMRAM[5]), 

    memcpy@d1	PTR void  size(1) Largest target is 5
		 -> SSD1306_String@pixData(COMRAM[5]), 

    memcpy@s	PTR const unsigned char  size(2) Largest target is 480
		 -> TEXT5x8(CODE[480]), 

    memcpy@s1	PTR const void  size(2) Largest target is 480
		 -> TEXT5x8(CODE[480]), 

    S1054$buffer	PTR unsigned char  size(1) Largest target is 7
		 -> UpdateScreen@a(COMRAM[7]), 

    S1054$source	PTR const unsigned char  size(2) Largest target is 0

    SendString@str	PTR unsigned char  size(1) Largest target is 7
		 -> UpdateScreen@a(COMRAM[7]), 

    sp__memcpy	PTR void  size(1) Largest target is 5
		 -> SSD1306_String@pixData(COMRAM[5]), 

    sprintf@ap	PTR void [1] size(1) Largest target is 2
		 -> ?_sprintf(COMRAM[2]), 

    sprintf@fmt	PTR const unsigned char  size(2) Largest target is 7
		 -> STR_1(CODE[7]), 

    sprintf@s	PTR unsigned char  size(1) Largest target is 7
		 -> UpdateScreen@a(COMRAM[7]), 

    SSD1306_String@data	PTR const unsigned char  size(1) Largest target is 7
		 -> UpdateScreen@a(COMRAM[7]), 

    vfpfcnvrt@ap	PTR PTR void  size(1) Largest target is 1
		 -> sprintf@ap(COMRAM[1]), 

    vfpfcnvrt@cp	PTR unsigned char  size(2) Largest target is 7
		 -> STR_1(CODE[7]), 

    vfpfcnvrt@fmt	PTR PTR unsigned char  size(1) Largest target is 2
		 -> vfprintf@cfmt(COMRAM[2]), 

    vfpfcnvrt@fp	PTR struct _IO_FILE size(1) Largest target is 11
		 -> sprintf@f(COMRAM[11]), 

    vfprintf@ap	PTR PTR void  size(1) Largest target is 1
		 -> sprintf@ap(COMRAM[1]), 

    vfprintf@cfmt	PTR unsigned char  size(2) Largest target is 7
		 -> STR_1(CODE[7]), 

    vfprintf@fmt	PTR const unsigned char  size(2) Largest target is 7
		 -> STR_1(CODE[7]), 

    vfprintf@fp	PTR struct _IO_FILE size(1) Largest target is 11
		 -> sprintf@f(COMRAM[11]), 


Critical Paths under _main in COMRAM

    _main->_GetDistance
    _playNotes->_tone
    _playHappyTone->_tone
    _playConfusedTone->_tone
    _tone->___lldiv
    ___lldiv->___lmul
    _UpdateScreen->_sprintf
    _sprintf->_vfprintf
    _vfprintf->_vfpfcnvrt
    _vfpfcnvrt->_fputc
    _SendString->_SendByte
    _SSD1306_String->_memcpy
    _SSD1306_GotoStart->_I2C_Write
    _SSD1306_ClearScreen->_I2C_Write
    _SSD1306_Init->_SSD1306_WriteCommand
    _SSD1306_WriteCommand->_I2C_Write
    _I2C_Write->_I2C_Hold
    _I2C_Stop->_I2C_Hold
    _I2C_Start->_I2C_Hold
    _GetDistance->___fltol
    ___fltol->___flmul
    ___flmul->___xxtofl

Critical Paths under __ISR in COMRAM

    None.

Critical Paths under _main in BANK0

    None.

Critical Paths under __ISR in BANK0

    None.

Critical Paths under _main in BANK1

    None.

Critical Paths under __ISR in BANK1

    None.

Critical Paths under _main in BANK2

    None.

Critical Paths under __ISR in BANK2

    None.

Critical Paths under _main in BANK3

    None.

Critical Paths under __ISR in BANK3

    None.

Critical Paths under _main in BANK4

    None.

Critical Paths under __ISR in BANK4

    None.

Critical Paths under _main in BANK5

    None.

Critical Paths under __ISR in BANK5

    None.

Call Graph Tables:

 ---------------------------------------------------------------------------------
 (Depth) Function   	        Calls       Base Space   Used Autos Params    Refs
 ---------------------------------------------------------------------------------
 (0) _main                                                 7     7      0    6243
                                             57 COMRAM     7     7      0
                        _GetDistance
                           _I2C_Init
                _SSD1306_ClearScreen
                       _SSD1306_Init
                           _SendByte
                         _USART_Init
                       _UpdateScreen
                   _playConfusedTone
                      _playHappyTone
                          _playNotes
 ---------------------------------------------------------------------------------
 (1) _playNotes                                            2     2      0     594
                                             42 COMRAM     2     2      0
                               _tone
 ---------------------------------------------------------------------------------
 (1) _playHappyTone                                        1     1      0     594
                                             42 COMRAM     1     1      0
                               _tone
 ---------------------------------------------------------------------------------
 (1) _playConfusedTone                                     1     1      0     594
                                             42 COMRAM     1     1      0
                               _tone
 ---------------------------------------------------------------------------------
 (2) _tone                                                17    13      4     594
                                             25 COMRAM    17    13      4
                            ___lldiv
                             ___lmul
 ---------------------------------------------------------------------------------
 (3) ___lmul                                              12     4      8      94
                                              0 COMRAM    12     4      8
 ---------------------------------------------------------------------------------
 (3) ___lldiv                                             13     5      8     166
                                             12 COMRAM    13     5      8
                             ___lmul (ARG)
 ---------------------------------------------------------------------------------
 (1) _UpdateScreen                                         9     7      2    2014
                                             43 COMRAM     9     7      2
                _SSD1306_ClearScreen
                  _SSD1306_GotoStart
                     _SSD1306_String
                         _SendString
                            _sprintf
 ---------------------------------------------------------------------------------
 (2) _sprintf                                             19    14      5    1329
                                             26 COMRAM    17    12      5
                           _vfprintf
 ---------------------------------------------------------------------------------
 (3) _vfprintf                                             6     2      4    1128
                                             20 COMRAM     6     2      4
                          _vfpfcnvrt
 ---------------------------------------------------------------------------------
 (4) _vfpfcnvrt                                           13    10      3    1003
                                              8 COMRAM    12     9      3
                            ___lwdiv
                            ___lwmod
                              _fputc
 ---------------------------------------------------------------------------------
 (5) _fputc                                                8     5      3     230
                                              0 COMRAM     8     5      3
                              _putch
 ---------------------------------------------------------------------------------
 (6) _putch                                                1     1      0       0
 ---------------------------------------------------------------------------------
 (5) ___lwmod                                              5     1      4     161
                                              0 COMRAM     5     1      4
 ---------------------------------------------------------------------------------
 (5) ___lwdiv                                              7     3      4     164
                                              0 COMRAM     7     3      4
 ---------------------------------------------------------------------------------
 (2) _SendString                                           1     0      1      61
                                              1 COMRAM     1     0      1
                           _SendByte
 ---------------------------------------------------------------------------------
 (3) _SendByte                                             1     1      0      15
                                              0 COMRAM     1     1      0
 ---------------------------------------------------------------------------------
 (2) _SSD1306_String                                      15    14      1     436
                                              9 COMRAM    15    14      1
                          _I2C_Start
                           _I2C_Stop
                          _I2C_Write
                             _memcpy
 ---------------------------------------------------------------------------------
 (3) _memcpy                                               9     4      5     149
                                              0 COMRAM     9     4      5
 ---------------------------------------------------------------------------------
 (2) _SSD1306_GotoStart                                    0     0      0      15
                          _I2C_Start
                           _I2C_Stop
                          _I2C_Write
 ---------------------------------------------------------------------------------
 (2) _SSD1306_ClearScreen                                  4     4      0      75
                                              2 COMRAM     4     4      0
                          _I2C_Start
                           _I2C_Stop
                          _I2C_Write
 ---------------------------------------------------------------------------------
 (1) _USART_Init                                           0     0      0       0
 ---------------------------------------------------------------------------------
 (1) _SSD1306_Init                                         2     2      0      45
                                              3 COMRAM     2     2      0
                          _I2C_Start
                           _I2C_Stop
                          _I2C_Write
               _SSD1306_WriteCommand
 ---------------------------------------------------------------------------------
 (2) _SSD1306_WriteCommand                                 1     1      0      30
                                              2 COMRAM     1     1      0
                          _I2C_Start
                           _I2C_Stop
                          _I2C_Write
 ---------------------------------------------------------------------------------
 (3) _I2C_Write                                            1     1      0      15
                                              1 COMRAM     1     1      0
                           _I2C_Hold
 ---------------------------------------------------------------------------------
 (3) _I2C_Stop                                             0     0      0       0
                           _I2C_Hold
 ---------------------------------------------------------------------------------
 (3) _I2C_Start                                            0     0      0       0
                           _I2C_Hold
 ---------------------------------------------------------------------------------
 (4) _I2C_Hold                                             1     1      0       0
                                              0 COMRAM     1     1      0
 ---------------------------------------------------------------------------------
 (1) _I2C_Init                                             0     0      0       0
 ---------------------------------------------------------------------------------
 (1) _GetDistance                                          8     6      2    2083
                                             49 COMRAM     8     6      2
                            ___flmul
                            ___fltol
                           ___xxtofl
 ---------------------------------------------------------------------------------
 (2) ___xxtofl                                            14    10      4     337
                                              0 COMRAM    14    10      4
 ---------------------------------------------------------------------------------
 (2) ___fltol                                             10     6      4     230
                                             39 COMRAM    10     6      4
                            ___flmul (ARG)
                           ___xxtofl (ARG)
 ---------------------------------------------------------------------------------
 (2) ___flmul                                             25    17      8    1468
                                             14 COMRAM    25    17      8
                           ___xxtofl (ARG)
 ---------------------------------------------------------------------------------
 Estimated maximum stack depth 6
 ---------------------------------------------------------------------------------
 (Depth) Function   	        Calls       Base Space   Used Autos Params    Refs
 ---------------------------------------------------------------------------------
 (7) __ISR                                                 0     0      0       0
         _EUSART_Rx_InterruptHandler
 ---------------------------------------------------------------------------------
 (8) _EUSART_Rx_InterruptHandler                           0     0      0       0
 ---------------------------------------------------------------------------------
 Estimated maximum stack depth 8
 ---------------------------------------------------------------------------------

 Call Graph Graphs:

 _main (ROOT)
   _GetDistance
     ___flmul
       ___xxtofl (ARG)
     ___fltol
       ___flmul (ARG)
       ___xxtofl (ARG)
     ___xxtofl
   _I2C_Init
   _SSD1306_ClearScreen
     _I2C_Start
       _I2C_Hold
     _I2C_Stop
       _I2C_Hold
     _I2C_Write
       _I2C_Hold
   _SSD1306_Init
     _I2C_Start
     _I2C_Stop
     _I2C_Write
     _SSD1306_WriteCommand
       _I2C_Start
       _I2C_Stop
       _I2C_Write
   _SendByte
   _USART_Init
   _UpdateScreen
     _SSD1306_ClearScreen
     _SSD1306_GotoStart
       _I2C_Start
       _I2C_Stop
       _I2C_Write
     _SSD1306_String
       _I2C_Start
       _I2C_Stop
       _I2C_Write
       _memcpy
     _SendString
       _SendByte
     _sprintf
       _vfprintf
         _vfpfcnvrt
           ___lwdiv
           ___lwmod
           _fputc
             _putch
   _playConfusedTone
     _tone
       ___lldiv
         ___lmul (ARG)
       ___lmul
   _playHappyTone
     _tone
   _playNotes
     _tone

 __ISR (ROOT)
   _EUSART_Rx_InterruptHandler

Address spaces:
Name               Size   Autos  Total    Usage
BIGRAM            1535      0       0      0.0%
BITBIGSFRllll      643      0       0      0.0%
BITBANK5           256      0       0      0.0%
BANK5              256      0       0      0.0%
BITBANK4           256      0       0      0.0%
BANK4              256      0       0      0.0%
BITBANK3           256      0       0      0.0%
BANK3              256      0       0      0.0%
BITBANK2           256      0       0      0.0%
BANK2              256      0       0      0.0%
BITBANK1           256      0       0      0.0%
BANK1              256      0       0      0.0%
BITBANK0           160      0       0      0.0%
BANK0              160      0      32     20.0%
BITCOMRAM           94      0       0      0.0%
COMRAM              94     64      75     79.8%
BITBIGSFRh          82      0       0      0.0%
BITBIGSFRllh        17      0       0      0.0%
BITBIGSFRlh         14      0       0      0.0%
BITBIGSFRlllh        8      0       0      0.0%
STACK                0      0       0      0.0%
DATA                 0      0     107      0.0%


Microchip Technology PIC18 Macro Assembler V3.00 build 20241204225717 
Symbol Table                                                                                   Mon Nov 10 00:24:45 2025

                                l95 166A                 __end_of_GetDistance 102A  
                               l101 15C2                                 l110 1638  
                               l104 164E                                 l200 078E  
                               l113 1646                                 l122 15FE  
                               l107 165C                                 l116 160A  
                               l212 0F78                                 l125 0DC6  
                               l118 1618                                 l119 161A  
                               l215 1178                                 l152 15E0  
                               l128 14E2                                 l145 12FC  
                               l209 0BC6                                 l225 0A42  
                               l138 0EAE                                 l155 161E  
                               l164 1576                                 l190 0F98  
                               l158 1630                                 l270 121C  
                               l263 120C                                 l247 1356  
                               l192 0FA6                                 l248 1366  
                               l193 0FA8                                 l195 0FB6  
                               l187 154C                                 l196 1028  
                               l533 0CCC                                 l199 0602  
                               l734 1290                                 l727 1288  
                               l744 13CA                                 l920 151A  
                               l905 0582                                 l913 1466  
                               l737 13C2                                 l850 00D6  
                               l860 0330                                 l854 0436  
                               l857 02CC                                 l858 02EA  
                               l867 03F8                                 l859 0342  
                               l891 048E                                 l964 14A8  
                               l957 0914                                 l894 05EA  
                               l976 10D2                                 l898 0526  
                               l987 1676                                 u110 15B4  
                               u111 15B0                                 u120 15C2  
                               u200 1618                                 u121 15BE  
                               u201 1614                                 u220 162C  
                               u221 1628                                 u320 12D8  
                               u321 12D4                                 u330 12F8  
                               u331 12F4                                 u180 165C  
                               u181 1658                                 u190 1646  
                               _PR2 0FCB                                 u191 1642  
                               _PEN 7E2A                                 u900 1238  
                               _SEN 7E28                                 u901 1234  
                               u910 1256                                 u911 1252  
                               u920 1272                                 u921 126E  
                               u930 137A                                 u931 1376  
                               u940 1398                                 u941 1394  
                               u950 13AE                                 u951 13AA  
                               u960 103A                                 u961 1036  
                               _RX9 7D5E                                 u970 104A  
                               u971 1046                                 u980 1070  
                               u981 106C                                 u990 10A2  
                               u991 109E                                 _TX9 7D66  
      __end_of_SSD1306_WriteCommand 1600                                 wreg 0FE8  
                      ___flmul@aexp 0020                        ___flmul@bexp 0021  
                      ___flmul@sign 001B                        ___flmul@temp 0026  
                      ___flmul@prod 0022                        ___fltol@exp1 0031  
                              l1101 1602                                l1103 1606  
                              l1041 159E                                l1201 12A2  
                              l2001 0784                                l2011 002E  
                              l1043 159E                                l2003 078C  
                              l2101 0352                                l2021 0074  
                              l2013 003E                                l2005 0012  
                              l1045 15B4                                l1221 12DC  
                              l1213 12B2                                l1117 161E  
                              l2111 03B4                                l2103 035E  
                              l2031 00A0                                l2023 007A  
                              l2015 004E                                l2007 001E  
                              l1223 12F8                                l1215 12B8  
                              l1207 12AA                                l1119 162C  
                              l2121 040C                                l2113 03C8  
                              l2105 036C                                l2041 00F6  
                              l2033 00B0                                l2025 0080  
                              l2017 005E                                l2009 002C  
                              l2201 0558                                l1217 12BC  
                              l2123 041A                                l2115 03E2  
                              l2107 0396                                l2051 0136  
                              l2035 00C0                                l2027 008E  
                              l2019 0064                                l2211 0596  
                              l2203 0564                                l1163 15E4  
                              l1219 12D8                                l2125 041C  
                              l2117 03F2                                l2109 039A  
                              l2061 0180                                l2053 0142  
                              l2045 010A                                l2037 00C6  
                              l2029 0090                                l2141 0C1C  
                              l2133 0BC8                                l2213 05BA  
                              l2205 0572                                l1093 1648  
                              l1165 14AA                                l2301 111C  
                              l2119 03FC                                l2127 0422  
                              l2071 01D2                                l2063 018C  
                              l2055 015A                                l2047 0116  
                              l2039 00E6                                l2143 0C1E  
                              l2135 0BDE                                l2215 05CA  
                              l2207 0590                                l2231 0F7A  
                              l1511 1668                                l1095 164C  
                              l2223 151C                                l2303 1130  
                              l2311 0922                                l2129 0426  
                              l2081 0250                                l2073 01E2  
                              l2065 019C                                l2057 0166  
                              l2049 0120                                l2145 0C2E  
                              l2217 05D8                                l2209 0592  
                              l2241 0F8A                                l2233 0F82  
                              l1097 1632                                l1521 0D98  
                              l1513 0CCE                                l2225 1524  
                              l2305 1154                                l2321 092C  
                              l2313 0924                                l2091 02CA  
                              l2083 0286                                l2075 01FE  
                              l2067 01A8                                l2059 0172  
                              l2171 0CAC                                l2155 0C58  
                              l2147 0C32                                l2139 0BF2  
                              l2219 05DA                                l2251 0FCE  
                              l2243 0F8C                                l2235 0F84  
                              l1507 165E                                l1099 1636  
                              l1531 0DB6                                l1523 0D9E  
                              l1515 0D78                                l2227 153C  
                              l2307 1164                                l2331 093A  
                              l2323 0932                                l2315 0926  
                              l2093 02DC                                l2085 0294  
                              l2077 020A                                l2069 01B8  
                              l2173 0CBC                                l2165 0C80  
                              l2157 0C62                                l2149 0C40  
                              l2181 0458                                l2253 1020  
                              l2245 0F8E                                l2237 0F86  
                              l1509 1662                                l1533 0DBC  
                              l1525 0DA4                                l1517 0D8E  
                              l1541 15CA                                l2229 1544  
                              l2261 0AB6                                l2341 0970  
                              l2333 093C                                l2325 0934  
                              l2317 0928                                l2309 0916  
                              l2095 02FA                                l2087 02B2  
                              l2079 0226                                l2167 0C8C  
                              l2159 0C6C                                l2191 04D0  
                              l2183 049E                                l2247 0F96  
                              l2239 0F88                                l1535 0DC2  
                              l1527 0DAA                                l1519 0D92  
                              l1551 15D4                                l1543 15CC  
                              l1199 1292                                l2271 0B5E  
                              l2263 0AE0                                l2351 09B2  
                              l2343 0986                                l2335 0952  
                              l2327 0936                                l2319 092A  
                              l2097 0328                                l2089 02BC  
                              l2169 0C9C                                l2193 04DC  
                              l2185 04B4                                l2177 043A  
                              l2249 0FB8                                l1529 0DB0  
                              l1561 15DE                                l1553 15D6  
                              l1545 15CE                                l1537 15C4  
                              l1801 1054                                l2281 0EC4  
                              l2273 0B72                                l2265 0AF4  
                              l2257 0A8C                                l2361 09D2  
                              l2353 09B4                                l2345 098A  
                              l2337 0956                                l2329 0938  
                              l2195 050E                                l2179 044A  
                              l1555 15D8                                l1547 15D0  
                              l1539 15C8                                l1803 1070  
                              l1811 07B2                                l2291 0F40  
                              l2283 0ED4                                l2275 0B9C  
                              l2267 0B1E                                l2259 0AA0  
                              l2371 0A20                                l2363 09E4  
                              l2355 09B6                                l2347 09A0  
                              l2339 096C                                l2197 0510  
                              l2189 04C8                                l1557 15DA  
                              l1549 15D2                                l1805 10A2  
                              l1821 07F8                                l1813 07BE  
                              l1901 1474                                l2293 0F64  
                              l2285 0EF8                                l2277 0BB2  
                              l2269 0B34                                l2373 0A28  
                              l2365 09F4                                l2381 0A4A  
                              l2357 09B8                                l2349 09A4  
                              l2199 051C                                l1559 15DC  
                              l1911 0DD4                                l1831 0872  
                              l1823 0810                                l1815 07CA  
                              l1903 1484                                l2287 0F0C  
                              l2279 0EB0                                l2295 10D4  
                              l2391 0A7C                                l2383 0A5A  
                              l2375 0A3A                                l2367 0A06  
                              l2359 09C0                                l1921 0E52  
                              l1913 0DEC                                l1761 1238  
                              l1833 0884                                l1825 082E  
                              l1817 07CE                                l1809 0790  
                              l1905 14A0                                l2289 0F30  
                              l2297 10E8                                l2393 0A82  
                              l2385 0A66                                l2369 0A0E  
                              l2377 0A42                                l1931 0E6E  
                              l1923 0E58                                l1915 0E30  
                              l1771 1272                                l1763 1240  
                              l1835 0898                                l1827 0832  
                              l1843 08CA                                l1819 07DC  
                              l2299 10F8                                l2387 0A68  
                              l2379 0A46                                l1861 1440  
                              l1933 0E72                                l1917 0E48  
                              l1909 0DC8                                l1941 154E  
                              l1773 127A                                l1765 1248  
                              l1757 121E                                l1781 137A  
                              l1837 08B2                                l1829 0856  
                              l1845 08E2                                l2389 0A78  
                              l1863 144A                                l1855 141E  
                              l1935 0E8E                                l1919 0E4C  
                              l1943 1552                                l1775 127C  
                              l1767 1256                                l1759 1226  
                              l1791 13B6                                l1783 1382  
                              l1839 08B4                                l1951 14EC  
                              l1871 131C                                l1857 142E  
                              l1865 144C                                l1937 0E92  
                              l1929 0E60                                l1945 155E  
                              l1777 1282                                l1769 125C  
                              l1793 13BC                                l1785 138A  
                              l1849 08F2                                l1953 14F4  
                              l1881 11A0                                l1873 132C  
                              l1961 05EC                                l1859 143C  
                              l1939 0E96                                l1947 1560  
                              l1787 1398                                l1779 1368  
                              l1795 102A                                l1955 14FC  
                              l1891 11EA                                l1883 11A8  
                              l1875 1336                                l1867 12FE  
                              l1971 0658                                l1789 13AE  
                              l1797 103A                                l1957 1510  
                              l1949 14E4                                l1893 11FA  
                              l1885 11B4                                l1877 117A  
                              l1869 130E                                l1981 06A6  
                              l1973 0658                                l1965 0606  
                              l1799 104A                                l1895 11FC  
                              l1887 11C2                                l1879 118A  
                              l1983 06AA                                l1991 0722  
                              l1975 066C                                l1967 0636  
                              l1897 1206                                l1889 11CC  
                              l1993 072C                                l1985 06CE  
                              l1977 066E                                l1969 0658  
                              l1899 1468                                l1995 0730  
                              l1987 06FA                                l1979 067E  
                              l1997 0732                                l1989 06FE  
                              l1999 0734                                STR_1 7FF7  
                              _BRGH 7D62                                u1000 07B2  
                              _CREN 7D5C                                u1001 07AE  
                              u1010 07F8                                u1011 07F4  
                              u1020 0884                                u1100 11EA  
                              u1021 0880                                u1101 11E6  
                              u1030 0894                                u1110 14A0  
                              u1031 0890                                u1111 149C  
                              u1120 0DEC                                u1040 08C6  
                              u1200 06FA                                u1121 0DE8  
                              u1041 08C2                                u1201 06F6  
                              u1050 1466                                u1130 0E8E  
                              u1051 1462                                u1131 0E8A  
                              u1300 0270                                u1220 002C  
                              u1140 0EAE                                u1060 131C  
                              u1221 0028                                u1141 0EAA  
                              u1061 1318                                u1310 02CA  
                              u1230 003E                                u1150 1576  
                              u1070 1356                                u1311 02C6  
                              u1231 003A                                u1151 1572  
                              u1071 1352                                u1215 070A  
                              u1400 041A                                u1320 02EA  
                              u1240 004E                                u1080 11A0  
                              u1160 05FE                                u1401 0416  
                              u1321 02E6                                u1305 0266  
                              u1241 004A                                u1081 119C  
                              u1161 05FA                                u1330 02FA  
                              u1250 008E                                u1410 0BDE  
                              u1090 11C2                                u1170 066C  
                              u1331 02F6                                u1251 008A  
                              u1411 0BDA                                u1091 11BE  
                              u1171 0668                                u1340 0328  
                              u1260 00A0                                u1420 0C12  
                              u1500 04B4                                u1180 06A6  
                              u1341 0324                                u1261 009C  
                              u1501 04B0                                u1181 06A2  
                              u1350 033E                                u1270 00B0  
                              u1430 0C40                                u1510 050A  
                              u1351 033A                                u1271 00AC  
                              u1431 0C3C                                u1511 0506  
                              u1360 0352                                u1280 00E6  
                              u1440 0C54                                u1520 0554  
                              u1600 09D2                                u1361 034E  
                              u1281 00E2                                u1441 0C50  
                              u1425 0C08                                u1521 0550  
                              u1601 09CE                                u1370 036C  
                              u1290 00F6                                u1450 0C7C  
                              u1530 0572                                u1610 09E4  
                              u1371 0368                                u1291 00F2  
                              u1451 0C78                                u1531 056E  
                              u1195 06DA                                u1611 09E0  
                              u1380 03B4                                u1460 0C9C  
                              u1540 0582                                u1620 0A06  
                              u1381 03B0                                u1461 0C98  
                              u1541 057E                                u1621 0A02  
                              u1390 03E2                                u1470 0CAC  
                              u1550 0590                                u1630 0A20  
                              u1391 03DE                                u1471 0CA8  
                              u1551 058C                                u1631 0A1C  
                              u1560 05CA                                u1480 044A  
                              u1640 0A3A                                u1561 05C6  
                              u1481 0446                                u1641 0A36  
                              u1570 05D8                                u1490 0458  
                              u1650 0A5A                                u1571 05D4  
                              u1491 0454                                u1651 0A56  
                              u1707 0994                                u1580 0FA6  
                              u1660 0A78                                u1581 0FA2  
                              u1661 0A74                                u1717 09AA  
                              u1590 0FB6                                u1591 0FB2  
                              u1807 1112                                u1727 0AAA  
                              u1817 1136                                u1737 0AD4  
             __end_of_playHappyTone 117A                                u1907 0F90  
                              u1827 115A                                u1747 0AFE  
                              u1837 0ECA                                u1757 0B28  
                              u1677 0946                                u1847 0EEE  
                              u1767 0B52                                u1687 0960  
                              u1857 0F12                                u1777 0B7C  
                              u1697 097A                                u1867 0F36  
                              u1787 0BA6                                u1877 0F5A  
                              u1797 10EE                                u1887 0786  
                              u1897 0D82                                _RCIF 7CF5  
                              _TMR2 0FCC                                _SPEN 7D5F  
                              _TXEN 7D65                                _TXIF 7CF4  
                              _SYNC 7D64                                __ISR 0008  
                   __end_of_TEXT5x8 7FF7                                _dbuf 0060  
                  ??_SSD1306_String 000B                                _main 0916  
                  __end_of_I2C_Hold 15C4                                _prec 0047  
                  __end_of_I2C_Init 166C                                fsr1h 0FE2  
                              fsr2h 0FDA                                _tone 05EC  
                              indf2 0FDF                                fsr1l 0FE1  
                              fsr2l 0FD9                                btemp 004C  
                  __end_of_I2C_Stop 1648                                prodh 0FF4  
                              prodl 0FF3                                start 000E  
                      ___param_bank 0000                               ?__ISR 0001  
                     ___fltol@sign1 0030                               ?_main 0001  
                             _BRG16 7DC3                     __end_of___flmul 0438  
                   __end_of___fltol 0CCE                               ?_tone 001A  
                             _CMCON 0FB4                     __end_of___lldiv 121E  
                             _T1CON 0FCD                               _T2CON 0FCA  
                   __end_of___lwdiv 1292                     __end_of___lwmod 13CC  
                             i2l173 1674                               i2l182 1416  
                             i2l184 141A                               _RCREG 0FAE  
                      vfpfcnvrt@fmt 000A                               _TMR1H 0FCF  
                             _TMR1L 0FCE                               _SPBRG 0FAF  
                             _TRISC 0F94                               _TRISD 0F95  
                             _SSPIF 7CF3                   _tone_toggle_count 0041  
                             _TXREG 0FAD                 ___lmul@multiplicand 0005  
                     tone@frequency 001A                               _flags 0049  
                             _fputc 102A                               _width 0045  
                             _putch 1676                   __end_of_I2C_Start 165E  
                 __end_of_I2C_Write 161C                               tablat 0FF5  
                             ttemp5 004D                               ttemp6 0050  
                             ttemp7 0054                               status 0FD8  
                     tone@period_us 0022                               wtemp8 004D  
                   __end_of_sprintf 151C                          SendByte@ch 0001  
                       ?_USART_Init 0001                        __end_of__ISR 141E  
                   __initialization 1578                         _GetDistance 0F7A  
                      __end_of_main 0A8C                        __end_of_tone 0790  
                            ??__ISR 0001                       SendString@str 0002  
                  _playConfusedTone 0EB0                              ??_main 003A  
                  __end_of_SendByte 1632                              ??_tone 001E  
                     __activetblptr 0002                 _SSD1306_ClearScreen 1292  
                            _ADCON1 0FC1                              ?_fputc 0001  
                            ?_putch 0001                          _SendString 154E  
                            i2l1563 166C                              i2l1565 1670  
                            i2l1661 13DC                              i2l1663 13E0  
                            i2l1665 13EE                              i2l1667 13F0  
                            i2l1659 13CE                              i2l1669 1406  
                            _OSCCON 0FD3                              _SPBRGH 0FB0  
                            _SSPADD 0FC8                              _SSPBUF 0FC9  
                  __end_of___xxtofl 05EC                _SSD1306_WriteCommand 15E2  
                     ?_SSD1306_Init 0001                        vfprintf@cfmt 0019  
              ?_SSD1306_ClearScreen 0001                              ___lmul 12FE  
                         ??___flmul 0017                           ??___fltol 002C  
                         ??___lldiv 0015                           ??___lwdiv 0005  
                         ??___lwmod 0005                              _memcpy 141E  
                            clear_0 157E                              clear_1 158A  
                            _rxData 004B                              _rxFlag 004A  
                            isa$std 0001                  SSD1306_String@data 000A  
                            fputc@c 0001                           ?_I2C_Hold 0001  
                         ?_I2C_Init 0001                           ?_I2C_Stop 0001  
                      __mediumconst 7E16                       main@updateScn 003F  
                            tblptrh 0FF7                              tblptrl 0FF6  
                            tblptru 0FF8                              tone@pr 0026  
                            putch@c 0001                    __end_of_vfprintf 14AA  
                         ??_sprintf 0020                        ___xxtofl@arg 000B  
                      ___xxtofl@exp 000A                        ___xxtofl@val 0001  
              SSD1306_ClearScreen@i 0003                SSD1306_ClearScreen@j 0005  
                        __accesstop 0060             __end_of__initialization 1590  
                     ___rparam_used 0001               ?_SSD1306_WriteCommand 0001  
                        ___fltol@f1 0028                      ??_SSD1306_Init 0004  
             ??_SSD1306_ClearScreen 0003                      __pcstackCOMRAM 0001  
                     __end_of_fputc 10D4                       __end_of_putch 1678  
                        ??_I2C_Hold 0001                          ??_I2C_Init 0001  
                        ??_I2C_Stop 0002                             ??_fputc 0004  
                           ??_putch 0001                          __pbssBANK0 0060  
                       ?_SendString 0002                           ?_SendByte 0001  
      ??_EUSART_Rx_InterruptHandler 0001                   _SSD1306_GotoStart 14AA  
                           ?___lmul 0001                  ?_SSD1306_GotoStart 0001  
                           ?_memcpy 0001                      ___lmul@product 0009  
                tone@prescaler_bits 0028                 ??_SSD1306_GotoStart 0003  
             GetDistance@pulseWidth 0038                           ?___xxtofl 0001  
                           i2u80_40 13DC                             i2u80_41 13D8  
                           i2u81_40 13EE                             i2u81_41 13EA  
                           i2u82_40 1406                             i2u82_41 1402  
                           _TEXT5x8 7E17                             _SSPCON1 0FC6  
                           _SSPCON2 0FC5                             _SSPSTAT 0FC7  
          __end_of_playConfusedTone 0F7A              ??_SSD1306_WriteCommand 0003  
                         _I2C_Start 1648                           _I2C_Write 1600  
                        ??_SendByte 0001           __end_of_SSD1306_GotoStart 14E4  
                      ??_USART_Init 0001                             __Hparam 0000  
                  UpdateScreen@dist 002C                             __Lparam 0000  
                      ?_GetDistance 0032                     tone@duration_ms 001C  
                           ___flmul 0012                             ___fltol 0BC8  
                           ___lldiv 117A                             ___lwdiv 121E  
                           ___lwmod 1368                           ?_vfprintf 0015  
                           __pcinit 1578                             __ramtop 0600  
                           __ptext0 0916                             __ptext1 0A8C  
                           __ptext2 10D4                             __ptext3 0EB0  
                           __ptext4 05EC                             __ptext5 12FE  
                           __ptext6 117A                             __ptext7 151C  
                           __ptext8 14E4                             __ptext9 1468  
                         _T1CONbits 0FCD                           _T2CONbits 0FCA  
                        ??___xxtofl 0005                __end_of_SSD1306_Init 0DC8  
                __end_of_USART_Init 15E2                             main@cmd 0040  
                           _sprintf 14E4                      __pintcode_body 13CC  
              end_of_initialization 1590                   __end_of_playNotes 0BC8  
                     ?_UpdateScreen 002C                             memcpy@d 0009  
                           memcpy@n 0004                             memcpy@s 0006  
                           fputc@fp 0003                       __Lmediumconst 7E16  
                           int_func 13CC              GetDistance@distance_cm 0036  
                        ?_I2C_Start 0001                          ?_I2C_Write 0001  
                   ___lldiv@divisor 0011                     ___lldiv@counter 0019  
                 __end_of_vfpfcnvrt 0916                             postdec2 0FDD  
                           postinc0 0FEE                             postinc1 0FE6  
                           postinc2 0FDE                    vfpfcnvrt@convarg 0010  
                        ??_vfprintf 0019                           _PORTDbits 0F83  
                     ___xxtofl@sign 0009                           _TRISCbits 0F94  
                         _TRISDbits 0F95                      ??_UpdateScreen 002E  
                     _playHappyTone 10D4                         ___flmul@grs 001C  
                        main@oldCmd 003E  __end_of_EUSART_Rx_InterruptHandler 1676  
        _EUSART_Rx_InterruptHandler 166C                      __end_of___lmul 1368  
                       vfpfcnvrt@ap 000B                         vfpfcnvrt@cp 000E  
                       vfpfcnvrt@fp 0009                      __end_of_memcpy 1468  
               start_initialization 1578                        ??_SendString 0003  
                    ?_playHappyTone 0001         __end_of_SSD1306_ClearScreen 12FE  
                       ??_I2C_Start 0002                         ??_I2C_Write 0002  
                       vfprintf@fmt 0016                            ??___lmul 0009  
                          ??_memcpy 0006                  __end_of_SendString 1578  
                         ___flmul@a 0013                           ___flmul@b 000F  
                       __pbssCOMRAM 0041                  tone@toggle_time_us 0029  
                 ?_playConfusedTone 0001                  ??_playConfusedTone 002B  
                  ___lwdiv@dividend 0001                        _SSD1306_Init 0CCE  
                         __pintcode 0008                       __pmediumconst 7E16  
                          ?___flmul 000F                            ?___fltol 0028  
                    _SSD1306_String 0DC8                            ?___lldiv 000D  
                          ?___lwdiv 0001                            ?___lwmod 0001  
           SSD1306_WriteCommand@cmd 0003                __end_of_UpdateScreen 154E  
                       __smallconst 7E16                            _I2C_Hold 159E  
                          _I2C_Init 165E                            _I2C_Stop 1632  
                  ___lwdiv@quotient 0005                     ??_playHappyTone 002B  
                          ?_sprintf 001B                            _LATDbits 0F8C  
                         _playNotes 0A8C                            _PIE1bits 0F9D  
                          _PIR1bits 0F9E              __end_of_SSD1306_String 0EB0  
                         _vfpfcnvrt 0790               SSD1306_String@pixData 0010  
                        vfpfcnvrt@c 0014                   ___lmul@multiplier 0001  
                   SSD1306_String@a 0015                     SSD1306_String@i 0017  
                        ?_playNotes 0001                            _SendByte 161C  
       ?_EUSART_Rx_InterruptHandler 0001                            __Hrparam 0000  
                         memcpy@tmp 0008                          vfprintf@ap 0018  
                          __Lrparam 0000                          vfprintf@fp 0015  
                   ?_SSD1306_String 000A                       I2C_Write@data 0002  
                        ?_vfpfcnvrt 0009                          sprintf@fmt 001C  
                          ___xxtofl 0438                     ___lwdiv@divisor 0003  
                   ___lwdiv@counter 0007                            __ptext10 0790  
                          __ptext11 102A                            __ptext20 1292  
                          __ptext12 1676                            __ptext21 15C4  
                          __ptext13 1368                            __ptext30 0438  
                          __ptext22 0CCE                            __ptext14 121E  
                          __ptext31 0BC8                            __ptext23 15E2  
                          __ptext15 154E                            __ptext32 0012  
                          __ptext24 1600                            __ptext16 161C  
                          __ptext25 1632                            __ptext17 0DC8  
                          __ptext34 166C                            __ptext26 1648  
                          __ptext18 141E                            __ptext27 159E  
                          __ptext19 14AA                            __ptext28 165E  
                          __ptext29 0F7A                            isa$xinst 0000  
                          int$flags 004C                            _vfprintf 1468  
                          main@dist 003C                          _INTCONbits 0FF2  
                          memcpy@d1 0001                            memcpy@s1 0002  
                          intlevel2 0000                           sprintf@ap 0020  
                      _UpdateScreen 151C                    ___lwmod@dividend 0001  
                  ___lldiv@dividend 000D                         ??_playNotes 002B  
                     UpdateScreen@a 002E                       ??_GetDistance 0034  
                       ??_vfpfcnvrt 000C                            sprintf@f 0021  
                          sprintf@s 001B                    ___lldiv@quotient 0015  
                   ___lwmod@divisor 0003                     ___lwmod@counter 0005  
                        _USART_Init 15C4  
