

Microchip MPLAB XC8 Assembler V3.00 build 20241204225717 
                                                                                               Sun Nov 16 22:48:06 2025

Microchip MPLAB XC8 C Compiler v3.00 (Free license) build 20241204225717 Og1 
     1                           	processor	18F4580
     2                           	fnconf	rparam,??,?,0
     3                           	pagewidth 120
     4                           	opt	flic
     5                           	psect	mediumconst,global,reloc=2,class=MEDIUMCONST,space=0,delta=1,noexec
     6                           	psect	cinit,global,reloc=2,class=CODE,space=0,delta=1
     7                           	psect	bssCOMRAM,global,class=COMRAM,space=1,delta=1,lowdata,noexec
     8                           	psect	bssBANK0,global,class=BANK0,space=1,delta=1,lowdata,noexec
     9                           	psect	bssBANK1,global,class=BANK1,space=1,delta=1,lowdata,noexec
    10                           	psect	cstackBANK0,global,class=BANK0,space=1,delta=1,lowdata,noexec
    11                           	psect	cstackCOMRAM,global,class=COMRAM,space=1,delta=1,lowdata,noexec
    12                           	psect	text0,global,reloc=2,class=CODE,space=0,delta=1
    13                           	psect	text1,global,reloc=2,class=CODE,space=0,delta=1
    14                           	psect	text2,global,reloc=2,class=CODE,space=0,delta=1
    15                           	psect	text3,global,reloc=2,class=CODE,space=0,delta=1
    16                           	psect	text4,global,reloc=2,class=CODE,space=0,delta=1
    17                           	psect	text5,global,reloc=2,class=CODE,space=0,delta=1
    18                           	psect	text6,global,reloc=2,class=CODE,space=0,delta=1,group=2
    19                           	psect	text7,global,reloc=2,class=CODE,space=0,delta=1,group=2
    20                           	psect	text8,global,reloc=2,class=CODE,space=0,delta=1
    21                           	psect	text9,global,reloc=2,class=CODE,space=0,delta=1,group=3
    22                           	psect	text10,global,reloc=2,class=CODE,space=0,delta=1,group=1
    23                           	psect	text11,global,reloc=2,class=CODE,space=0,delta=1,group=1
    24                           	psect	text12,global,reloc=2,class=CODE,space=0,delta=1,group=1
    25                           	psect	text13,global,reloc=2,class=CODE,space=0,delta=1,group=3
    26                           	psect	text14,global,reloc=2,class=CODE,space=0,delta=1,group=1
    27                           	psect	text15,global,reloc=2,class=CODE,space=0,delta=1,group=3
    28                           	psect	text16,global,reloc=2,class=CODE,space=0,delta=1,group=3
    29                           	psect	text17,global,reloc=2,class=CODE,space=0,delta=1,group=3
    30                           	psect	text18,global,reloc=2,class=CODE,space=0,delta=1,group=3
    31                           	psect	text19,global,reloc=2,class=CODE,space=0,delta=1,group=3
    32                           	psect	text20,global,reloc=2,class=CODE,space=0,delta=1,group=3
    33                           	psect	text21,global,reloc=2,class=CODE,space=0,delta=1,group=2
    34                           	psect	text22,global,reloc=2,class=CODE,space=0,delta=1,group=2
    35                           	psect	text23,global,reloc=2,class=CODE,space=0,delta=1,group=2
    36                           	psect	text24,global,reloc=2,class=CODE,space=0,delta=1,group=2
    37                           	psect	text25,global,reloc=2,class=CODE,space=0,delta=1,group=2
    38                           	psect	text26,global,reloc=2,class=CODE,space=0,delta=1,group=2
    39                           	psect	text27,global,reloc=2,class=CODE,space=0,delta=1,group=2
    40                           	psect	text28,global,reloc=2,class=CODE,space=0,delta=1,group=2
    41                           	psect	text29,global,reloc=2,class=CODE,space=0,delta=1
    42                           	psect	text30,global,reloc=2,class=CODE,space=0,delta=1
    43                           	psect	text31,global,reloc=2,class=CODE,space=0,delta=1
    44                           	psect	text32,global,reloc=2,class=CODE,space=0,delta=1,group=3
    45                           	psect	text33,global,reloc=2,class=CODE,space=0,delta=1
    46                           	psect	text34,global,reloc=2,class=CODE,space=0,delta=1
    47                           	psect	text35,global,reloc=2,class=CODE,space=0,delta=1
    48                           	psect	text36,global,reloc=2,class=CODE,space=0,delta=1
    49                           	psect	text37,global,reloc=2,class=CODE,space=0,delta=1
    50                           	psect	text38,global,reloc=2,class=CODE,space=0,delta=1
    51                           	psect	text39,global,reloc=2,class=CODE,space=0,delta=1
    52                           	psect	text40,global,reloc=2,class=CODE,space=0,delta=1,group=2
    53                           	psect	text41,global,reloc=2,class=CODE,space=0,delta=1
    54                           	psect	text42,global,reloc=2,class=CODE,space=0,delta=1
    55                           	psect	text43,global,reloc=2,class=CODE,space=0,delta=1
    56                           	psect	text44,global,reloc=2,class=CODE,space=0,delta=1
    57                           	psect	text45,global,reloc=2,class=CODE,space=0,delta=1
    58                           	psect	text46,global,reloc=2,class=CODE,space=0,delta=1
    59                           	psect	text47,global,reloc=2,class=CODE,space=0,delta=1
    60                           	psect	text48,global,reloc=2,class=CODE,space=0,delta=1
    61                           	psect	text49,global,reloc=2,class=CODE,space=0,delta=1
    62                           	psect	text50,global,reloc=2,class=CODE,space=0,delta=1,group=2
    63                           	psect	text51,global,reloc=2,class=CODE,space=0,delta=1,group=2
    64                           	psect	text52,global,reloc=2,class=CODE,space=0,delta=1,group=2
    65                           	psect	intcode,global,reloc=2,class=CODE,space=0,delta=1
    66                           	psect	intcode_body,global,reloc=2,class=CODE,space=0,delta=1
    67                           	psect	text54,global,reloc=2,class=CODE,space=0,delta=1
    68                           	psect	intsave_regs,global,class=BIGRAM,space=1,delta=1,noexec
    69                           	psect	rparam,global,class=COMRAM,space=1,delta=1,noexec
    70                           	psect	temp,global,ovrld,common,class=COMRAM,space=1,delta=1,lowdata
    71                           	psect	config,global,abs,ovrld,class=CONFIG,space=4,delta=1,noexec
    72   000000                     
    73                           ; Generated 17/10/2023 GMT
    74                           ; 
    75                           ; Copyright © 2023, Microchip Technology Inc. and its subsidiaries ("Microchip")
    76                           ; All rights reserved.
    77                           ; 
    78                           ; This software is developed by Microchip Technology Inc. and its subsidiaries ("Microch
      +                          ip").
    79                           ; 
    80                           ; Redistribution and use in source and binary forms, with or without modification, are
    81                           ; permitted provided that the following conditions are met:
    82                           ; 
    83                           ;     1. Redistributions of source code must retain the above copyright notice, this lis
      +                          t of
    84                           ;        conditions and the following disclaimer.
    85                           ; 
    86                           ;     2. Redistributions in binary form must reproduce the above copyright notice, this 
      +                          list
    87                           ;        of conditions and the following disclaimer in the documentation and/or other
    88                           ;        materials provided with the distribution. Publication is not required when
    89                           ;        this file is used in an embedded application.
    90                           ; 
    91                           ;     3. Microchip's name may not be used to endorse or promote products derived from th
      +                          is
    92                           ;        software without specific prior written permission.
    93                           ; 
    94                           ; THIS SOFTWARE IS PROVIDED BY MICROCHIP "AS IS" AND ANY EXPRESS OR IMPLIED WARRANTIES,
    95                           ; INCLUDING, BUT NOT LIMITED TO, THE IMPLIED WARRANTIES OF MERCHANTABILITY AND FITNESS F
      +                          OR
    96                           ; PURPOSE ARE DISCLAIMED.  IN NO EVENT SHALL MICROCHIP BE LIABLE FOR ANY DIRECT, INDIREC
      +                          T,
    97                           ; INCIDENTAL, SPECIAL, EXEMPLARY, OR CONSEQUENTIAL DAMAGES (INCLUDING BUT NOT LIMITED TO
    98                           ; PROCUREMENT OF SUBSTITUTE GOODS OR SERVICES; LOSS OF USE, DATA OR PROFITS; OR BUSINESS
    99                           ; INTERRUPTION) HOWSOEVER CAUSED AND ON ANY THEORY OF LIABILITY, WHETHER IN CONTRACT, ST
      +                          RICT
   100                           ; LIABILITY, OR TORT (INCLUDING NEGLIGENCE OR OTHERWISE) ARISING IN ANY WAY OUT OF THE U
      +                          SE OF
   101                           ; THIS SOFTWARE, EVEN IF ADVISED OF THE POSSIBILITY OF SUCH DAMAGE.
   102                           ; 
   103                           ; 
   104                           ; Code-generator required, PIC18F4580 Definitions
   105                           ; 
   106                           ; SFR Addresses
   107   000FE0                     bsr             equ	4064
   108   000FE9                     fsr0            equ	4073
   109   000FEA                     fsr0h           equ	4074
   110   000FE9                     fsr0l           equ	4073
   111   000FE1                     fsr1            equ	4065
   112   000FE2                     fsr1h           equ	4066
   113   000FE1                     fsr1l           equ	4065
   114   000FD9                     fsr2            equ	4057
   115   000FDA                     fsr2h           equ	4058
   116   000FD9                     fsr2l           equ	4057
   117   000FEF                     indf0           equ	4079
   118   000FE7                     indf1           equ	4071
   119   000FDF                     indf2           equ	4063
   120   000FF2                     intcon          equ	4082
   121   000000                     nvmcon          equ	0
   122   000FF9                     pcl             equ	4089
   123   000FFA                     pclath          equ	4090
   124   000FFB                     pclatu          equ	4091
   125   000FEB                     plusw0          equ	4075
   126   000FE3                     plusw1          equ	4067
   127   000FDB                     plusw2          equ	4059
   128   000FED                     postdec0        equ	4077
   129   000FE5                     postdec1        equ	4069
   130   000FDD                     postdec2        equ	4061
   131   000FEE                     postinc0        equ	4078
   132   000FE6                     postinc1        equ	4070
   133   000FDE                     postinc2        equ	4062
   134   000FEC                     preinc0         equ	4076
   135   000FE4                     preinc1         equ	4068
   136   000FDC                     preinc2         equ	4060
   137   000FF3                     prod            equ	4083
   138   000FF4                     prodh           equ	4084
   139   000FF3                     prodl           equ	4083
   140   000FD8                     status          equ	4056
   141   000FF5                     tablat          equ	4085
   142   000FF6                     tblptr          equ	4086
   143   000FF7                     tblptrh         equ	4087
   144   000FF6                     tblptrl         equ	4086
   145   000FF8                     tblptru         equ	4088
   146   000FFD                     tosl            equ	4093
   147   000FE8                     wreg            equ	4072
   148   000D60                     RXF6SIDH        equ	3424	;# 
   149   000D61                     RXF6SIDL        equ	3425	;# 
   150   000D62                     RXF6EIDH        equ	3426	;# 
   151   000D63                     RXF6EIDL        equ	3427	;# 
   152   000D64                     RXF7SIDH        equ	3428	;# 
   153   000D65                     RXF7SIDL        equ	3429	;# 
   154   000D66                     RXF7EIDH        equ	3430	;# 
   155   000D67                     RXF7EIDL        equ	3431	;# 
   156   000D68                     RXF8SIDH        equ	3432	;# 
   157   000D69                     RXF8SIDL        equ	3433	;# 
   158   000D6A                     RXF8EIDH        equ	3434	;# 
   159   000D6B                     RXF8EIDL        equ	3435	;# 
   160   000D70                     RXF9SIDH        equ	3440	;# 
   161   000D71                     RXF9SIDL        equ	3441	;# 
   162   000D72                     RXF9EIDH        equ	3442	;# 
   163   000D73                     RXF9EIDL        equ	3443	;# 
   164   000D74                     RXF10SIDH       equ	3444	;# 
   165   000D75                     RXF10SIDL       equ	3445	;# 
   166   000D76                     RXF10EIDH       equ	3446	;# 
   167   000D77                     RXF10EIDL       equ	3447	;# 
   168   000D78                     RXF11SIDH       equ	3448	;# 
   169   000D79                     RXF11SIDL       equ	3449	;# 
   170   000D7A                     RXF11EIDH       equ	3450	;# 
   171   000D7B                     RXF11EIDL       equ	3451	;# 
   172   000D80                     RXF12SIDH       equ	3456	;# 
   173   000D81                     RXF12SIDL       equ	3457	;# 
   174   000D82                     RXF12EIDH       equ	3458	;# 
   175   000D83                     RXF12EIDL       equ	3459	;# 
   176   000D84                     RXF13SIDH       equ	3460	;# 
   177   000D85                     RXF13SIDL       equ	3461	;# 
   178   000D86                     RXF13EIDH       equ	3462	;# 
   179   000D87                     RXF13EIDL       equ	3463	;# 
   180   000D88                     RXF14SIDH       equ	3464	;# 
   181   000D89                     RXF14SIDL       equ	3465	;# 
   182   000D8A                     RXF14EIDH       equ	3466	;# 
   183   000D8B                     RXF14EIDL       equ	3467	;# 
   184   000D90                     RXF15SIDH       equ	3472	;# 
   185   000D91                     RXF15SIDL       equ	3473	;# 
   186   000D92                     RXF15EIDH       equ	3474	;# 
   187   000D93                     RXF15EIDL       equ	3475	;# 
   188   000DD4                     RXFCON0         equ	3540	;# 
   189   000DD5                     RXFCON1         equ	3541	;# 
   190   000DD8                     SDFLC           equ	3544	;# 
   191   000DE0                     RXFBCON0        equ	3552	;# 
   192   000DE1                     RXFBCON1        equ	3553	;# 
   193   000DE2                     RXFBCON2        equ	3554	;# 
   194   000DE3                     RXFBCON3        equ	3555	;# 
   195   000DE4                     RXFBCON4        equ	3556	;# 
   196   000DE5                     RXFBCON5        equ	3557	;# 
   197   000DE6                     RXFBCON6        equ	3558	;# 
   198   000DE7                     RXFBCON7        equ	3559	;# 
   199   000DF0                     MSEL0           equ	3568	;# 
   200   000DF1                     MSEL1           equ	3569	;# 
   201   000DF2                     MSEL2           equ	3570	;# 
   202   000DF3                     MSEL3           equ	3571	;# 
   203   000DF8                     BSEL0           equ	3576	;# 
   204   000DFA                     BIE0            equ	3578	;# 
   205   000DFC                     TXBIE           equ	3580	;# 
   206   000E20                     B0CON           equ	3616	;# 
   207   000E21                     B0SIDH          equ	3617	;# 
   208   000E22                     B0SIDL          equ	3618	;# 
   209   000E23                     B0EIDH          equ	3619	;# 
   210   000E24                     B0EIDL          equ	3620	;# 
   211   000E25                     B0DLC           equ	3621	;# 
   212   000E26                     B0D0            equ	3622	;# 
   213   000E27                     B0D1            equ	3623	;# 
   214   000E28                     B0D2            equ	3624	;# 
   215   000E29                     B0D3            equ	3625	;# 
   216   000E2A                     B0D4            equ	3626	;# 
   217   000E2B                     B0D5            equ	3627	;# 
   218   000E2C                     B0D6            equ	3628	;# 
   219   000E2D                     B0D7            equ	3629	;# 
   220   000E2E                     CANSTAT_RO9     equ	3630	;# 
   221   000E2F                     CANCON_RO9      equ	3631	;# 
   222   000E30                     B1CON           equ	3632	;# 
   223   000E31                     B1SIDH          equ	3633	;# 
   224   000E32                     B1SIDL          equ	3634	;# 
   225   000E33                     B1EIDH          equ	3635	;# 
   226   000E34                     B1EIDL          equ	3636	;# 
   227   000E35                     B1DLC           equ	3637	;# 
   228   000E36                     B1D0            equ	3638	;# 
   229   000E37                     B1D1            equ	3639	;# 
   230   000E38                     B1D2            equ	3640	;# 
   231   000E39                     B1D3            equ	3641	;# 
   232   000E3A                     B1D4            equ	3642	;# 
   233   000E3B                     B1D5            equ	3643	;# 
   234   000E3C                     B1D6            equ	3644	;# 
   235   000E3D                     B1D7            equ	3645	;# 
   236   000E3E                     CANSTAT_RO8     equ	3646	;# 
   237   000E3F                     CANCON_RO8      equ	3647	;# 
   238   000E40                     B2CON           equ	3648	;# 
   239   000E41                     B2SIDH          equ	3649	;# 
   240   000E42                     B2SIDL          equ	3650	;# 
   241   000E43                     B2EIDH          equ	3651	;# 
   242   000E44                     B2EIDL          equ	3652	;# 
   243   000E45                     B2DLC           equ	3653	;# 
   244   000E46                     B2D0            equ	3654	;# 
   245   000E47                     B2D1            equ	3655	;# 
   246   000E48                     B2D2            equ	3656	;# 
   247   000E49                     B2D3            equ	3657	;# 
   248   000E4A                     B2D4            equ	3658	;# 
   249   000E4B                     B2D5            equ	3659	;# 
   250   000E4C                     B2D6            equ	3660	;# 
   251   000E4D                     B2D7            equ	3661	;# 
   252   000E4E                     CANSTAT_RO7     equ	3662	;# 
   253   000E4F                     CANCON_RO7      equ	3663	;# 
   254   000E50                     B3CON           equ	3664	;# 
   255   000E51                     B3SIDH          equ	3665	;# 
   256   000E52                     B3SIDL          equ	3666	;# 
   257   000E53                     B3EIDH          equ	3667	;# 
   258   000E54                     B3EIDL          equ	3668	;# 
   259   000E55                     B3DLC           equ	3669	;# 
   260   000E56                     B3D0            equ	3670	;# 
   261   000E57                     B3D1            equ	3671	;# 
   262   000E58                     B3D2            equ	3672	;# 
   263   000E59                     B3D3            equ	3673	;# 
   264   000E5A                     B3D4            equ	3674	;# 
   265   000E5B                     B3D5            equ	3675	;# 
   266   000E5C                     B3D6            equ	3676	;# 
   267   000E5D                     B3D7            equ	3677	;# 
   268   000E5E                     CANSTAT_RO6     equ	3678	;# 
   269   000E5F                     CANCON_RO6      equ	3679	;# 
   270   000E60                     B4CON           equ	3680	;# 
   271   000E61                     B4SIDH          equ	3681	;# 
   272   000E62                     B4SIDL          equ	3682	;# 
   273   000E63                     B4EIDH          equ	3683	;# 
   274   000E64                     B4EIDL          equ	3684	;# 
   275   000E65                     B4DLC           equ	3685	;# 
   276   000E66                     B4D0            equ	3686	;# 
   277   000E67                     B4D1            equ	3687	;# 
   278   000E68                     B4D2            equ	3688	;# 
   279   000E69                     B4D3            equ	3689	;# 
   280   000E6A                     B4D4            equ	3690	;# 
   281   000E6B                     B4D5            equ	3691	;# 
   282   000E6C                     B4D6            equ	3692	;# 
   283   000E6D                     B4D7            equ	3693	;# 
   284   000E6E                     CANSTAT_RO5     equ	3694	;# 
   285   000E6F                     CANCON_RO5      equ	3695	;# 
   286   000E70                     B5CON           equ	3696	;# 
   287   000E71                     B5SIDH          equ	3697	;# 
   288   000E72                     B5SIDL          equ	3698	;# 
   289   000E73                     B5EIDH          equ	3699	;# 
   290   000E74                     B5EIDL          equ	3700	;# 
   291   000E75                     B5DLC           equ	3701	;# 
   292   000E76                     B5D0            equ	3702	;# 
   293   000E77                     B5D1            equ	3703	;# 
   294   000E78                     B5D2            equ	3704	;# 
   295   000E79                     B5D3            equ	3705	;# 
   296   000E7A                     B5D4            equ	3706	;# 
   297   000E7B                     B5D5            equ	3707	;# 
   298   000E7C                     B5D6            equ	3708	;# 
   299   000E7D                     B5D7            equ	3709	;# 
   300   000E7E                     CANSTAT_RO4     equ	3710	;# 
   301   000E7F                     CANCON_RO4      equ	3711	;# 
   302   000F00                     RXF0SIDH        equ	3840	;# 
   303   000F01                     RXF0SIDL        equ	3841	;# 
   304   000F02                     RXF0EIDH        equ	3842	;# 
   305   000F03                     RXF0EIDL        equ	3843	;# 
   306   000F04                     RXF1SIDH        equ	3844	;# 
   307   000F05                     RXF1SIDL        equ	3845	;# 
   308   000F06                     RXF1EIDH        equ	3846	;# 
   309   000F07                     RXF1EIDL        equ	3847	;# 
   310   000F08                     RXF2SIDH        equ	3848	;# 
   311   000F09                     RXF2SIDL        equ	3849	;# 
   312   000F0A                     RXF2EIDH        equ	3850	;# 
   313   000F0B                     RXF2EIDL        equ	3851	;# 
   314   000F0C                     RXF3SIDH        equ	3852	;# 
   315   000F0D                     RXF3SIDL        equ	3853	;# 
   316   000F0E                     RXF3EIDH        equ	3854	;# 
   317   000F0F                     RXF3EIDL        equ	3855	;# 
   318   000F10                     RXF4SIDH        equ	3856	;# 
   319   000F11                     RXF4SIDL        equ	3857	;# 
   320   000F12                     RXF4EIDH        equ	3858	;# 
   321   000F13                     RXF4EIDL        equ	3859	;# 
   322   000F14                     RXF5SIDH        equ	3860	;# 
   323   000F15                     RXF5SIDL        equ	3861	;# 
   324   000F16                     RXF5EIDH        equ	3862	;# 
   325   000F17                     RXF5EIDL        equ	3863	;# 
   326   000F18                     RXM0SIDH        equ	3864	;# 
   327   000F19                     RXM0SIDL        equ	3865	;# 
   328   000F1A                     RXM0EIDH        equ	3866	;# 
   329   000F1B                     RXM0EIDL        equ	3867	;# 
   330   000F1C                     RXM1SIDH        equ	3868	;# 
   331   000F1D                     RXM1SIDL        equ	3869	;# 
   332   000F1E                     RXM1EIDH        equ	3870	;# 
   333   000F1F                     RXM1EIDL        equ	3871	;# 
   334   000F20                     TXB2CON         equ	3872	;# 
   335   000F21                     TXB2SIDH        equ	3873	;# 
   336   000F22                     TXB2SIDL        equ	3874	;# 
   337   000F23                     TXB2EIDH        equ	3875	;# 
   338   000F24                     TXB2EIDL        equ	3876	;# 
   339   000F25                     TXB2DLC         equ	3877	;# 
   340   000F26                     TXB2D0          equ	3878	;# 
   341   000F27                     TXB2D1          equ	3879	;# 
   342   000F28                     TXB2D2          equ	3880	;# 
   343   000F29                     TXB2D3          equ	3881	;# 
   344   000F2A                     TXB2D4          equ	3882	;# 
   345   000F2B                     TXB2D5          equ	3883	;# 
   346   000F2C                     TXB2D6          equ	3884	;# 
   347   000F2D                     TXB2D7          equ	3885	;# 
   348   000F2E                     CANSTAT_RO3     equ	3886	;# 
   349   000F2F                     CANCON_RO3      equ	3887	;# 
   350   000F30                     TXB1CON         equ	3888	;# 
   351   000F31                     TXB1SIDH        equ	3889	;# 
   352   000F32                     TXB1SIDL        equ	3890	;# 
   353   000F33                     TXB1EIDH        equ	3891	;# 
   354   000F34                     TXB1EIDL        equ	3892	;# 
   355   000F35                     TXB1DLC         equ	3893	;# 
   356   000F36                     TXB1D0          equ	3894	;# 
   357   000F37                     TXB1D1          equ	3895	;# 
   358   000F38                     TXB1D2          equ	3896	;# 
   359   000F39                     TXB1D3          equ	3897	;# 
   360   000F3A                     TXB1D4          equ	3898	;# 
   361   000F3B                     TXB1D5          equ	3899	;# 
   362   000F3C                     TXB1D6          equ	3900	;# 
   363   000F3D                     TXB1D7          equ	3901	;# 
   364   000F3E                     CANSTAT_RO2     equ	3902	;# 
   365   000F3F                     CANCON_RO2      equ	3903	;# 
   366   000F40                     TXB0CON         equ	3904	;# 
   367   000F41                     TXB0SIDH        equ	3905	;# 
   368   000F42                     TXB0SIDL        equ	3906	;# 
   369   000F43                     TXB0EIDH        equ	3907	;# 
   370   000F44                     TXB0EIDL        equ	3908	;# 
   371   000F45                     TXB0DLC         equ	3909	;# 
   372   000F46                     TXB0D0          equ	3910	;# 
   373   000F47                     TXB0D1          equ	3911	;# 
   374   000F48                     TXB0D2          equ	3912	;# 
   375   000F49                     TXB0D3          equ	3913	;# 
   376   000F4A                     TXB0D4          equ	3914	;# 
   377   000F4B                     TXB0D5          equ	3915	;# 
   378   000F4C                     TXB0D6          equ	3916	;# 
   379   000F4D                     TXB0D7          equ	3917	;# 
   380   000F4E                     CANSTAT_RO1     equ	3918	;# 
   381   000F4F                     CANCON_RO1      equ	3919	;# 
   382   000F50                     RXB1CON         equ	3920	;# 
   383   000F51                     RXB1SIDH        equ	3921	;# 
   384   000F52                     RXB1SIDL        equ	3922	;# 
   385   000F53                     RXB1EIDH        equ	3923	;# 
   386   000F54                     RXB1EIDL        equ	3924	;# 
   387   000F55                     RXB1DLC         equ	3925	;# 
   388   000F56                     RXB1D0          equ	3926	;# 
   389   000F57                     RXB1D1          equ	3927	;# 
   390   000F58                     RXB1D2          equ	3928	;# 
   391   000F59                     RXB1D3          equ	3929	;# 
   392   000F5A                     RXB1D4          equ	3930	;# 
   393   000F5B                     RXB1D5          equ	3931	;# 
   394   000F5C                     RXB1D6          equ	3932	;# 
   395   000F5D                     RXB1D7          equ	3933	;# 
   396   000F5E                     CANSTAT_RO0     equ	3934	;# 
   397   000F5F                     CANCON_RO0      equ	3935	;# 
   398   000F60                     RXB0CON         equ	3936	;# 
   399   000F61                     RXB0SIDH        equ	3937	;# 
   400   000F62                     RXB0SIDL        equ	3938	;# 
   401   000F63                     RXB0EIDH        equ	3939	;# 
   402   000F64                     RXB0EIDL        equ	3940	;# 
   403   000F65                     RXB0DLC         equ	3941	;# 
   404   000F66                     RXB0D0          equ	3942	;# 
   405   000F67                     RXB0D1          equ	3943	;# 
   406   000F68                     RXB0D2          equ	3944	;# 
   407   000F69                     RXB0D3          equ	3945	;# 
   408   000F6A                     RXB0D4          equ	3946	;# 
   409   000F6B                     RXB0D5          equ	3947	;# 
   410   000F6C                     RXB0D6          equ	3948	;# 
   411   000F6D                     RXB0D7          equ	3949	;# 
   412   000F6E                     CANSTAT         equ	3950	;# 
   413   000F6F                     CANCON          equ	3951	;# 
   414   000F70                     BRGCON1         equ	3952	;# 
   415   000F71                     BRGCON2         equ	3953	;# 
   416   000F72                     BRGCON3         equ	3954	;# 
   417   000F73                     CIOCON          equ	3955	;# 
   418   000F74                     COMSTAT         equ	3956	;# 
   419   000F75                     RXERRCNT        equ	3957	;# 
   420   000F76                     TXERRCNT        equ	3958	;# 
   421   000F77                     ECANCON         equ	3959	;# 
   422   000F80                     PORTA           equ	3968	;# 
   423   000F81                     PORTB           equ	3969	;# 
   424   000F82                     PORTC           equ	3970	;# 
   425   000F83                     PORTD           equ	3971	;# 
   426   000F84                     PORTE           equ	3972	;# 
   427   000F89                     LATA            equ	3977	;# 
   428   000F8A                     LATB            equ	3978	;# 
   429   000F8B                     LATC            equ	3979	;# 
   430   000F8C                     LATD            equ	3980	;# 
   431   000F8D                     LATE            equ	3981	;# 
   432   000F92                     TRISA           equ	3986	;# 
   433   000F92                     DDRA            equ	3986	;# 
   434   000F93                     TRISB           equ	3987	;# 
   435   000F93                     DDRB            equ	3987	;# 
   436   000F94                     TRISC           equ	3988	;# 
   437   000F94                     DDRC            equ	3988	;# 
   438   000F95                     TRISD           equ	3989	;# 
   439   000F95                     DDRD            equ	3989	;# 
   440   000F96                     TRISE           equ	3990	;# 
   441   000F96                     DDRE            equ	3990	;# 
   442   000F9B                     OSCTUNE         equ	3995	;# 
   443   000F9D                     PIE1            equ	3997	;# 
   444   000F9E                     PIR1            equ	3998	;# 
   445   000F9F                     IPR1            equ	3999	;# 
   446   000FA0                     PIE2            equ	4000	;# 
   447   000FA1                     PIR2            equ	4001	;# 
   448   000FA2                     IPR2            equ	4002	;# 
   449   000FA3                     PIE3            equ	4003	;# 
   450   000FA4                     PIR3            equ	4004	;# 
   451   000FA5                     IPR3            equ	4005	;# 
   452   000FA6                     EECON1          equ	4006	;# 
   453   000FA7                     EECON2          equ	4007	;# 
   454   000FA8                     EEDATA          equ	4008	;# 
   455   000FA9                     EEADR           equ	4009	;# 
   456   000FAB                     RCSTA           equ	4011	;# 
   457   000FAB                     RCSTA1          equ	4011	;# 
   458   000FAC                     TXSTA           equ	4012	;# 
   459   000FAC                     TXSTA1          equ	4012	;# 
   460   000FAD                     TXREG           equ	4013	;# 
   461   000FAD                     TXREG1          equ	4013	;# 
   462   000FAE                     RCREG           equ	4014	;# 
   463   000FAE                     RCREG1          equ	4014	;# 
   464   000FAF                     SPBRG           equ	4015	;# 
   465   000FAF                     SPBRG1          equ	4015	;# 
   466   000FB0                     SPBRGH          equ	4016	;# 
   467   000FB1                     T3CON           equ	4017	;# 
   468   000FB2                     TMR3            equ	4018	;# 
   469   000FB2                     TMR3L           equ	4018	;# 
   470   000FB3                     TMR3H           equ	4019	;# 
   471   000FB4                     CMCON           equ	4020	;# 
   472   000FB5                     CVRCON          equ	4021	;# 
   473   000FB6                     ECCP1AS         equ	4022	;# 
   474   000FB7                     ECCP1DEL        equ	4023	;# 
   475   000FB8                     BAUDCON         equ	4024	;# 
   476   000FB8                     BAUDCTL         equ	4024	;# 
   477   000FBA                     ECCP1CON        equ	4026	;# 
   478   000FBB                     ECCPR1          equ	4027	;# 
   479   000FBB                     ECCPR1L         equ	4027	;# 
   480   000FBC                     ECCPR1H         equ	4028	;# 
   481   000FBD                     CCP1CON         equ	4029	;# 
   482   000FBE                     CCPR1           equ	4030	;# 
   483   000FBE                     CCPR1L          equ	4030	;# 
   484   000FBF                     CCPR1H          equ	4031	;# 
   485   000FC0                     ADCON2          equ	4032	;# 
   486   000FC1                     ADCON1          equ	4033	;# 
   487   000FC2                     ADCON0          equ	4034	;# 
   488   000FC3                     ADRES           equ	4035	;# 
   489   000FC3                     ADRESL          equ	4035	;# 
   490   000FC4                     ADRESH          equ	4036	;# 
   491   000FC5                     SSPCON2         equ	4037	;# 
   492   000FC6                     SSPCON1         equ	4038	;# 
   493   000FC7                     SSPSTAT         equ	4039	;# 
   494   000FC8                     SSPADD          equ	4040	;# 
   495   000FC9                     SSPBUF          equ	4041	;# 
   496   000FCA                     T2CON           equ	4042	;# 
   497   000FCB                     PR2             equ	4043	;# 
   498   000FCB                     MEMCON          equ	4043	;# 
   499   000FCC                     TMR2            equ	4044	;# 
   500   000FCD                     T1CON           equ	4045	;# 
   501   000FCE                     TMR1            equ	4046	;# 
   502   000FCE                     TMR1L           equ	4046	;# 
   503   000FCF                     TMR1H           equ	4047	;# 
   504   000FD0                     RCON            equ	4048	;# 
   505   000FD1                     WDTCON          equ	4049	;# 
   506   000FD2                     HLVDCON         equ	4050	;# 
   507   000FD2                     LVDCON          equ	4050	;# 
   508   000FD3                     OSCCON          equ	4051	;# 
   509   000FD5                     T0CON           equ	4053	;# 
   510   000FD6                     TMR0            equ	4054	;# 
   511   000FD6                     TMR0L           equ	4054	;# 
   512   000FD7                     TMR0H           equ	4055	;# 
   513   000FD8                     STATUS          equ	4056	;# 
   514   000FD9                     FSR2            equ	4057	;# 
   515   000FD9                     FSR2L           equ	4057	;# 
   516   000FDA                     FSR2H           equ	4058	;# 
   517   000FDB                     PLUSW2          equ	4059	;# 
   518   000FDC                     PREINC2         equ	4060	;# 
   519   000FDD                     POSTDEC2        equ	4061	;# 
   520   000FDE                     POSTINC2        equ	4062	;# 
   521   000FDF                     INDF2           equ	4063	;# 
   522   000FE0                     BSR             equ	4064	;# 
   523   000FE1                     FSR1            equ	4065	;# 
   524   000FE1                     FSR1L           equ	4065	;# 
   525   000FE2                     FSR1H           equ	4066	;# 
   526   000FE3                     PLUSW1          equ	4067	;# 
   527   000FE4                     PREINC1         equ	4068	;# 
   528   000FE5                     POSTDEC1        equ	4069	;# 
   529   000FE6                     POSTINC1        equ	4070	;# 
   530   000FE7                     INDF1           equ	4071	;# 
   531   000FE8                     WREG            equ	4072	;# 
   532   000FE9                     FSR0            equ	4073	;# 
   533   000FE9                     FSR0L           equ	4073	;# 
   534   000FEA                     FSR0H           equ	4074	;# 
   535   000FEB                     PLUSW0          equ	4075	;# 
   536   000FEC                     PREINC0         equ	4076	;# 
   537   000FED                     POSTDEC0        equ	4077	;# 
   538   000FEE                     POSTINC0        equ	4078	;# 
   539   000FEF                     INDF0           equ	4079	;# 
   540   000FF0                     INTCON3         equ	4080	;# 
   541   000FF1                     INTCON2         equ	4081	;# 
   542   000FF2                     INTCON          equ	4082	;# 
   543   000FF3                     PROD            equ	4083	;# 
   544   000FF3                     PRODL           equ	4083	;# 
   545   000FF4                     PRODH           equ	4084	;# 
   546   000FF5                     TABLAT          equ	4085	;# 
   547   000FF6                     TBLPTR          equ	4086	;# 
   548   000FF6                     TBLPTRL         equ	4086	;# 
   549   000FF7                     TBLPTRH         equ	4087	;# 
   550   000FF8                     TBLPTRU         equ	4088	;# 
   551   000FF9                     PCLAT           equ	4089	;# 
   552   000FF9                     PC              equ	4089	;# 
   553   000FF9                     PCL             equ	4089	;# 
   554   000FFA                     PCLATH          equ	4090	;# 
   555   000FFB                     PCLATU          equ	4091	;# 
   556   000FFC                     STKPTR          equ	4092	;# 
   557   000FFD                     TOS             equ	4093	;# 
   558   000FFD                     TOSL            equ	4093	;# 
   559   000FFE                     TOSH            equ	4094	;# 
   560   000FFF                     TOSU            equ	4095	;# 
   561                           
   562                           	psect	mediumconst
   563   007E0E                     __pmediumconst:
   564                           	callstack 0
   565   007E0E  00                 	db	0
   566   007E0F                     _TEXT5x8:
   567                           	callstack 0
   568   007E0F  00                 	db	0
   569   007E10  00                 	db	0
   570   007E11  00                 	db	0
   571   007E12  00                 	db	0
   572   007E13  00                 	db	0
   573   007E14  00                 	db	0
   574   007E15  00                 	db	0
   575   007E16  5F                 	db	95
   576   007E17  00                 	db	0
   577   007E18  00                 	db	0
   578   007E19  00                 	db	0
   579   007E1A  03                 	db	3
   580   007E1B  00                 	db	0
   581   007E1C  03                 	db	3
   582   007E1D  00                 	db	0
   583   007E1E  14                 	db	20
   584   007E1F  3E                 	db	62
   585   007E20  14                 	db	20
   586   007E21  3E                 	db	62
   587   007E22  14                 	db	20
   588   007E23  24                 	db	36
   589   007E24  2A                 	db	42
   590   007E25  7F                 	db	127
   591   007E26  2A                 	db	42
   592   007E27  12                 	db	18
   593   007E28  43                 	db	67
   594   007E29  33                 	db	51
   595   007E2A  08                 	db	8
   596   007E2B  66                 	db	102
   597   007E2C  61                 	db	97
   598   007E2D  36                 	db	54
   599   007E2E  49                 	db	73
   600   007E2F  55                 	db	85
   601   007E30  22                 	db	34
   602   007E31  50                 	db	80
   603   007E32  00                 	db	0
   604   007E33  05                 	db	5
   605   007E34  03                 	db	3
   606   007E35  00                 	db	0
   607   007E36  00                 	db	0
   608   007E37  00                 	db	0
   609   007E38  1C                 	db	28
   610   007E39  22                 	db	34
   611   007E3A  41                 	db	65
   612   007E3B  00                 	db	0
   613   007E3C  00                 	db	0
   614   007E3D  41                 	db	65
   615   007E3E  22                 	db	34
   616   007E3F  1C                 	db	28
   617   007E40  00                 	db	0
   618   007E41  14                 	db	20
   619   007E42  08                 	db	8
   620   007E43  3E                 	db	62
   621   007E44  08                 	db	8
   622   007E45  14                 	db	20
   623   007E46  08                 	db	8
   624   007E47  08                 	db	8
   625   007E48  3E                 	db	62
   626   007E49  08                 	db	8
   627   007E4A  08                 	db	8
   628   007E4B  00                 	db	0
   629   007E4C  50                 	db	80
   630   007E4D  30                 	db	48
   631   007E4E  00                 	db	0
   632   007E4F  00                 	db	0
   633   007E50  08                 	db	8
   634   007E51  08                 	db	8
   635   007E52  08                 	db	8
   636   007E53  08                 	db	8
   637   007E54  08                 	db	8
   638   007E55  00                 	db	0
   639   007E56  60                 	db	96
   640   007E57  60                 	db	96
   641   007E58  00                 	db	0
   642   007E59  00                 	db	0
   643   007E5A  20                 	db	32
   644   007E5B  10                 	db	16
   645   007E5C  08                 	db	8
   646   007E5D  04                 	db	4
   647   007E5E  02                 	db	2
   648   007E5F  3E                 	db	62
   649   007E60  51                 	db	81
   650   007E61  49                 	db	73
   651   007E62  45                 	db	69
   652   007E63  3E                 	db	62
   653   007E64  04                 	db	4
   654   007E65  02                 	db	2
   655   007E66  7F                 	db	127
   656   007E67  00                 	db	0
   657   007E68  00                 	db	0
   658   007E69  42                 	db	66
   659   007E6A  61                 	db	97
   660   007E6B  51                 	db	81
   661   007E6C  49                 	db	73
   662   007E6D  46                 	db	70
   663   007E6E  22                 	db	34
   664   007E6F  41                 	db	65
   665   007E70  49                 	db	73
   666   007E71  49                 	db	73
   667   007E72  36                 	db	54
   668   007E73  18                 	db	24
   669   007E74  14                 	db	20
   670   007E75  12                 	db	18
   671   007E76  7F                 	db	127
   672   007E77  10                 	db	16
   673   007E78  27                 	db	39
   674   007E79  45                 	db	69
   675   007E7A  45                 	db	69
   676   007E7B  45                 	db	69
   677   007E7C  39                 	db	57
   678   007E7D  3E                 	db	62
   679   007E7E  49                 	db	73
   680   007E7F  49                 	db	73
   681   007E80  49                 	db	73
   682   007E81  32                 	db	50
   683   007E82  01                 	db	1
   684   007E83  01                 	db	1
   685   007E84  71                 	db	113
   686   007E85  09                 	db	9
   687   007E86  07                 	db	7
   688   007E87  36                 	db	54
   689   007E88  49                 	db	73
   690   007E89  49                 	db	73
   691   007E8A  49                 	db	73
   692   007E8B  36                 	db	54
   693   007E8C  26                 	db	38
   694   007E8D  49                 	db	73
   695   007E8E  49                 	db	73
   696   007E8F  49                 	db	73
   697   007E90  3E                 	db	62
   698   007E91  00                 	db	0
   699   007E92  36                 	db	54
   700   007E93  36                 	db	54
   701   007E94  00                 	db	0
   702   007E95  00                 	db	0
   703   007E96  00                 	db	0
   704   007E97  56                 	db	86
   705   007E98  36                 	db	54
   706   007E99  00                 	db	0
   707   007E9A  00                 	db	0
   708   007E9B  08                 	db	8
   709   007E9C  14                 	db	20
   710   007E9D  22                 	db	34
   711   007E9E  41                 	db	65
   712   007E9F  00                 	db	0
   713   007EA0  14                 	db	20
   714   007EA1  14                 	db	20
   715   007EA2  14                 	db	20
   716   007EA3  14                 	db	20
   717   007EA4  14                 	db	20
   718   007EA5  00                 	db	0
   719   007EA6  41                 	db	65
   720   007EA7  22                 	db	34
   721   007EA8  14                 	db	20
   722   007EA9  08                 	db	8
   723   007EAA  02                 	db	2
   724   007EAB  01                 	db	1
   725   007EAC  51                 	db	81
   726   007EAD  09                 	db	9
   727   007EAE  06                 	db	6
   728   007EAF  3E                 	db	62
   729   007EB0  41                 	db	65
   730   007EB1  59                 	db	89
   731   007EB2  55                 	db	85
   732   007EB3  5E                 	db	94
   733   007EB4  7E                 	db	126
   734   007EB5  09                 	db	9
   735   007EB6  09                 	db	9
   736   007EB7  09                 	db	9
   737   007EB8  7E                 	db	126
   738   007EB9  7F                 	db	127
   739   007EBA  49                 	db	73
   740   007EBB  49                 	db	73
   741   007EBC  49                 	db	73
   742   007EBD  36                 	db	54
   743   007EBE  3E                 	db	62
   744   007EBF  41                 	db	65
   745   007EC0  41                 	db	65
   746   007EC1  41                 	db	65
   747   007EC2  22                 	db	34
   748   007EC3  7F                 	db	127
   749   007EC4  41                 	db	65
   750   007EC5  41                 	db	65
   751   007EC6  41                 	db	65
   752   007EC7  3E                 	db	62
   753   007EC8  7F                 	db	127
   754   007EC9  49                 	db	73
   755   007ECA  49                 	db	73
   756   007ECB  49                 	db	73
   757   007ECC  41                 	db	65
   758   007ECD  7F                 	db	127
   759   007ECE  09                 	db	9
   760   007ECF  09                 	db	9
   761   007ED0  09                 	db	9
   762   007ED1  01                 	db	1
   763   007ED2  3E                 	db	62
   764   007ED3  41                 	db	65
   765   007ED4  41                 	db	65
   766   007ED5  49                 	db	73
   767   007ED6  3A                 	db	58
   768   007ED7  7F                 	db	127
   769   007ED8  08                 	db	8
   770   007ED9  08                 	db	8
   771   007EDA  08                 	db	8
   772   007EDB  7F                 	db	127
   773   007EDC  00                 	db	0
   774   007EDD  41                 	db	65
   775   007EDE  7F                 	db	127
   776   007EDF  41                 	db	65
   777   007EE0  00                 	db	0
   778   007EE1  30                 	db	48
   779   007EE2  40                 	db	64
   780   007EE3  40                 	db	64
   781   007EE4  40                 	db	64
   782   007EE5  3F                 	db	63
   783   007EE6  7F                 	db	127
   784   007EE7  08                 	db	8
   785   007EE8  14                 	db	20
   786   007EE9  22                 	db	34
   787   007EEA  41                 	db	65
   788   007EEB  7F                 	db	127
   789   007EEC  40                 	db	64
   790   007EED  40                 	db	64
   791   007EEE  40                 	db	64
   792   007EEF  40                 	db	64
   793   007EF0  7F                 	db	127
   794   007EF1  02                 	db	2
   795   007EF2  0C                 	db	12
   796   007EF3  02                 	db	2
   797   007EF4  7F                 	db	127
   798   007EF5  7F                 	db	127
   799   007EF6  02                 	db	2
   800   007EF7  04                 	db	4
   801   007EF8  08                 	db	8
   802   007EF9  7F                 	db	127
   803   007EFA  3E                 	db	62
   804   007EFB  41                 	db	65
   805   007EFC  41                 	db	65
   806   007EFD  41                 	db	65
   807   007EFE  3E                 	db	62
   808   007EFF  7F                 	db	127
   809   007F00  09                 	db	9
   810   007F01  09                 	db	9
   811   007F02  09                 	db	9
   812   007F03  06                 	db	6
   813   007F04  1E                 	db	30
   814   007F05  21                 	db	33
   815   007F06  21                 	db	33
   816   007F07  21                 	db	33
   817   007F08  5E                 	db	94
   818   007F09  7F                 	db	127
   819   007F0A  09                 	db	9
   820   007F0B  09                 	db	9
   821   007F0C  09                 	db	9
   822   007F0D  76                 	db	118
   823   007F0E  26                 	db	38
   824   007F0F  49                 	db	73
   825   007F10  49                 	db	73
   826   007F11  49                 	db	73
   827   007F12  32                 	db	50
   828   007F13  01                 	db	1
   829   007F14  01                 	db	1
   830   007F15  7F                 	db	127
   831   007F16  01                 	db	1
   832   007F17  01                 	db	1
   833   007F18  3F                 	db	63
   834   007F19  40                 	db	64
   835   007F1A  40                 	db	64
   836   007F1B  40                 	db	64
   837   007F1C  3F                 	db	63
   838   007F1D  1F                 	db	31
   839   007F1E  20                 	db	32
   840   007F1F  40                 	db	64
   841   007F20  20                 	db	32
   842   007F21  1F                 	db	31
   843   007F22  7F                 	db	127
   844   007F23  20                 	db	32
   845   007F24  10                 	db	16
   846   007F25  20                 	db	32
   847   007F26  7F                 	db	127
   848   007F27  41                 	db	65
   849   007F28  22                 	db	34
   850   007F29  1C                 	db	28
   851   007F2A  22                 	db	34
   852   007F2B  41                 	db	65
   853   007F2C  07                 	db	7
   854   007F2D  08                 	db	8
   855   007F2E  70                 	db	112
   856   007F2F  08                 	db	8
   857   007F30  07                 	db	7
   858   007F31  61                 	db	97
   859   007F32  51                 	db	81
   860   007F33  49                 	db	73
   861   007F34  45                 	db	69
   862   007F35  43                 	db	67
   863   007F36  00                 	db	0
   864   007F37  7F                 	db	127
   865   007F38  41                 	db	65
   866   007F39  00                 	db	0
   867   007F3A  00                 	db	0
   868   007F3B  02                 	db	2
   869   007F3C  04                 	db	4
   870   007F3D  08                 	db	8
   871   007F3E  10                 	db	16
   872   007F3F  20                 	db	32
   873   007F40  00                 	db	0
   874   007F41  00                 	db	0
   875   007F42  41                 	db	65
   876   007F43  7F                 	db	127
   877   007F44  00                 	db	0
   878   007F45  04                 	db	4
   879   007F46  02                 	db	2
   880   007F47  01                 	db	1
   881   007F48  02                 	db	2
   882   007F49  04                 	db	4
   883   007F4A  40                 	db	64
   884   007F4B  40                 	db	64
   885   007F4C  40                 	db	64
   886   007F4D  40                 	db	64
   887   007F4E  40                 	db	64
   888   007F4F  00                 	db	0
   889   007F50  01                 	db	1
   890   007F51  02                 	db	2
   891   007F52  04                 	db	4
   892   007F53  00                 	db	0
   893   007F54  20                 	db	32
   894   007F55  54                 	db	84
   895   007F56  54                 	db	84
   896   007F57  54                 	db	84
   897   007F58  78                 	db	120
   898   007F59  7F                 	db	127
   899   007F5A  44                 	db	68
   900   007F5B  44                 	db	68
   901   007F5C  44                 	db	68
   902   007F5D  38                 	db	56
   903   007F5E  38                 	db	56
   904   007F5F  44                 	db	68
   905   007F60  44                 	db	68
   906   007F61  44                 	db	68
   907   007F62  44                 	db	68
   908   007F63  38                 	db	56
   909   007F64  44                 	db	68
   910   007F65  44                 	db	68
   911   007F66  44                 	db	68
   912   007F67  7F                 	db	127
   913   007F68  38                 	db	56
   914   007F69  54                 	db	84
   915   007F6A  54                 	db	84
   916   007F6B  54                 	db	84
   917   007F6C  18                 	db	24
   918   007F6D  04                 	db	4
   919   007F6E  04                 	db	4
   920   007F6F  7E                 	db	126
   921   007F70  05                 	db	5
   922   007F71  05                 	db	5
   923   007F72  08                 	db	8
   924   007F73  54                 	db	84
   925   007F74  54                 	db	84
   926   007F75  54                 	db	84
   927   007F76  3C                 	db	60
   928   007F77  7F                 	db	127
   929   007F78  08                 	db	8
   930   007F79  04                 	db	4
   931   007F7A  04                 	db	4
   932   007F7B  78                 	db	120
   933   007F7C  00                 	db	0
   934   007F7D  44                 	db	68
   935   007F7E  7D                 	db	125
   936   007F7F  40                 	db	64
   937   007F80  00                 	db	0
   938   007F81  20                 	db	32
   939   007F82  40                 	db	64
   940   007F83  44                 	db	68
   941   007F84  3D                 	db	61
   942   007F85  00                 	db	0
   943   007F86  7F                 	db	127
   944   007F87  10                 	db	16
   945   007F88  28                 	db	40
   946   007F89  44                 	db	68
   947   007F8A  00                 	db	0
   948   007F8B  00                 	db	0
   949   007F8C  41                 	db	65
   950   007F8D  7F                 	db	127
   951   007F8E  40                 	db	64
   952   007F8F  00                 	db	0
   953   007F90  7C                 	db	124
   954   007F91  04                 	db	4
   955   007F92  78                 	db	120
   956   007F93  04                 	db	4
   957   007F94  78                 	db	120
   958   007F95  7C                 	db	124
   959   007F96  08                 	db	8
   960   007F97  04                 	db	4
   961   007F98  04                 	db	4
   962   007F99  78                 	db	120
   963   007F9A  38                 	db	56
   964   007F9B  44                 	db	68
   965   007F9C  44                 	db	68
   966   007F9D  44                 	db	68
   967   007F9E  38                 	db	56
   968   007F9F  7C                 	db	124
   969   007FA0  14                 	db	20
   970   007FA1  14                 	db	20
   971   007FA2  14                 	db	20
   972   007FA3  08                 	db	8
   973   007FA4  08                 	db	8
   974   007FA5  14                 	db	20
   975   007FA6  14                 	db	20
   976   007FA7  14                 	db	20
   977   007FA8  7C                 	db	124
   978   007FA9  00                 	db	0
   979   007FAA  7C                 	db	124
   980   007FAB  08                 	db	8
   981   007FAC  04                 	db	4
   982   007FAD  04                 	db	4
   983   007FAE  48                 	db	72
   984   007FAF  54                 	db	84
   985   007FB0  54                 	db	84
   986   007FB1  54                 	db	84
   987   007FB2  20                 	db	32
   988   007FB3  04                 	db	4
   989   007FB4  04                 	db	4
   990   007FB5  3F                 	db	63
   991   007FB6  44                 	db	68
   992   007FB7  44                 	db	68
   993   007FB8  3C                 	db	60
   994   007FB9  40                 	db	64
   995   007FBA  40                 	db	64
   996   007FBB  20                 	db	32
   997   007FBC  7C                 	db	124
   998   007FBD  1C                 	db	28
   999   007FBE  20                 	db	32
  1000   007FBF  40                 	db	64
  1001   007FC0  20                 	db	32
  1002   007FC1  1C                 	db	28
  1003   007FC2  3C                 	db	60
  1004   007FC3  40                 	db	64
  1005   007FC4  30                 	db	48
  1006   007FC5  40                 	db	64
  1007   007FC6  3C                 	db	60
  1008   007FC7  44                 	db	68
  1009   007FC8  28                 	db	40
  1010   007FC9  10                 	db	16
  1011   007FCA  28                 	db	40
  1012   007FCB  44                 	db	68
  1013   007FCC  0C                 	db	12
  1014   007FCD  50                 	db	80
  1015   007FCE  50                 	db	80
  1016   007FCF  50                 	db	80
  1017   007FD0  3C                 	db	60
  1018   007FD1  44                 	db	68
  1019   007FD2  64                 	db	100
  1020   007FD3  54                 	db	84
  1021   007FD4  4C                 	db	76
  1022   007FD5  44                 	db	68
  1023   007FD6  00                 	db	0
  1024   007FD7  08                 	db	8
  1025   007FD8  36                 	db	54
  1026   007FD9  41                 	db	65
  1027   007FDA  41                 	db	65
  1028   007FDB  00                 	db	0
  1029   007FDC  00                 	db	0
  1030   007FDD  7F                 	db	127
  1031   007FDE  00                 	db	0
  1032   007FDF  00                 	db	0
  1033   007FE0  41                 	db	65
  1034   007FE1  41                 	db	65
  1035   007FE2  36                 	db	54
  1036   007FE3  08                 	db	8
  1037   007FE4  00                 	db	0
  1038   007FE5  02                 	db	2
  1039   007FE6  01                 	db	1
  1040   007FE7  02                 	db	2
  1041   007FE8  04                 	db	4
  1042   007FE9  02                 	db	2
  1043   007FEA  FF                 	db	255
  1044   007FEB  81                 	db	129
  1045   007FEC  81                 	db	129
  1046   007FED  81                 	db	129
  1047   007FEE  FF                 	db	255
  1048   007FEF                     __end_of_TEXT5x8:
  1049                           	callstack 0
  1050   000FCA                     _T2CON          set	4042
  1051   000FCD                     _T1CON          set	4045
  1052   000F95                     _TRISDbits      set	3989
  1053   000F94                     _TRISCbits      set	3988
  1054   000F94                     _TRISC          set	3988
  1055   000F95                     _TRISD          set	3989
  1056   000FB4                     _CMCON          set	4020
  1057   000FC1                     _ADCON1         set	4033
  1058   000FD3                     _OSCCON         set	4051
  1059   000FCC                     _TMR2           set	4044
  1060   000FCB                     _PR2            set	4043
  1061   000FCD                     _T1CONbits      set	4045
  1062   000F83                     _PORTDbits      set	3971
  1063   000FCE                     _TMR1L          set	4046
  1064   000FCF                     _TMR1H          set	4047
  1065   000FCA                     _T2CONbits      set	4042
  1066   000F8C                     _LATDbits       set	3980
  1067   000F9E                     _PIR1bits       set	3998
  1068   000FAE                     _RCREG          set	4014
  1069   000FAD                     _TXREG          set	4013
  1070   000FF2                     _INTCONbits     set	4082
  1071   000F9D                     _PIE1bits       set	3997
  1072   000FB0                     _SPBRGH         set	4016
  1073   000FAF                     _SPBRG          set	4015
  1074   000FC7                     _SSPSTATbits    set	4039
  1075   000FC9                     _SSPBUF         set	4041
  1076   000FC7                     _SSPSTAT        set	4039
  1077   000FC8                     _SSPADD         set	4040
  1078   000FC5                     _SSPCON2        set	4037
  1079   000FC6                     _SSPCON1        set	4038
  1080   007CF5                     _RCIF           set	31989
  1081   007CF4                     _TXIF           set	31988
  1082   007D65                     _TXEN           set	32101
  1083   007D66                     _TX9            set	32102
  1084   007D5C                     _CREN           set	32092
  1085   007D5E                     _RX9            set	32094
  1086   007D5F                     _SPEN           set	32095
  1087   007D64                     _SYNC           set	32100
  1088   007DC3                     _BRG16          set	32195
  1089   007D62                     _BRGH           set	32098
  1090   007E2C                     _ACKEN          set	32300
  1091   007E2D                     _ACKDT          set	32301
  1092   007E2B                     _RCEN           set	32299
  1093   007CF3                     _SSPIF          set	31987
  1094   007E2A                     _PEN            set	32298
  1095   007E29                     _RSEN           set	32297
  1096   007E28                     _SEN            set	32296
  1097   007FEF                     STR_3:
  1098                           
  1099                           ; BSR set to: 0
  1100   007FEF  69                 	db	105	;'i'
  1101   007FF0  6E                 	db	110	;'n'
  1102   007FF1  66                 	db	102	;'f'
  1103   007FF2  00                 	db	0
  1104   007FF3                     STR_6:
  1105                           
  1106                           ; BSR set to: 0
  1107   007FF3  6E                 	db	110	;'n'
  1108   007FF4  61                 	db	97	;'a'
  1109   007FF5  6E                 	db	110	;'n'
  1110   007FF6  00                 	db	0
  1111   007FF7                     STR_2:
  1112                           
  1113                           ; BSR set to: 0
  1114   007FF7  25                 	db	37
  1115   007FF8  66                 	db	102	;'f'
  1116   007FF9  0A                 	db	10
  1117   007FFA  00                 	db	0
  1118   007FFB                     STR_1:
  1119                           
  1120                           ; BSR set to: 0
  1121   007FFB  25                 	db	37
  1122   007FFC  75                 	db	117	;'u'
  1123   007FFD  0A                 	db	10
  1124   007FFE  00                 	db	0
  1125   007FF3                     STR_7           equ	STR_6
  1126   007FF3                     STR_8           equ	STR_6
  1127   007FEF                     STR_4           equ	STR_3
  1128   007FEF                     STR_5           equ	STR_3
  1129   007FFF  00                 	db	0	; dummy byte at the end
  1130   007E0E                     __smallconst    set	__pmediumconst
  1131   007E0E                     __mediumconst   set	__pmediumconst
  1132   000002                     __activetblptr  equ	2
  1133                           
  1134                           ; #config settings
  1135                           
  1136                           	psect	cinit
  1137   00367C                     __pcinit:
  1138                           	callstack 0
  1139   00367C                     start_initialization:
  1140                           	callstack 0
  1141   00367C                     __initialization:
  1142                           	callstack 0
  1143                           
  1144                           ; Clear objects allocated to BANK1 (80 bytes)
  1145   00367C  EE01  F000         	lfsr	0,__pbssBANK1
  1146   003680  0E50               	movlw	80
  1147   003682                     clear_0:
  1148   003682  6AEE               	clrf	postinc0,c
  1149   003684  06E8               	decf	wreg,f,c
  1150   003686  E1FD               	bnz	clear_0
  1151                           
  1152                           ; Clear objects allocated to BANK0 (21 bytes)
  1153   003688  EE00  F0BB         	lfsr	0,__pbssBANK0
  1154   00368C  0E15               	movlw	21
  1155   00368E                     clear_1:
  1156   00368E  6AEE               	clrf	postinc0,c
  1157   003690  06E8               	decf	wreg,f,c
  1158   003692  E1FD               	bnz	clear_1
  1159                           
  1160                           ; Clear objects allocated to COMRAM (4 bytes)
  1161   003694  6A5D               	clrf	(__pbssCOMRAM+3)& (0+255),c
  1162   003696  6A5C               	clrf	(__pbssCOMRAM+2)& (0+255),c
  1163   003698  6A5B               	clrf	(__pbssCOMRAM+1)& (0+255),c
  1164   00369A  6A5A               	clrf	__pbssCOMRAM& (0+255),c
  1165   00369C                     end_of_initialization:
  1166                           	callstack 0
  1167   00369C                     __end_of__initialization:
  1168                           	callstack 0
  1169   00369C  905E               	bcf	int$flags,0,c	;clear compiler interrupt flag (level 1)
  1170   00369E  925E               	bcf	int$flags,1,c	;clear compiler interrupt flag (level 2)
  1171   0036A0  0E00               	movlw	low (__Lmediumconst shr (0+16))
  1172   0036A2  6EF8               	movwf	tblptru,c
  1173   0036A4  0100               	movlb	0
  1174   0036A6  EF27  F00E         	goto	_main	;jump to C main() function
  1175                           
  1176                           	psect	bssCOMRAM
  1177   00005A                     __pbssCOMRAM:
  1178                           	callstack 0
  1179   00005A                     _yaw_angle:
  1180                           	callstack 0
  1181   00005A                     	ds	4
  1182                           
  1183                           	psect	bssBANK0
  1184   0000BB                     __pbssBANK0:
  1185                           	callstack 0
  1186   0000BB                     floorf@F521:
  1187                           	callstack 0
  1188   0000BB                     	ds	4
  1189   0000BF                     ___fpclassifyf@F465:
  1190                           	callstack 0
  1191   0000BF                     	ds	4
  1192   0000C3                     _tone_toggle_count:
  1193                           	callstack 0
  1194   0000C3                     	ds	4
  1195   0000C7                     _width:
  1196                           	callstack 0
  1197   0000C7                     	ds	2
  1198   0000C9                     _prec:
  1199                           	callstack 0
  1200   0000C9                     	ds	2
  1201   0000CB                     _gyro_z_offset:
  1202                           	callstack 0
  1203   0000CB                     	ds	2
  1204   0000CD                     _flags:
  1205                           	callstack 0
  1206   0000CD                     	ds	1
  1207   0000CE                     _rxFlag:
  1208                           	callstack 0
  1209   0000CE                     	ds	1
  1210   0000CF                     _rxData:
  1211                           	callstack 0
  1212   0000CF                     	ds	1
  1213                           
  1214                           	psect	bssBANK1
  1215   000100                     __pbssBANK1:
  1216                           	callstack 0
  1217   000100                     _dbuf:
  1218                           	callstack 0
  1219   000100                     	ds	80
  1220                           
  1221                           	psect	cstackBANK0
  1222   000060                     __pcstackBANK0:
  1223                           	callstack 0
  1224   000060                     efgtoa@ne:
  1225                           	callstack 0
  1226                           
  1227                           ; 2 bytes @ 0x0
  1228   000060                     	ds	2
  1229   000062                     efgtoa@p:
  1230                           	callstack 0
  1231                           
  1232                           ; 2 bytes @ 0x2
  1233   000062                     	ds	2
  1234   000064                     efgtoa@t:
  1235                           	callstack 0
  1236                           
  1237                           ; 2 bytes @ 0x4
  1238   000064                     	ds	2
  1239   000066                     _efgtoa$1381:
  1240                           	callstack 0
  1241                           
  1242                           ; 2 bytes @ 0x6
  1243   000066                     	ds	2
  1244   000068                     efgtoa@pp:
  1245                           	callstack 0
  1246                           
  1247                           ; 1 bytes @ 0x8
  1248   000068                     	ds	1
  1249   000069                     efgtoa@mode:
  1250                           	callstack 0
  1251                           
  1252                           ; 1 bytes @ 0x9
  1253   000069                     	ds	1
  1254   00006A                     efgtoa@nmode:
  1255                           	callstack 0
  1256                           
  1257                           ; 1 bytes @ 0xA
  1258   00006A                     	ds	1
  1259   00006B                     efgtoa@d:
  1260                           	callstack 0
  1261                           
  1262                           ; 2 bytes @ 0xB
  1263   00006B                     	ds	2
  1264   00006D                     efgtoa@m:
  1265                           	callstack 0
  1266                           
  1267                           ; 2 bytes @ 0xD
  1268   00006D                     	ds	2
  1269   00006F                     efgtoa@e:
  1270                           	callstack 0
  1271                           
  1272                           ; 2 bytes @ 0xF
  1273   00006F                     	ds	2
  1274   000071                     efgtoa@w:
  1275                           	callstack 0
  1276                           
  1277                           ; 2 bytes @ 0x11
  1278   000071                     	ds	2
  1279   000073                     efgtoa@ou:
  1280                           	callstack 0
  1281                           
  1282                           ; 4 bytes @ 0x13
  1283   000073                     	ds	4
  1284   000077                     efgtoa@i:
  1285                           	callstack 0
  1286                           
  1287                           ; 2 bytes @ 0x17
  1288   000077                     	ds	2
  1289   000079                     efgtoa@h:
  1290                           	callstack 0
  1291                           
  1292                           ; 4 bytes @ 0x19
  1293   000079                     	ds	4
  1294   00007D                     efgtoa@l:
  1295                           	callstack 0
  1296                           
  1297                           ; 4 bytes @ 0x1D
  1298   00007D                     	ds	4
  1299   000081                     efgtoa@sign:
  1300                           	callstack 0
  1301                           
  1302                           ; 1 bytes @ 0x21
  1303   000081                     	ds	1
  1304   000082                     efgtoa@n:
  1305                           	callstack 0
  1306                           
  1307                           ; 2 bytes @ 0x22
  1308   000082                     	ds	2
  1309   000084                     efgtoa@g:
  1310                           	callstack 0
  1311                           
  1312                           ; 4 bytes @ 0x24
  1313   000084                     	ds	4
  1314   000088                     efgtoa@u:
  1315                           	callstack 0
  1316                           
  1317                           ; 4 bytes @ 0x28
  1318   000088                     	ds	4
  1319   00008C                     ?_sprintf:
  1320                           	callstack 0
  1321   00008C                     sprintf@s:
  1322                           	callstack 0
  1323                           
  1324                           ; 1 bytes @ 0x2C
  1325   00008C                     	ds	1
  1326   00008D                     sprintf@fmt:
  1327                           	callstack 0
  1328                           
  1329                           ; 2 bytes @ 0x2D
  1330   00008D                     	ds	6
  1331   000093                     sprintf@ap:
  1332                           	callstack 0
  1333                           
  1334                           ; 1 bytes @ 0x33
  1335   000093                     	ds	1
  1336   000094                     sprintf@f:
  1337                           	callstack 0
  1338                           
  1339                           ; 11 bytes @ 0x34
  1340   000094                     	ds	11
  1341   00009F                     UpdateScreen@dist:
  1342                           	callstack 0
  1343                           
  1344                           ; 2 bytes @ 0x3F
  1345   00009F                     	ds	2
  1346   0000A1                     UpdateScreen@a:
  1347                           	callstack 0
  1348                           
  1349                           ; 7 bytes @ 0x41
  1350   0000A1                     	ds	7
  1351   0000A8                     ??_main:
  1352                           
  1353                           ; 1 bytes @ 0x48
  1354   0000A8                     	ds	2
  1355   0000AA                     main@a:
  1356                           	callstack 0
  1357                           
  1358                           ; 10 bytes @ 0x4A
  1359   0000AA                     	ds	10
  1360   0000B4                     main@dist:
  1361                           	callstack 0
  1362                           
  1363                           ; 2 bytes @ 0x54
  1364   0000B4                     	ds	2
  1365   0000B6                     main@oldCmd:
  1366                           	callstack 0
  1367                           
  1368                           ; 1 bytes @ 0x56
  1369   0000B6                     	ds	1
  1370   0000B7                     main@sensorTouch:
  1371                           	callstack 0
  1372                           
  1373                           ; 2 bytes @ 0x57
  1374   0000B7                     	ds	2
  1375   0000B9                     main@updateScn:
  1376                           	callstack 0
  1377                           
  1378                           ; 1 bytes @ 0x59
  1379   0000B9                     	ds	1
  1380   0000BA                     main@cmd:
  1381                           	callstack 0
  1382                           
  1383                           ; 1 bytes @ 0x5A
  1384   0000BA                     	ds	1
  1385                           
  1386                           	psect	cstackCOMRAM
  1387   000001                     __pcstackCOMRAM:
  1388                           	callstack 0
  1389   000001                     ?___fpclassifyf:
  1390                           	callstack 0
  1391   000001                     ?___lwdiv:
  1392                           	callstack 0
  1393   000001                     ?___lwmod:
  1394                           	callstack 0
  1395   000001                     ?_labs:
  1396                           	callstack 0
  1397   000001                     ?___lmul:
  1398                           	callstack 0
  1399   000001                     ?___aldiv:
  1400                           	callstack 0
  1401   000001                     ?___flneg:
  1402                           	callstack 0
  1403   000001                     ?___xxtofl:
  1404                           	callstack 0
  1405   000001                     SendByte@ch:
  1406                           	callstack 0
  1407   000001                     ___lwdiv@dividend:
  1408                           	callstack 0
  1409   000001                     ___lwmod@dividend:
  1410                           	callstack 0
  1411   000001                     memcpy@d1:
  1412                           	callstack 0
  1413   000001                     fputc@c:
  1414                           	callstack 0
  1415   000001                     strcpy@dest:
  1416                           	callstack 0
  1417   000001                     ___lmul@multiplier:
  1418                           	callstack 0
  1419   000001                     ___aldiv@dividend:
  1420                           	callstack 0
  1421   000001                     ___fleq@ff1:
  1422                           	callstack 0
  1423   000001                     ___flneg@f1:
  1424                           	callstack 0
  1425   000001                     ___xxtofl@val:
  1426                           	callstack 0
  1427   000001                     ___fpclassifyf@x:
  1428                           	callstack 0
  1429   000001                     labs@a:
  1430                           	callstack 0
  1431   000001                     ??_I2C_Hold:
  1432   000001                     
  1433                           ; 1 bytes @ 0x0
  1434   000001                     	ds	1
  1435   000002                     I2C_Write@data:
  1436                           	callstack 0
  1437   000002                     I2C_Read@ack:
  1438                           	callstack 0
  1439   000002                     SendString@str:
  1440                           	callstack 0
  1441   000002                     
  1442                           ; 1 bytes @ 0x1
  1443   000002                     	ds	1
  1444   000003                     I2C_Read@data:
  1445                           	callstack 0
  1446   000003                     SSD1306_WriteCommand@cmd:
  1447                           	callstack 0
  1448   000003                     fputc@fp:
  1449                           	callstack 0
  1450   000003                     SSD1306_ClearScreen@i:
  1451                           	callstack 0
  1452   000003                     ___lwdiv@divisor:
  1453                           	callstack 0
  1454   000003                     ___lwmod@divisor:
  1455                           	callstack 0
  1456   000003                     memcpy@s1:
  1457                           	callstack 0
  1458   000003                     strcpy@src:
  1459                           	callstack 0
  1460   000003                     
  1461                           ; 1 bytes @ 0x2
  1462   000003                     	ds	1
  1463   000004                     ?_MPU6050_ReadGyroZ:
  1464                           	callstack 0
  1465   000004                     ??_fputc:
  1466   000004                     ??_SSD1306_Init:
  1467                           
  1468                           ; 1 bytes @ 0x3
  1469   000004                     	ds	1
  1470   000005                     ___lwmod@counter:
  1471                           	callstack 0
  1472   000005                     SSD1306_ClearScreen@j:
  1473                           	callstack 0
  1474   000005                     ___lwdiv@quotient:
  1475                           	callstack 0
  1476   000005                     memcpy@n:
  1477                           	callstack 0
  1478   000005                     strcpy@d:
  1479                           	callstack 0
  1480   000005                     ___lmul@multiplicand:
  1481                           	callstack 0
  1482   000005                     ___aldiv@divisor:
  1483                           	callstack 0
  1484   000005                     ___fleq@ff2:
  1485                           	callstack 0
  1486   000005                     ??___fpclassifyf:
  1487   000005                     ??_labs:
  1488   000005                     ??___xxtofl:
  1489                           
  1490                           ; 1 bytes @ 0x4
  1491   000005                     	ds	1
  1492   000006                     ??_MPU6050_ReadGyroZ:
  1493                           
  1494                           ; 1 bytes @ 0x5
  1495   000006                     	ds	1
  1496   000007                     ___lwdiv@counter:
  1497                           	callstack 0
  1498   000007                     memcpy@d:
  1499                           	callstack 0
  1500   000007                     
  1501                           ; 1 bytes @ 0x6
  1502   000007                     	ds	1
  1503   000008                     MPU6050_ReadGyroZ@high:
  1504                           	callstack 0
  1505                           
  1506                           ; 1 bytes @ 0x7
  1507   000008                     	ds	1
  1508   000009                     MPU6050_ReadGyroZ@low:
  1509                           	callstack 0
  1510   000009                     ___aldiv@counter:
  1511                           	callstack 0
  1512   000009                     ___xxtofl@sign:
  1513                           	callstack 0
  1514   000009                     memcpy@s:
  1515                           	callstack 0
  1516   000009                     ___fpclassifyf@e:
  1517                           	callstack 0
  1518   000009                     fputs@s:
  1519                           	callstack 0
  1520   000009                     ___lmul@product:
  1521                           	callstack 0
  1522   000009                     ??___fleq:
  1523                           
  1524                           ; 1 bytes @ 0x8
  1525   000009                     	ds	1
  1526   00000A                     ___aldiv@sign:
  1527                           	callstack 0
  1528   00000A                     ___xxtofl@exp:
  1529                           	callstack 0
  1530                           
  1531                           ; 1 bytes @ 0x9
  1532   00000A                     	ds	1
  1533   00000B                     memcpy@tmp:
  1534                           	callstack 0
  1535   00000B                     fputs@fp:
  1536                           	callstack 0
  1537   00000B                     ___aldiv@quotient:
  1538                           	callstack 0
  1539   00000B                     ___xxtofl@arg:
  1540                           	callstack 0
  1541   00000B                     ___fpclassifyf@u:
  1542                           	callstack 0
  1543                           
  1544                           ; 4 bytes @ 0xA
  1545   00000B                     	ds	1
  1546   00000C                     SSD1306_String@data:
  1547                           	callstack 0
  1548   00000C                     fputs@c:
  1549                           	callstack 0
  1550   00000C                     
  1551                           ; 1 bytes @ 0xB
  1552   00000C                     	ds	1
  1553   00000D                     ?___lldiv:
  1554                           	callstack 0
  1555   00000D                     fputs@i:
  1556                           	callstack 0
  1557   00000D                     ___lldiv@dividend:
  1558                           	callstack 0
  1559   00000D                     ??_SSD1306_String:
  1560                           
  1561                           ; 1 bytes @ 0xC
  1562   00000D                     	ds	2
  1563   00000F                     ?___fldiv:
  1564                           	callstack 0
  1565   00000F                     ?___flmul:
  1566                           	callstack 0
  1567   00000F                     pad@fp:
  1568                           	callstack 0
  1569   00000F                     ___fldiv@b:
  1570                           	callstack 0
  1571   00000F                     ___flmul@b:
  1572                           	callstack 0
  1573   00000F                     ??_CalibrateGyro:
  1574                           
  1575                           ; 1 bytes @ 0xE
  1576   00000F                     	ds	1
  1577   000010                     pad@buf:
  1578                           	callstack 0
  1579                           
  1580                           ; 2 bytes @ 0xF
  1581   000010                     	ds	1
  1582   000011                     ___lldiv@divisor:
  1583                           	callstack 0
  1584                           
  1585                           ; 4 bytes @ 0x10
  1586   000011                     	ds	1
  1587   000012                     pad@p:
  1588                           	callstack 0
  1589   000012                     SSD1306_String@pixData:
  1590                           	callstack 0
  1591                           
  1592                           ; 5 bytes @ 0x11
  1593   000012                     	ds	1
  1594   000013                     CalibrateGyro@sum:
  1595                           	callstack 0
  1596   000013                     ___fldiv@a:
  1597                           	callstack 0
  1598   000013                     ___flmul@a:
  1599                           	callstack 0
  1600                           
  1601                           ; 4 bytes @ 0x12
  1602   000013                     	ds	1
  1603   000014                     ??_pad:
  1604                           
  1605                           ; 1 bytes @ 0x13
  1606   000014                     	ds	1
  1607   000015                     pad@i:
  1608                           	callstack 0
  1609   000015                     ___lldiv@quotient:
  1610                           	callstack 0
  1611   000015                     
  1612                           ; 1 bytes @ 0x14
  1613   000015                     	ds	2
  1614   000017                     SSD1306_String@a:
  1615                           	callstack 0
  1616   000017                     CalibrateGyro@i:
  1617                           	callstack 0
  1618   000017                     ??___fldiv:
  1619   000017                     ??___flmul:
  1620                           
  1621                           ; 1 bytes @ 0x16
  1622   000017                     	ds	2
  1623   000019                     ___lldiv@counter:
  1624                           	callstack 0
  1625   000019                     SSD1306_String@i:
  1626                           	callstack 0
  1627   000019                     
  1628                           ; 1 bytes @ 0x18
  1629   000019                     	ds	1
  1630   00001A                     tone@frequency:
  1631                           	callstack 0
  1632                           
  1633                           ; 2 bytes @ 0x19
  1634   00001A                     	ds	1
  1635   00001B                     ___flmul@sign:
  1636                           	callstack 0
  1637   00001B                     ___fldiv@rem:
  1638                           	callstack 0
  1639                           
  1640                           ; 4 bytes @ 0x1A
  1641   00001B                     	ds	1
  1642   00001C                     tone@duration_ms:
  1643                           	callstack 0
  1644   00001C                     ___flmul@grs:
  1645                           	callstack 0
  1646                           
  1647                           ; 4 bytes @ 0x1B
  1648   00001C                     	ds	2
  1649   00001E                     ??_tone:
  1650                           
  1651                           ; 1 bytes @ 0x1D
  1652   00001E                     	ds	1
  1653   00001F                     ___fldiv@sign:
  1654                           	callstack 0
  1655                           
  1656                           ; 1 bytes @ 0x1E
  1657   00001F                     	ds	1
  1658   000020                     ___flmul@aexp:
  1659                           	callstack 0
  1660   000020                     ___fldiv@new_exp:
  1661                           	callstack 0
  1662                           
  1663                           ; 2 bytes @ 0x1F
  1664   000020                     	ds	1
  1665   000021                     ___flmul@bexp:
  1666                           	callstack 0
  1667                           
  1668                           ; 1 bytes @ 0x20
  1669   000021                     	ds	1
  1670   000022                     tone@period_us:
  1671                           	callstack 0
  1672   000022                     ___fldiv@grs:
  1673                           	callstack 0
  1674   000022                     ___flmul@prod:
  1675                           	callstack 0
  1676                           
  1677                           ; 4 bytes @ 0x21
  1678   000022                     	ds	4
  1679   000026                     ___fldiv@bexp:
  1680                           	callstack 0
  1681   000026                     tone@pr:
  1682                           	callstack 0
  1683   000026                     ___flmul@temp:
  1684                           	callstack 0
  1685                           
  1686                           ; 2 bytes @ 0x25
  1687   000026                     	ds	1
  1688   000027                     ___fldiv@aexp:
  1689                           	callstack 0
  1690                           
  1691                           ; 1 bytes @ 0x26
  1692   000027                     	ds	1
  1693   000028                     ?___fladd:
  1694                           	callstack 0
  1695   000028                     ?_floorf:
  1696                           	callstack 0
  1697   000028                     ?___fltol:
  1698                           	callstack 0
  1699   000028                     tone@prescaler_bits:
  1700                           	callstack 0
  1701   000028                     ___flge@ff1:
  1702                           	callstack 0
  1703   000028                     ___fltol@f1:
  1704                           	callstack 0
  1705   000028                     ___fladd@b:
  1706                           	callstack 0
  1707   000028                     floorf@x:
  1708                           	callstack 0
  1709                           
  1710                           ; 4 bytes @ 0x27
  1711   000028                     	ds	1
  1712   000029                     tone@toggle_time_us:
  1713                           	callstack 0
  1714                           
  1715                           ; 2 bytes @ 0x28
  1716   000029                     	ds	2
  1717   00002B                     ??_playNotes:
  1718   00002B                     ??_playConfusedTone:
  1719   00002B                     ??_noise:
  1720                           
  1721                           ; 1 bytes @ 0x2A
  1722   00002B                     	ds	1
  1723   00002C                     ___flge@ff2:
  1724                           	callstack 0
  1725   00002C                     ___fladd@a:
  1726                           	callstack 0
  1727   00002C                     ??_floorf:
  1728   00002C                     ??___fltol:
  1729                           
  1730                           ; 1 bytes @ 0x2B
  1731   00002C                     	ds	1
  1732   00002D                     noise@i_775:
  1733                           	callstack 0
  1734                           
  1735                           ; 2 bytes @ 0x2C
  1736   00002D                     	ds	2
  1737   00002F                     noise@i_776:
  1738                           	callstack 0
  1739                           
  1740                           ; 2 bytes @ 0x2E
  1741   00002F                     	ds	1
  1742   000030                     ___fltol@sign1:
  1743                           	callstack 0
  1744   000030                     ??___fladd:
  1745   000030                     ??___flge:
  1746                           
  1747                           ; 1 bytes @ 0x2F
  1748   000030                     	ds	1
  1749   000031                     ___fltol@exp1:
  1750                           	callstack 0
  1751   000031                     noise@i_777:
  1752                           	callstack 0
  1753                           
  1754                           ; 2 bytes @ 0x30
  1755   000031                     	ds	1
  1756   000032                     ?_GetDistance:
  1757                           	callstack 0
  1758   000032                     floorf@m:
  1759                           	callstack 0
  1760                           
  1761                           ; 4 bytes @ 0x31
  1762   000032                     	ds	1
  1763   000033                     noise@i_778:
  1764                           	callstack 0
  1765                           
  1766                           ; 2 bytes @ 0x32
  1767   000033                     	ds	1
  1768   000034                     ___fladd@signs:
  1769                           	callstack 0
  1770   000034                     ??_GetDistance:
  1771                           
  1772                           ; 1 bytes @ 0x33
  1773   000034                     	ds	1
  1774   000035                     ___fladd@aexp:
  1775                           	callstack 0
  1776   000035                     noise@i:
  1777                           	callstack 0
  1778                           
  1779                           ; 2 bytes @ 0x34
  1780   000035                     	ds	1
  1781   000036                     ___fladd@bexp:
  1782                           	callstack 0
  1783   000036                     GetDistance@distance_cm:
  1784                           	callstack 0
  1785   000036                     floorf@e:
  1786                           	callstack 0
  1787                           
  1788                           ; 2 bytes @ 0x35
  1789   000036                     	ds	1
  1790   000037                     ___fladd@grs:
  1791                           	callstack 0
  1792   000037                     noise@i_774:
  1793                           	callstack 0
  1794                           
  1795                           ; 2 bytes @ 0x36
  1796   000037                     	ds	1
  1797   000038                     ?___flsub:
  1798                           	callstack 0
  1799   000038                     GetDistance@pulseWidth:
  1800                           	callstack 0
  1801   000038                     ___flsub@b:
  1802                           	callstack 0
  1803   000038                     floorf@u:
  1804                           	callstack 0
  1805                           
  1806                           ; 4 bytes @ 0x37
  1807   000038                     	ds	4
  1808   00003C                     ___flsub@a:
  1809                           	callstack 0
  1810                           
  1811                           ; 4 bytes @ 0x3B
  1812   00003C                     	ds	4
  1813   000040                     efgtoa@fp:
  1814                           	callstack 0
  1815   000040                     updateYaw@corrected:
  1816                           	callstack 0
  1817   000040                     
  1818                           ; 1 bytes @ 0x3F
  1819   000040                     	ds	1
  1820   000041                     efgtoa@f:
  1821                           	callstack 0
  1822                           
  1823                           ; 4 bytes @ 0x40
  1824   000041                     	ds	1
  1825   000042                     updateYaw@gyro_z_dps:
  1826                           	callstack 0
  1827                           
  1828                           ; 4 bytes @ 0x41
  1829   000042                     	ds	3
  1830   000045                     efgtoa@c:
  1831                           	callstack 0
  1832                           
  1833                           ; 1 bytes @ 0x44
  1834   000045                     	ds	1
  1835   000046                     updateYaw@gyro_z_raw:
  1836                           	callstack 0
  1837   000046                     ??_efgtoa:
  1838                           
  1839                           ; 1 bytes @ 0x45
  1840   000046                     	ds	2
  1841   000048                     vfpfcnvrt@fp:
  1842                           	callstack 0
  1843                           
  1844                           ; 1 bytes @ 0x47
  1845   000048                     	ds	1
  1846   000049                     vfpfcnvrt@fmt:
  1847                           	callstack 0
  1848                           
  1849                           ; 1 bytes @ 0x48
  1850   000049                     	ds	1
  1851   00004A                     vfpfcnvrt@ap:
  1852                           	callstack 0
  1853                           
  1854                           ; 1 bytes @ 0x49
  1855   00004A                     	ds	1
  1856   00004B                     ??_vfpfcnvrt:
  1857                           
  1858                           ; 1 bytes @ 0x4A
  1859   00004B                     	ds	2
  1860   00004D                     vfpfcnvrt@convarg:
  1861                           	callstack 0
  1862                           
  1863                           ; 4 bytes @ 0x4C
  1864   00004D                     	ds	4
  1865   000051                     vfpfcnvrt@c:
  1866                           	callstack 0
  1867                           
  1868                           ; 1 bytes @ 0x50
  1869   000051                     	ds	1
  1870   000052                     vfpfcnvrt@cp:
  1871                           	callstack 0
  1872                           
  1873                           ; 2 bytes @ 0x51
  1874   000052                     	ds	2
  1875   000054                     ?_vfprintf:
  1876                           	callstack 0
  1877   000054                     vfprintf@fp:
  1878                           	callstack 0
  1879                           
  1880                           ; 1 bytes @ 0x53
  1881   000054                     	ds	1
  1882   000055                     vfprintf@fmt:
  1883                           	callstack 0
  1884                           
  1885                           ; 2 bytes @ 0x54
  1886   000055                     	ds	2
  1887   000057                     vfprintf@ap:
  1888                           	callstack 0
  1889                           
  1890                           ; 1 bytes @ 0x56
  1891   000057                     	ds	1
  1892   000058                     vfprintf@cfmt:
  1893                           	callstack 0
  1894   000058                     
  1895                           ; 1 bytes @ 0x57
  1896   000058                     	ds	2
  1897   00005A                     
  1898                           ; 1 bytes @ 0x59
  1899 ;;
  1900 ;;Main: autosize = 0, tempsize = 2, incstack = 0, save=0
  1901 ;;
  1902 ;; *************** function _main *****************
  1903 ;; Defined at:
  1904 ;;		line 268 in file "main.c"
  1905 ;; Parameters:    Size  Location     Type
  1906 ;;		None
  1907 ;; Auto vars:     Size  Location     Type
  1908 ;;  a              10   74[BANK0 ] unsigned char [10]
  1909 ;;  sensorTouch     2   87[BANK0 ] unsigned int 
  1910 ;;  dist            2   84[BANK0 ] unsigned int 
  1911 ;;  cmd             1   90[BANK0 ] unsigned char 
  1912 ;;  updateScn       1   89[BANK0 ] unsigned char 
  1913 ;;  oldCmd          1   86[BANK0 ] unsigned char 
  1914 ;; Return value:  Size  Location     Type
  1915 ;;                  1    wreg      void 
  1916 ;; Registers used:
  1917 ;;		wreg, fsr1l, fsr1h, fsr2l, fsr2h, status,2, status,0, tblptrl, tblptrh, tblptru, prodl, prodh, cstack
  1918 ;; Tracked objects:
  1919 ;;		On entry : 0/0
  1920 ;;		On exit  : 0/0
  1921 ;;		Unchanged: 0/0
  1922 ;; Data sizes:     COMRAM   BANK0   BANK1   BANK2   BANK3   BANK4   BANK5
  1923 ;;      Params:         0       0       0       0       0       0       0
  1924 ;;      Locals:         0      17       0       0       0       0       0
  1925 ;;      Temps:          0       2       0       0       0       0       0
  1926 ;;      Totals:         0      19       0       0       0       0       0
  1927 ;;Total ram usage:       19 bytes
  1928 ;; Hardware stack levels required when called: 11
  1929 ;; This function calls:
  1930 ;;		_GetDistance
  1931 ;;		_I2C_Init
  1932 ;;		_MPU6050_Init
  1933 ;;		_SSD1306_ClearScreen
  1934 ;;		_SSD1306_GotoStart
  1935 ;;		_SSD1306_Init
  1936 ;;		_SSD1306_String
  1937 ;;		_SendByte
  1938 ;;		_USART_Init
  1939 ;;		_UpdateScreen
  1940 ;;		_noise
  1941 ;;		_playConfusedTone
  1942 ;;		_playNotes
  1943 ;;		_sprintf
  1944 ;;		_updateYaw
  1945 ;; This function is called by:
  1946 ;;		Startup code after reset
  1947 ;; This function uses a non-reentrant model
  1948 ;;
  1949                           
  1950                           	psect	text0
  1951   001C4E                     __ptext0:
  1952                           	callstack 0
  1953   001C4E                     _main:
  1954                           	callstack 20
  1955   001C4E                     
  1956                           ;main.c: 269:     OSCCON = 0b01100010;
  1957   001C4E  0E62               	movlw	98
  1958   001C50  6ED3               	movwf	211,c	;volatile
  1959                           
  1960                           ;main.c: 270:     ADCON1 = 0x0F;
  1961   001C52  0E0F               	movlw	15
  1962   001C54  6EC1               	movwf	193,c	;volatile
  1963                           
  1964                           ;main.c: 271:     CMCON = 0x07;
  1965   001C56  0E07               	movlw	7
  1966   001C58  6EB4               	movwf	180,c	;volatile
  1967   001C5A                     
  1968                           ;main.c: 272:     TRISD = 0x00;
  1969   001C5A  6A95               	clrf	149,c	;volatile
  1970   001C5C                     
  1971                           ;main.c: 273:     TRISC = 0xFF;
  1972   001C5C  6894               	setf	148,c	;volatile
  1973   001C5E                     
  1974                           ;main.c: 274:     TRISCbits.TRISC6 = 0;
  1975   001C5E  9C94               	bcf	148,6,c	;volatile
  1976   001C60                     
  1977                           ;main.c: 275:     TRISDbits.TRISD3 = 1;
  1978   001C60  8695               	bsf	149,3,c	;volatile
  1979   001C62                     
  1980                           ;main.c: 276:     TRISDbits.TRISD2 = 0;
  1981   001C62  9495               	bcf	149,2,c	;volatile
  1982   001C64                     
  1983                           ;main.c: 277:     TRISDbits.TRISD1 = 0;
  1984   001C64  9295               	bcf	149,1,c	;volatile
  1985   001C66                     
  1986                           ;main.c: 278:     TRISDbits.TRISD0 = 1;
  1987   001C66  8095               	bsf	149,0,c	;volatile
  1988                           
  1989                           ;main.c: 281:     T1CON = 0x10;
  1990   001C68  0E10               	movlw	16
  1991   001C6A  6ECD               	movwf	205,c	;volatile
  1992   001C6C                     
  1993                           ;main.c: 283:     T2CON = 0x00;
  1994   001C6C  6ACA               	clrf	202,c	;volatile
  1995   001C6E                     
  1996                           ;main.c: 284:     PIE1bits.TMR2IE = 1;
  1997   001C6E  829D               	bsf	157,1,c	;volatile
  1998   001C70                     
  1999                           ;main.c: 285:     PIR1bits.TMR2IF = 0;
  2000   001C70  929E               	bcf	158,1,c	;volatile
  2001   001C72                     
  2002                           ;main.c: 287:     INTCONbits.PEIE = 1;
  2003   001C72  8CF2               	bsf	242,6,c	;volatile
  2004   001C74                     
  2005                           ;main.c: 288:     INTCONbits.GIE = 1;
  2006   001C74  8EF2               	bsf	242,7,c	;volatile
  2007   001C76                     
  2008                           ;main.c: 290:     _delay((unsigned long)((500)*(4000000/4000.0)));
  2009   001C76  0E03               	movlw	3
  2010   001C78  0100               	movlb	0	; () banked
  2011   001C7A  6FA9               	movwf	(??_main+1)& (0+255),b
  2012   001C7C  0E8A               	movlw	138
  2013   001C7E  6FA8               	movwf	??_main& (0+255),b
  2014   001C80  0E55               	movlw	85
  2015   001C82                     u4887:
  2016   001C82  2EE8               	decfsz	wreg,f,c
  2017   001C84  D7FE               	bra	u4887
  2018   001C86  2FA8               	decfsz	??_main& (0+255),f,b
  2019   001C88  D7FC               	bra	u4887
  2020   001C8A  2FA9               	decfsz	(??_main+1)& (0+255),f,b
  2021   001C8C  D7FA               	bra	u4887
  2022   001C8E  D000               	nop2	
  2023   001C90                     
  2024                           ;main.c: 291:     I2C_Init();
  2025   001C90  ECE5  F01B         	call	_I2C_Init	;wreg free
  2026   001C94                     
  2027                           ;main.c: 292:     _delay((unsigned long)((500)*(4000000/4000.0)));
  2028   001C94  0E03               	movlw	3
  2029   001C96  0100               	movlb	0	; () banked
  2030   001C98  6FA9               	movwf	(??_main+1)& (0+255),b
  2031   001C9A  0E8A               	movlw	138
  2032   001C9C  6FA8               	movwf	??_main& (0+255),b
  2033   001C9E  0E55               	movlw	85
  2034   001CA0                     u4897:
  2035   001CA0  2EE8               	decfsz	wreg,f,c
  2036   001CA2  D7FE               	bra	u4897
  2037   001CA4  2FA8               	decfsz	??_main& (0+255),f,b
  2038   001CA6  D7FC               	bra	u4897
  2039   001CA8  2FA9               	decfsz	(??_main+1)& (0+255),f,b
  2040   001CAA  D7FA               	bra	u4897
  2041   001CAC  D000               	nop2	
  2042   001CAE                     
  2043                           ;main.c: 293:     SSD1306_Init();
  2044   001CAE  EC64  F015         	call	_SSD1306_Init	;wreg free
  2045   001CB2                     
  2046                           ;main.c: 294:     _delay((unsigned long)((500)*(4000000/4000.0)));
  2047   001CB2  0E03               	movlw	3
  2048   001CB4  0100               	movlb	0	; () banked
  2049   001CB6  6FA9               	movwf	(??_main+1)& (0+255),b
  2050   001CB8  0E8A               	movlw	138
  2051   001CBA  6FA8               	movwf	??_main& (0+255),b
  2052   001CBC  0E55               	movlw	85
  2053   001CBE                     u4907:
  2054   001CBE  2EE8               	decfsz	wreg,f,c
  2055   001CC0  D7FE               	bra	u4907
  2056   001CC2  2FA8               	decfsz	??_main& (0+255),f,b
  2057   001CC4  D7FC               	bra	u4907
  2058   001CC6  2FA9               	decfsz	(??_main+1)& (0+255),f,b
  2059   001CC8  D7FA               	bra	u4907
  2060   001CCA  D000               	nop2	
  2061   001CCC                     
  2062                           ;main.c: 295:     SSD1306_ClearScreen();
  2063   001CCC  ECAF  F018         	call	_SSD1306_ClearScreen	;wreg free
  2064   001CD0                     
  2065                           ;main.c: 296:     _delay((unsigned long)((500)*(4000000/4000.0)));
  2066   001CD0  0E03               	movlw	3
  2067   001CD2  0100               	movlb	0	; () banked
  2068   001CD4  6FA9               	movwf	(??_main+1)& (0+255),b
  2069   001CD6  0E8A               	movlw	138
  2070   001CD8  6FA8               	movwf	??_main& (0+255),b
  2071   001CDA  0E55               	movlw	85
  2072   001CDC                     u4917:
  2073   001CDC  2EE8               	decfsz	wreg,f,c
  2074   001CDE  D7FE               	bra	u4917
  2075   001CE0  2FA8               	decfsz	??_main& (0+255),f,b
  2076   001CE2  D7FC               	bra	u4917
  2077   001CE4  2FA9               	decfsz	(??_main+1)& (0+255),f,b
  2078   001CE6  D7FA               	bra	u4917
  2079   001CE8  D000               	nop2	
  2080   001CEA                     
  2081                           ;main.c: 297:     USART_Init();
  2082   001CEA  EC8D  F01B         	call	_USART_Init	;wreg free
  2083   001CEE                     
  2084                           ;main.c: 298:     _delay((unsigned long)((100)*(4000000/4000.0)));
  2085   001CEE  0E82               	movlw	130
  2086   001CF0  0100               	movlb	0	; () banked
  2087   001CF2  6FA8               	movwf	??_main& (0+255),b
  2088   001CF4  0EDD               	movlw	221
  2089   001CF6                     u4927:
  2090   001CF6  2EE8               	decfsz	wreg,f,c
  2091   001CF8  D7FE               	bra	u4927
  2092   001CFA  2FA8               	decfsz	??_main& (0+255),f,b
  2093   001CFC  D7FC               	bra	u4927
  2094   001CFE  D000               	nop2	
  2095   001D00                     
  2096                           ;main.c: 299:     MPU6050_Init();
  2097   001D00  EC7D  F01B         	call	_MPU6050_Init	;wreg free
  2098   001D04                     
  2099                           ;main.c: 300:     _delay((unsigned long)((500)*(4000000/4000.0)));
  2100   001D04  0E03               	movlw	3
  2101   001D06  0100               	movlb	0	; () banked
  2102   001D08  6FA9               	movwf	(??_main+1)& (0+255),b
  2103   001D0A  0E8A               	movlw	138
  2104   001D0C  6FA8               	movwf	??_main& (0+255),b
  2105   001D0E  0E55               	movlw	85
  2106   001D10                     u4937:
  2107   001D10  2EE8               	decfsz	wreg,f,c
  2108   001D12  D7FE               	bra	u4937
  2109   001D14  2FA8               	decfsz	??_main& (0+255),f,b
  2110   001D16  D7FC               	bra	u4937
  2111   001D18  2FA9               	decfsz	(??_main+1)& (0+255),f,b
  2112   001D1A  D7FA               	bra	u4937
  2113   001D1C  D000               	nop2	
  2114   001D1E                     
  2115                           ;main.c: 302:     unsigned char cmd = 0;
  2116   001D1E  0100               	movlb	0	; () banked
  2117   001D20  6BBA               	clrf	main@cmd& (0+255),b
  2118   001D22                     
  2119                           ; BSR set to: 0
  2120                           ;main.c: 303:     unsigned char oldCmd = 0;
  2121   001D22  6BB6               	clrf	main@oldCmd& (0+255),b
  2122   001D24                     
  2123                           ; BSR set to: 0
  2124                           ;main.c: 304:     unsigned char updateScn = 0;
  2125   001D24  6BB9               	clrf	main@updateScn& (0+255),b
  2126   001D26                     
  2127                           ; BSR set to: 0
  2128                           ;main.c: 305:     unsigned int dist = 0;
  2129   001D26  0E00               	movlw	0
  2130   001D28  6FB5               	movwf	(main@dist+1)& (0+255),b
  2131   001D2A  0E00               	movlw	0
  2132   001D2C  6FB4               	movwf	main@dist& (0+255),b
  2133   001D2E                     
  2134                           ; BSR set to: 0
  2135                           ;main.c: 307:     unsigned char a[10];;main.c: 309:     unsigned int sensorTouch = 0;
  2136   001D2E  0E00               	movlw	0
  2137   001D30  6FB8               	movwf	(main@sensorTouch+1)& (0+255),b
  2138   001D32  0E00               	movlw	0
  2139   001D34  6FB7               	movwf	main@sensorTouch& (0+255),b
  2140   001D36                     l4725:
  2141                           
  2142                           ;main.c: 313:         if (PORTDbits.RD0 && (sensorTouch == 0)) {
  2143   001D36  A083               	btfss	131,0,c	;volatile
  2144   001D38  EFA0  F00E         	goto	u4781
  2145   001D3C  EFA2  F00E         	goto	u4780
  2146   001D40                     u4781:
  2147   001D40  EFB2  F00E         	goto	l4733
  2148   001D44                     u4780:
  2149   001D44  0100               	movlb	0	; () banked
  2150   001D46  51B7               	movf	main@sensorTouch& (0+255),w,b
  2151   001D48  11B8               	iorwf	(main@sensorTouch+1)& (0+255),w,b
  2152   001D4A  A4D8               	btfss	status,2,c
  2153   001D4C  EFAA  F00E         	goto	u4791
  2154   001D50  EFAC  F00E         	goto	u4790
  2155   001D54                     u4791:
  2156   001D54  EFB2  F00E         	goto	l4733
  2157   001D58                     u4790:
  2158   001D58                     
  2159                           ; BSR set to: 0
  2160                           ;main.c: 314:             sensorTouch = 1;
  2161   001D58  0E00               	movlw	0
  2162   001D5A  6FB8               	movwf	(main@sensorTouch+1)& (0+255),b
  2163   001D5C  0E01               	movlw	1
  2164   001D5E  6FB7               	movwf	main@sensorTouch& (0+255),b
  2165   001D60                     
  2166                           ; BSR set to: 0
  2167                           ;main.c: 315:             noise();
  2168   001D60  EC35  F00B         	call	_noise	;wreg free
  2169   001D64                     l4733:
  2170                           
  2171                           ;main.c: 318:         if (!PORTDbits.RD0)
  2172   001D64  B083               	btfsc	131,0,c	;volatile
  2173   001D66  EFB7  F00E         	goto	u4801
  2174   001D6A  EFB9  F00E         	goto	u4800
  2175   001D6E                     u4801:
  2176   001D6E  EFBE  F00E         	goto	l4737
  2177   001D72                     u4800:
  2178   001D72                     
  2179                           ;main.c: 319:             sensorTouch = 0;
  2180   001D72  0E00               	movlw	0
  2181   001D74  0100               	movlb	0	; () banked
  2182   001D76  6FB8               	movwf	(main@sensorTouch+1)& (0+255),b
  2183   001D78  0E00               	movlw	0
  2184   001D7A  6FB7               	movwf	main@sensorTouch& (0+255),b
  2185   001D7C                     l4737:
  2186                           
  2187                           ;main.c: 321:         if (cmd != oldCmd) {
  2188   001D7C  0100               	movlb	0	; () banked
  2189   001D7E  51B6               	movf	main@oldCmd& (0+255),w,b
  2190   001D80  19BA               	xorwf	main@cmd& (0+255),w,b
  2191   001D82  B4D8               	btfsc	status,2,c
  2192   001D84  EFC6  F00E         	goto	u4811
  2193   001D88  EFC8  F00E         	goto	u4810
  2194   001D8C                     u4811:
  2195   001D8C  EF05  F00F         	goto	l4759
  2196   001D90                     u4810:
  2197   001D90                     
  2198                           ; BSR set to: 0
  2199                           ;main.c: 322:             if (cmd == '1') {
  2200   001D90  0E31               	movlw	49
  2201   001D92  19BA               	xorwf	main@cmd& (0+255),w,b
  2202   001D94  A4D8               	btfss	status,2,c
  2203   001D96  EFCF  F00E         	goto	u4821
  2204   001D9A  EFD1  F00E         	goto	u4820
  2205   001D9E                     u4821:
  2206   001D9E  EFD9  F00E         	goto	l4743
  2207   001DA2                     u4820:
  2208   001DA2                     
  2209                           ; BSR set to: 0
  2210                           ;main.c: 323:                 dist = GetDistance();
  2211   001DA2  EC21  F017         	call	_GetDistance	;wreg free
  2212   001DA6  C032  F0B4         	movff	?_GetDistance,main@dist
  2213   001DAA  C033  F0B5         	movff	?_GetDistance+1,main@dist+1
  2214                           
  2215                           ;main.c: 324:             }else if (cmd == '2') {
  2216   001DAE  EF00  F00F         	goto	l4755
  2217   001DB2                     l4743:
  2218                           
  2219                           ; BSR set to: 0
  2220   001DB2  0E32               	movlw	50
  2221   001DB4  19BA               	xorwf	main@cmd& (0+255),w,b
  2222   001DB6  A4D8               	btfss	status,2,c
  2223   001DB8  EFE0  F00E         	goto	u4831
  2224   001DBC  EFE2  F00E         	goto	u4830
  2225   001DC0                     u4831:
  2226   001DC0  EFE6  F00E         	goto	l4747
  2227   001DC4                     u4830:
  2228   001DC4                     
  2229                           ; BSR set to: 0
  2230                           ;main.c: 325:                 playNotes();
  2231   001DC4  ECBD  F012         	call	_playNotes	;wreg free
  2232                           
  2233                           ;main.c: 326:             }else if (cmd == '3') {
  2234   001DC8  EF00  F00F         	goto	l4755
  2235   001DCC                     l4747:
  2236                           
  2237                           ; BSR set to: 0
  2238   001DCC  0E33               	movlw	51
  2239   001DCE  19BA               	xorwf	main@cmd& (0+255),w,b
  2240   001DD0  A4D8               	btfss	status,2,c
  2241   001DD2  EFED  F00E         	goto	u4841
  2242   001DD6  EFEF  F00E         	goto	u4840
  2243   001DDA                     u4841:
  2244   001DDA  EFF3  F00E         	goto	l4751
  2245   001DDE                     u4840:
  2246   001DDE                     
  2247                           ; BSR set to: 0
  2248                           ;main.c: 327:                 playConfusedTone();
  2249   001DDE  EC57  F016         	call	_playConfusedTone	;wreg free
  2250                           
  2251                           ;main.c: 328:             }else if (cmd == '4') {
  2252   001DE2  EF00  F00F         	goto	l4755
  2253   001DE6                     l4751:
  2254                           
  2255                           ; BSR set to: 0
  2256   001DE6  0E34               	movlw	52
  2257   001DE8  19BA               	xorwf	main@cmd& (0+255),w,b
  2258   001DEA  A4D8               	btfss	status,2,c
  2259   001DEC  EFFA  F00E         	goto	u4851
  2260   001DF0  EFFC  F00E         	goto	u4850
  2261   001DF4                     u4851:
  2262   001DF4  EF00  F00F         	goto	l306
  2263   001DF8                     u4850:
  2264   001DF8                     
  2265                           ; BSR set to: 0
  2266                           ;main.c: 329:                 noise();
  2267   001DF8  EC35  F00B         	call	_noise	;wreg free
  2268   001DFC  EF00  F00F         	goto	l4755
  2269   001E00                     l306:
  2270   001E00                     l4755:
  2271                           
  2272                           ;main.c: 331:             oldCmd = cmd;
  2273   001E00  C0BA  F0B6         	movff	main@cmd,main@oldCmd
  2274   001E04                     
  2275                           ;main.c: 332:             updateScn = 1;
  2276   001E04  0E01               	movlw	1
  2277   001E06  0100               	movlb	0	; () banked
  2278   001E08  6FB9               	movwf	main@updateScn& (0+255),b
  2279   001E0A                     l4759:
  2280                           
  2281                           ; BSR set to: 0
  2282                           ;main.c: 335:         if (updateScn == 1) {
  2283   001E0A  05B9               	decf	main@updateScn& (0+255),w,b
  2284   001E0C  A4D8               	btfss	status,2,c
  2285   001E0E  EF0B  F00F         	goto	u4861
  2286   001E12  EF0D  F00F         	goto	u4860
  2287   001E16                     u4861:
  2288   001E16  EF15  F00F         	goto	l4765
  2289   001E1A                     u4860:
  2290   001E1A                     
  2291                           ; BSR set to: 0
  2292                           ;main.c: 336:             UpdateScreen(dist);
  2293   001E1A  C0B4  F09F         	movff	main@dist,UpdateScreen@dist
  2294   001E1E  C0B5  F0A0         	movff	main@dist+1,UpdateScreen@dist+1
  2295   001E22  EC24  F01B         	call	_UpdateScreen	;wreg free
  2296   001E26                     
  2297                           ;main.c: 337:             updateScn = 0;
  2298   001E26  0100               	movlb	0	; () banked
  2299   001E28  6BB9               	clrf	main@updateScn& (0+255),b
  2300   001E2A                     l4765:
  2301                           
  2302                           ; BSR set to: 0
  2303                           ;main.c: 340:         if (rxFlag) {
  2304   001E2A  51CE               	movf	_rxFlag& (0+255),w,b	;volatile
  2305   001E2C  B4D8               	btfsc	status,2,c
  2306   001E2E  EF1B  F00F         	goto	u4871
  2307   001E32  EF1D  F00F         	goto	u4870
  2308   001E36                     u4871:
  2309   001E36  EF24  F00F         	goto	l4773
  2310   001E3A                     u4870:
  2311   001E3A                     
  2312                           ; BSR set to: 0
  2313                           ;main.c: 341:             cmd = rxData;
  2314   001E3A  C0CF  F0BA         	movff	_rxData,main@cmd	;volatile
  2315   001E3E                     
  2316                           ; BSR set to: 0
  2317                           ;main.c: 342:             SendByte(cmd);
  2318   001E3E  51BA               	movf	main@cmd& (0+255),w,b
  2319   001E40  ECB9  F01B         	call	_SendByte
  2320   001E44                     
  2321                           ;main.c: 343:             rxFlag = 0;
  2322   001E44  0100               	movlb	0	; () banked
  2323   001E46  6BCE               	clrf	_rxFlag& (0+255),b	;volatile
  2324   001E48                     l4773:
  2325                           
  2326                           ; BSR set to: 0
  2327                           ;main.c: 346:         updateYaw();
  2328   001E48  EC01  F012         	call	_updateYaw	;wreg free
  2329   001E4C                     
  2330                           ;main.c: 347:         SSD1306_ClearScreen();
  2331   001E4C  ECAF  F018         	call	_SSD1306_ClearScreen	;wreg free
  2332   001E50                     
  2333                           ;main.c: 348:         SSD1306_GotoStart();
  2334   001E50  ECCF  F01A         	call	_SSD1306_GotoStart	;wreg free
  2335   001E54                     
  2336                           ;main.c: 349:         sprintf(a, "%f\n", yaw_angle);
  2337   001E54  0EAA               	movlw	low main@a
  2338   001E56  0100               	movlb	0	; () banked
  2339   001E58  6F8C               	movwf	sprintf@s& (0+255),b
  2340   001E5A  0EF7               	movlw	low STR_2
  2341   001E5C  6F8D               	movwf	sprintf@fmt& (0+255),b
  2342   001E5E  0E7F               	movlw	high STR_2
  2343   001E60  6F8E               	movwf	(sprintf@fmt+1)& (0+255),b
  2344   001E62  C05A  F08F         	movff	_yaw_angle,?_sprintf+3	;volatile
  2345   001E66  C05B  F090         	movff	_yaw_angle+1,?_sprintf+4	;volatile
  2346   001E6A  C05C  F091         	movff	_yaw_angle+2,?_sprintf+5	;volatile
  2347   001E6E  C05D  F092         	movff	_yaw_angle+3,?_sprintf+6	;volatile
  2348   001E72  ECB1  F01A         	call	_sprintf	;wreg free
  2349   001E76                     
  2350                           ;main.c: 350:         SSD1306_String(a);
  2351   001E76  0EAA               	movlw	low main@a
  2352   001E78  6E0C               	movwf	SSD1306_String@data^0,c
  2353   001E7A  ECE1  F015         	call	_SSD1306_String	;wreg free
  2354   001E7E                     
  2355                           ;main.c: 352:         _delay((unsigned long)((50)*(4000000/4000.0)));
  2356   001E7E  0E41               	movlw	65
  2357   001E80  0100               	movlb	0	; () banked
  2358   001E82  6FA8               	movwf	??_main& (0+255),b
  2359   001E84  0EEE               	movlw	238
  2360   001E86                     u4947:
  2361   001E86  2EE8               	decfsz	wreg,f,c
  2362   001E88  D7FE               	bra	u4947
  2363   001E8A  2FA8               	decfsz	??_main& (0+255),f,b
  2364   001E8C  D7FC               	bra	u4947
  2365   001E8E  0000               	nop	
  2366   001E90  EF9B  F00E         	goto	l4725
  2367   001E94  EF07  F000         	goto	start
  2368   001E98                     __end_of_main:
  2369                           	callstack 0
  2370                           
  2371 ;; *************** function _updateYaw *****************
  2372 ;; Defined at:
  2373 ;;		line 51 in file "./MPU6050.h"
  2374 ;; Parameters:    Size  Location     Type
  2375 ;;		None
  2376 ;; Auto vars:     Size  Location     Type
  2377 ;;  gyro_z_dps      4   65[COMRAM] float 
  2378 ;;  gyro_z_raw      2   69[COMRAM] short 
  2379 ;;  corrected       2   63[COMRAM] short 
  2380 ;; Return value:  Size  Location     Type
  2381 ;;                  1    wreg      void 
  2382 ;; Registers used:
  2383 ;;		wreg, status,2, status,0, prodl, prodh, cstack
  2384 ;; Tracked objects:
  2385 ;;		On entry : 0/0
  2386 ;;		On exit  : 0/0
  2387 ;;		Unchanged: 0/0
  2388 ;; Data sizes:     COMRAM   BANK0   BANK1   BANK2   BANK3   BANK4   BANK5
  2389 ;;      Params:         0       0       0       0       0       0       0
  2390 ;;      Locals:         8       0       0       0       0       0       0
  2391 ;;      Temps:          0       0       0       0       0       0       0
  2392 ;;      Totals:         8       0       0       0       0       0       0
  2393 ;;Total ram usage:        8 bytes
  2394 ;; Hardware stack levels used: 1
  2395 ;; Hardware stack levels required when called: 5
  2396 ;; This function calls:
  2397 ;;		_MPU6050_ReadGyroZ
  2398 ;;		___fladd
  2399 ;;		___fldiv
  2400 ;;		___flge
  2401 ;;		___flmul
  2402 ;;		___flsub
  2403 ;;		___xxtofl
  2404 ;; This function is called by:
  2405 ;;		_main
  2406 ;; This function uses a non-reentrant model
  2407 ;;
  2408                           
  2409                           	psect	text1
  2410   002402                     __ptext1:
  2411                           	callstack 0
  2412   002402                     _updateYaw:
  2413                           	callstack 25
  2414   002402                     
  2415                           ;./MPU6050.h: 53:     float gyro_z_dps = 0.0f;
  2416   002402  0E00               	movlw	0
  2417   002404  6E42               	movwf	updateYaw@gyro_z_dps^0,c
  2418   002406  0E00               	movlw	0
  2419   002408  6E43               	movwf	(updateYaw@gyro_z_dps+1)^0,c
  2420   00240A  0E00               	movlw	0
  2421   00240C  6E44               	movwf	(updateYaw@gyro_z_dps+2)^0,c
  2422   00240E  0E00               	movlw	0
  2423   002410  6E45               	movwf	(updateYaw@gyro_z_dps+3)^0,c
  2424   002412                     
  2425                           ;./MPU6050.h: 56:     gyro_z_raw = MPU6050_ReadGyroZ();
  2426   002412  EC2A  F01A         	call	_MPU6050_ReadGyroZ	;wreg free
  2427   002416  C004  F046         	movff	?_MPU6050_ReadGyroZ,updateYaw@gyro_z_raw
  2428   00241A  C005  F047         	movff	?_MPU6050_ReadGyroZ+1,updateYaw@gyro_z_raw+1
  2429   00241E                     
  2430                           ;./MPU6050.h: 59:     int16_t corrected = gyro_z_raw - gyro_z_offset;
  2431   00241E  0100               	movlb	0	; () banked
  2432   002420  51CB               	movf	_gyro_z_offset& (0+255),w,b
  2433   002422  5C46               	subwf	updateYaw@gyro_z_raw^0,w,c
  2434   002424  6E40               	movwf	updateYaw@corrected^0,c
  2435   002426  51CC               	movf	(_gyro_z_offset+1)& (0+255),w,b
  2436   002428  5847               	subwfb	(updateYaw@gyro_z_raw+1)^0,w,c
  2437   00242A  6E41               	movwf	(updateYaw@corrected+1)^0,c
  2438   00242C                     
  2439                           ; BSR set to: 0
  2440                           ;./MPU6050.h: 62:     gyro_z_dps = (float)corrected / 131.0f;
  2441   00242C  C040  F001         	movff	updateYaw@corrected,___xxtofl@val
  2442   002430  C041  F002         	movff	updateYaw@corrected+1,___xxtofl@val+1
  2443   002434  0E00               	movlw	0
  2444   002436  BE02               	btfsc	(___xxtofl@val+1)^0,7,c
  2445   002438  0EFF               	movlw	-1
  2446   00243A  6E03               	movwf	(___xxtofl@val+2)^0,c
  2447   00243C  6E04               	movwf	(___xxtofl@val+3)^0,c
  2448   00243E  0E01               	movlw	1
  2449   002440  EC55  F010         	call	___xxtofl
  2450   002444  C001  F00F         	movff	?___xxtofl,___fldiv@b
  2451   002448  C002  F010         	movff	?___xxtofl+1,___fldiv@b+1
  2452   00244C  C003  F011         	movff	?___xxtofl+2,___fldiv@b+2
  2453   002450  C004  F012         	movff	?___xxtofl+3,___fldiv@b+3
  2454   002454  0E00               	movlw	0
  2455   002456  6E13               	movwf	___fldiv@a^0,c
  2456   002458  0E00               	movlw	0
  2457   00245A  6E14               	movwf	(___fldiv@a+1)^0,c
  2458   00245C  0E03               	movlw	3
  2459   00245E  6E15               	movwf	(___fldiv@a+2)^0,c
  2460   002460  0E43               	movlw	67
  2461   002462  6E16               	movwf	(___fldiv@a+3)^0,c
  2462   002464  EC6D  F009         	call	___fldiv	;wreg free
  2463   002468  C00F  F042         	movff	?___fldiv,updateYaw@gyro_z_dps
  2464   00246C  C010  F043         	movff	?___fldiv+1,updateYaw@gyro_z_dps+1
  2465   002470  C011  F044         	movff	?___fldiv+2,updateYaw@gyro_z_dps+2
  2466   002474  C012  F045         	movff	?___fldiv+3,updateYaw@gyro_z_dps+3
  2467   002478                     
  2468                           ;./MPU6050.h: 65:     yaw_angle += gyro_z_dps * 0.25f;
  2469   002478  C05A  F028         	movff	_yaw_angle,___fladd@b	;volatile
  2470   00247C  C05B  F029         	movff	_yaw_angle+1,___fladd@b+1	;volatile
  2471   002480  C05C  F02A         	movff	_yaw_angle+2,___fladd@b+2	;volatile
  2472   002484  C05D  F02B         	movff	_yaw_angle+3,___fladd@b+3	;volatile
  2473   002488  0E00               	movlw	0
  2474   00248A  6E13               	movwf	___flmul@a^0,c
  2475   00248C  0E00               	movlw	0
  2476   00248E  6E14               	movwf	(___flmul@a+1)^0,c
  2477   002490  0E80               	movlw	128
  2478   002492  6E15               	movwf	(___flmul@a+2)^0,c
  2479   002494  0E3E               	movlw	62
  2480   002496  6E16               	movwf	(___flmul@a+3)^0,c
  2481   002498  C042  F00F         	movff	updateYaw@gyro_z_dps,___flmul@b
  2482   00249C  C043  F010         	movff	updateYaw@gyro_z_dps+1,___flmul@b+1
  2483   0024A0  C044  F011         	movff	updateYaw@gyro_z_dps+2,___flmul@b+2
  2484   0024A4  C045  F012         	movff	updateYaw@gyro_z_dps+3,___flmul@b+3
  2485   0024A8  EC5A  F007         	call	___flmul	;wreg free
  2486   0024AC  C00F  F02C         	movff	?___flmul,___fladd@a
  2487   0024B0  C010  F02D         	movff	?___flmul+1,___fladd@a+1
  2488   0024B4  C011  F02E         	movff	?___flmul+2,___fladd@a+2
  2489   0024B8  C012  F02F         	movff	?___flmul+3,___fladd@a+3
  2490   0024BC  ECFF  F004         	call	___fladd	;wreg free
  2491   0024C0  C028  F05A         	movff	?___fladd,_yaw_angle	;volatile
  2492   0024C4  C029  F05B         	movff	?___fladd+1,_yaw_angle+1	;volatile
  2493   0024C8  C02A  F05C         	movff	?___fladd+2,_yaw_angle+2	;volatile
  2494   0024CC  C02B  F05D         	movff	?___fladd+3,_yaw_angle+3	;volatile
  2495   0024D0                     
  2496                           ;./MPU6050.h: 69:     if (yaw_angle > 360) yaw_angle -= 360;
  2497   0024D0  0E00               	movlw	0
  2498   0024D2  6E28               	movwf	___flge@ff1^0,c
  2499   0024D4  0E00               	movlw	0
  2500   0024D6  6E29               	movwf	(___flge@ff1+1)^0,c
  2501   0024D8  0EB4               	movlw	180
  2502   0024DA  6E2A               	movwf	(___flge@ff1+2)^0,c
  2503   0024DC  0E43               	movlw	67
  2504   0024DE  6E2B               	movwf	(___flge@ff1+3)^0,c
  2505   0024E0  C05A  F02C         	movff	_yaw_angle,___flge@ff2	;volatile
  2506   0024E4  C05B  F02D         	movff	_yaw_angle+1,___flge@ff2+1	;volatile
  2507   0024E8  C05C  F02E         	movff	_yaw_angle+2,___flge@ff2+2	;volatile
  2508   0024EC  C05D  F02F         	movff	_yaw_angle+3,___flge@ff2+3	;volatile
  2509   0024F0  EC63  F014         	call	___flge	;wreg free
  2510   0024F4  B0D8               	btfsc	status,0,c
  2511   0024F6  EF7F  F012         	goto	u4551
  2512   0024FA  EF81  F012         	goto	u4550
  2513   0024FE                     u4551:
  2514   0024FE  EF9B  F012         	goto	l4299
  2515   002502                     u4550:
  2516   002502  C05A  F038         	movff	_yaw_angle,___flsub@b	;volatile
  2517   002506  C05B  F039         	movff	_yaw_angle+1,___flsub@b+1	;volatile
  2518   00250A  C05C  F03A         	movff	_yaw_angle+2,___flsub@b+2	;volatile
  2519   00250E  C05D  F03B         	movff	_yaw_angle+3,___flsub@b+3	;volatile
  2520   002512  0E00               	movlw	0
  2521   002514  6E3C               	movwf	___flsub@a^0,c
  2522   002516  0E00               	movlw	0
  2523   002518  6E3D               	movwf	(___flsub@a+1)^0,c
  2524   00251A  0EB4               	movlw	180
  2525   00251C  6E3E               	movwf	(___flsub@a+2)^0,c
  2526   00251E  0E43               	movlw	67
  2527   002520  6E3F               	movwf	(___flsub@a+3)^0,c
  2528   002522  EC07  F01A         	call	___flsub	;wreg free
  2529   002526  C038  F05A         	movff	?___flsub,_yaw_angle	;volatile
  2530   00252A  C039  F05B         	movff	?___flsub+1,_yaw_angle+1	;volatile
  2531   00252E  C03A  F05C         	movff	?___flsub+2,_yaw_angle+2	;volatile
  2532   002532  C03B  F05D         	movff	?___flsub+3,_yaw_angle+3	;volatile
  2533   002536                     l4299:
  2534                           
  2535                           ;./MPU6050.h: 70:     if (yaw_angle < 0) yaw_angle += 360;
  2536   002536  BE5D               	btfsc	(_yaw_angle+3)^0,7,c	;volatile
  2537   002538  EFA2  F012         	goto	u4560
  2538   00253C  EFA0  F012         	goto	u4561
  2539   002540                     u4561:
  2540   002540  EFBC  F012         	goto	l191
  2541   002544                     u4560:
  2542   002544  C05A  F028         	movff	_yaw_angle,___fladd@b	;volatile
  2543   002548  C05B  F029         	movff	_yaw_angle+1,___fladd@b+1	;volatile
  2544   00254C  C05C  F02A         	movff	_yaw_angle+2,___fladd@b+2	;volatile
  2545   002550  C05D  F02B         	movff	_yaw_angle+3,___fladd@b+3	;volatile
  2546   002554  0E00               	movlw	0
  2547   002556  6E2C               	movwf	___fladd@a^0,c
  2548   002558  0E00               	movlw	0
  2549   00255A  6E2D               	movwf	(___fladd@a+1)^0,c
  2550   00255C  0EB4               	movlw	180
  2551   00255E  6E2E               	movwf	(___fladd@a+2)^0,c
  2552   002560  0E43               	movlw	67
  2553   002562  6E2F               	movwf	(___fladd@a+3)^0,c
  2554   002564  ECFF  F004         	call	___fladd	;wreg free
  2555   002568  C028  F05A         	movff	?___fladd,_yaw_angle	;volatile
  2556   00256C  C029  F05B         	movff	?___fladd+1,_yaw_angle+1	;volatile
  2557   002570  C02A  F05C         	movff	?___fladd+2,_yaw_angle+2	;volatile
  2558   002574  C02B  F05D         	movff	?___fladd+3,_yaw_angle+3	;volatile
  2559   002578                     l191:
  2560   002578  0012               	return		;funcret
  2561   00257A                     __end_of_updateYaw:
  2562                           	callstack 0
  2563                           
  2564 ;; *************** function _playNotes *****************
  2565 ;; Defined at:
  2566 ;;		line 174 in file "main.c"
  2567 ;; Parameters:    Size  Location     Type
  2568 ;;		None
  2569 ;; Auto vars:     Size  Location     Type
  2570 ;;		None
  2571 ;; Return value:  Size  Location     Type
  2572 ;;                  1    wreg      void 
  2573 ;; Registers used:
  2574 ;;		wreg, status,2, status,0, cstack
  2575 ;; Tracked objects:
  2576 ;;		On entry : 0/0
  2577 ;;		On exit  : 0/0
  2578 ;;		Unchanged: 0/0
  2579 ;; Data sizes:     COMRAM   BANK0   BANK1   BANK2   BANK3   BANK4   BANK5
  2580 ;;      Params:         0       0       0       0       0       0       0
  2581 ;;      Locals:         0       0       0       0       0       0       0
  2582 ;;      Temps:          2       0       0       0       0       0       0
  2583 ;;      Totals:         2       0       0       0       0       0       0
  2584 ;;Total ram usage:        2 bytes
  2585 ;; Hardware stack levels used: 1
  2586 ;; Hardware stack levels required when called: 4
  2587 ;; This function calls:
  2588 ;;		_tone
  2589 ;; This function is called by:
  2590 ;;		_main
  2591 ;; This function uses a non-reentrant model
  2592 ;;
  2593                           
  2594                           	psect	text2
  2595   00257A                     __ptext2:
  2596                           	callstack 0
  2597   00257A                     _playNotes:
  2598                           	callstack 26
  2599   00257A                     
  2600                           ;main.c: 175:     tone(262, 500);
  2601   00257A  0E01               	movlw	1
  2602   00257C  6E1B               	movwf	(tone@frequency+1)^0,c
  2603   00257E  0E06               	movlw	6
  2604   002580  6E1A               	movwf	tone@frequency^0,c
  2605   002582  0E01               	movlw	1
  2606   002584  6E1D               	movwf	(tone@duration_ms+1)^0,c
  2607   002586  0EF4               	movlw	244
  2608   002588  6E1C               	movwf	tone@duration_ms^0,c
  2609   00258A  EC2F  F011         	call	_tone	;wreg free
  2610   00258E                     
  2611                           ;main.c: 176:     _delay((unsigned long)((500)*(4000000/4000.0)));
  2612   00258E  0E03               	movlw	3
  2613   002590  6E2C               	movwf	(??_playNotes+1)^0,c
  2614   002592  0E8A               	movlw	138
  2615   002594  6E2B               	movwf	??_playNotes^0,c
  2616   002596  0E56               	movlw	86
  2617   002598                     u4957:
  2618   002598  2EE8               	decfsz	wreg,f,c
  2619   00259A  D7FE               	bra	u4957
  2620   00259C  2E2B               	decfsz	??_playNotes^0,f,c
  2621   00259E  D7FC               	bra	u4957
  2622   0025A0  2E2C               	decfsz	(??_playNotes+1)^0,f,c
  2623   0025A2  D7FA               	bra	u4957
  2624   0025A4                     
  2625                           ;main.c: 177:     tone(294, 500);
  2626   0025A4  0E01               	movlw	1
  2627   0025A6  6E1B               	movwf	(tone@frequency+1)^0,c
  2628   0025A8  0E26               	movlw	38
  2629   0025AA  6E1A               	movwf	tone@frequency^0,c
  2630   0025AC  0E01               	movlw	1
  2631   0025AE  6E1D               	movwf	(tone@duration_ms+1)^0,c
  2632   0025B0  0EF4               	movlw	244
  2633   0025B2  6E1C               	movwf	tone@duration_ms^0,c
  2634   0025B4  EC2F  F011         	call	_tone	;wreg free
  2635                           
  2636                           ;main.c: 178:     _delay((unsigned long)((500)*(4000000/4000.0)));
  2637   0025B8  0E03               	movlw	3
  2638   0025BA  6E2C               	movwf	(??_playNotes+1)^0,c
  2639   0025BC  0E8A               	movlw	138
  2640   0025BE  6E2B               	movwf	??_playNotes^0,c
  2641   0025C0  0E56               	movlw	86
  2642   0025C2                     u4967:
  2643   0025C2  2EE8               	decfsz	wreg,f,c
  2644   0025C4  D7FE               	bra	u4967
  2645   0025C6  2E2B               	decfsz	??_playNotes^0,f,c
  2646   0025C8  D7FC               	bra	u4967
  2647   0025CA  2E2C               	decfsz	(??_playNotes+1)^0,f,c
  2648   0025CC  D7FA               	bra	u4967
  2649   0025CE                     
  2650                           ;main.c: 179:     tone(330, 500);
  2651   0025CE  0E01               	movlw	1
  2652   0025D0  6E1B               	movwf	(tone@frequency+1)^0,c
  2653   0025D2  0E4A               	movlw	74
  2654   0025D4  6E1A               	movwf	tone@frequency^0,c
  2655   0025D6  0E01               	movlw	1
  2656   0025D8  6E1D               	movwf	(tone@duration_ms+1)^0,c
  2657   0025DA  0EF4               	movlw	244
  2658   0025DC  6E1C               	movwf	tone@duration_ms^0,c
  2659   0025DE  EC2F  F011         	call	_tone	;wreg free
  2660   0025E2                     
  2661                           ;main.c: 180:     _delay((unsigned long)((500)*(4000000/4000.0)));
  2662   0025E2  0E03               	movlw	3
  2663   0025E4  6E2C               	movwf	(??_playNotes+1)^0,c
  2664   0025E6  0E8A               	movlw	138
  2665   0025E8  6E2B               	movwf	??_playNotes^0,c
  2666   0025EA  0E56               	movlw	86
  2667   0025EC                     u4977:
  2668   0025EC  2EE8               	decfsz	wreg,f,c
  2669   0025EE  D7FE               	bra	u4977
  2670   0025F0  2E2B               	decfsz	??_playNotes^0,f,c
  2671   0025F2  D7FC               	bra	u4977
  2672   0025F4  2E2C               	decfsz	(??_playNotes+1)^0,f,c
  2673   0025F6  D7FA               	bra	u4977
  2674                           
  2675                           ;main.c: 181:     tone(349, 500);
  2676   0025F8  0E01               	movlw	1
  2677   0025FA  6E1B               	movwf	(tone@frequency+1)^0,c
  2678   0025FC  0E5D               	movlw	93
  2679   0025FE  6E1A               	movwf	tone@frequency^0,c
  2680   002600  0E01               	movlw	1
  2681   002602  6E1D               	movwf	(tone@duration_ms+1)^0,c
  2682   002604  0EF4               	movlw	244
  2683   002606  6E1C               	movwf	tone@duration_ms^0,c
  2684   002608  EC2F  F011         	call	_tone	;wreg free
  2685   00260C                     
  2686                           ;main.c: 182:     _delay((unsigned long)((500)*(4000000/4000.0)));
  2687   00260C  0E03               	movlw	3
  2688   00260E  6E2C               	movwf	(??_playNotes+1)^0,c
  2689   002610  0E8A               	movlw	138
  2690   002612  6E2B               	movwf	??_playNotes^0,c
  2691   002614  0E56               	movlw	86
  2692   002616                     u4987:
  2693   002616  2EE8               	decfsz	wreg,f,c
  2694   002618  D7FE               	bra	u4987
  2695   00261A  2E2B               	decfsz	??_playNotes^0,f,c
  2696   00261C  D7FC               	bra	u4987
  2697   00261E  2E2C               	decfsz	(??_playNotes+1)^0,f,c
  2698   002620  D7FA               	bra	u4987
  2699   002622                     
  2700                           ;main.c: 183:     tone(392, 500);
  2701   002622  0E01               	movlw	1
  2702   002624  6E1B               	movwf	(tone@frequency+1)^0,c
  2703   002626  0E88               	movlw	136
  2704   002628  6E1A               	movwf	tone@frequency^0,c
  2705   00262A  0E01               	movlw	1
  2706   00262C  6E1D               	movwf	(tone@duration_ms+1)^0,c
  2707   00262E  0EF4               	movlw	244
  2708   002630  6E1C               	movwf	tone@duration_ms^0,c
  2709   002632  EC2F  F011         	call	_tone	;wreg free
  2710                           
  2711                           ;main.c: 184:     _delay((unsigned long)((500)*(4000000/4000.0)));
  2712   002636  0E03               	movlw	3
  2713   002638  6E2C               	movwf	(??_playNotes+1)^0,c
  2714   00263A  0E8A               	movlw	138
  2715   00263C  6E2B               	movwf	??_playNotes^0,c
  2716   00263E  0E56               	movlw	86
  2717   002640                     u4997:
  2718   002640  2EE8               	decfsz	wreg,f,c
  2719   002642  D7FE               	bra	u4997
  2720   002644  2E2B               	decfsz	??_playNotes^0,f,c
  2721   002646  D7FC               	bra	u4997
  2722   002648  2E2C               	decfsz	(??_playNotes+1)^0,f,c
  2723   00264A  D7FA               	bra	u4997
  2724   00264C                     
  2725                           ;main.c: 185:     tone(440, 500);
  2726   00264C  0E01               	movlw	1
  2727   00264E  6E1B               	movwf	(tone@frequency+1)^0,c
  2728   002650  0EB8               	movlw	184
  2729   002652  6E1A               	movwf	tone@frequency^0,c
  2730   002654  0E01               	movlw	1
  2731   002656  6E1D               	movwf	(tone@duration_ms+1)^0,c
  2732   002658  0EF4               	movlw	244
  2733   00265A  6E1C               	movwf	tone@duration_ms^0,c
  2734   00265C  EC2F  F011         	call	_tone	;wreg free
  2735   002660                     
  2736                           ;main.c: 186:     _delay((unsigned long)((500)*(4000000/4000.0)));
  2737   002660  0E03               	movlw	3
  2738   002662  6E2C               	movwf	(??_playNotes+1)^0,c
  2739   002664  0E8A               	movlw	138
  2740   002666  6E2B               	movwf	??_playNotes^0,c
  2741   002668  0E56               	movlw	86
  2742   00266A                     u5007:
  2743   00266A  2EE8               	decfsz	wreg,f,c
  2744   00266C  D7FE               	bra	u5007
  2745   00266E  2E2B               	decfsz	??_playNotes^0,f,c
  2746   002670  D7FC               	bra	u5007
  2747   002672  2E2C               	decfsz	(??_playNotes+1)^0,f,c
  2748   002674  D7FA               	bra	u5007
  2749                           
  2750                           ;main.c: 187:     tone(466, 500);
  2751   002676  0E01               	movlw	1
  2752   002678  6E1B               	movwf	(tone@frequency+1)^0,c
  2753   00267A  0ED2               	movlw	210
  2754   00267C  6E1A               	movwf	tone@frequency^0,c
  2755   00267E  0E01               	movlw	1
  2756   002680  6E1D               	movwf	(tone@duration_ms+1)^0,c
  2757   002682  0EF4               	movlw	244
  2758   002684  6E1C               	movwf	tone@duration_ms^0,c
  2759   002686  EC2F  F011         	call	_tone	;wreg free
  2760   00268A                     
  2761                           ;main.c: 188:     _delay((unsigned long)((500)*(4000000/4000.0)));
  2762   00268A  0E03               	movlw	3
  2763   00268C  6E2C               	movwf	(??_playNotes+1)^0,c
  2764   00268E  0E8A               	movlw	138
  2765   002690  6E2B               	movwf	??_playNotes^0,c
  2766   002692  0E56               	movlw	86
  2767   002694                     u5017:
  2768   002694  2EE8               	decfsz	wreg,f,c
  2769   002696  D7FE               	bra	u5017
  2770   002698  2E2B               	decfsz	??_playNotes^0,f,c
  2771   00269A  D7FC               	bra	u5017
  2772   00269C  2E2C               	decfsz	(??_playNotes+1)^0,f,c
  2773   00269E  D7FA               	bra	u5017
  2774   0026A0                     
  2775                           ;main.c: 189:     tone(523, 500);
  2776   0026A0  0E02               	movlw	2
  2777   0026A2  6E1B               	movwf	(tone@frequency+1)^0,c
  2778   0026A4  0E0B               	movlw	11
  2779   0026A6  6E1A               	movwf	tone@frequency^0,c
  2780   0026A8  0E01               	movlw	1
  2781   0026AA  6E1D               	movwf	(tone@duration_ms+1)^0,c
  2782   0026AC  0EF4               	movlw	244
  2783   0026AE  6E1C               	movwf	tone@duration_ms^0,c
  2784   0026B0  EC2F  F011         	call	_tone	;wreg free
  2785   0026B4  0012               	return		;funcret
  2786   0026B6                     __end_of_playNotes:
  2787                           	callstack 0
  2788                           
  2789 ;; *************** function _playConfusedTone *****************
  2790 ;; Defined at:
  2791 ;;		line 192 in file "main.c"
  2792 ;; Parameters:    Size  Location     Type
  2793 ;;		None
  2794 ;; Auto vars:     Size  Location     Type
  2795 ;;		None
  2796 ;; Return value:  Size  Location     Type
  2797 ;;                  1    wreg      void 
  2798 ;; Registers used:
  2799 ;;		wreg, status,2, status,0, cstack
  2800 ;; Tracked objects:
  2801 ;;		On entry : 0/0
  2802 ;;		On exit  : 0/0
  2803 ;;		Unchanged: 0/0
  2804 ;; Data sizes:     COMRAM   BANK0   BANK1   BANK2   BANK3   BANK4   BANK5
  2805 ;;      Params:         0       0       0       0       0       0       0
  2806 ;;      Locals:         0       0       0       0       0       0       0
  2807 ;;      Temps:          1       0       0       0       0       0       0
  2808 ;;      Totals:         1       0       0       0       0       0       0
  2809 ;;Total ram usage:        1 bytes
  2810 ;; Hardware stack levels used: 1
  2811 ;; Hardware stack levels required when called: 4
  2812 ;; This function calls:
  2813 ;;		_tone
  2814 ;; This function is called by:
  2815 ;;		_main
  2816 ;; This function uses a non-reentrant model
  2817 ;;
  2818                           
  2819                           	psect	text3
  2820   002CAE                     __ptext3:
  2821                           	callstack 0
  2822   002CAE                     _playConfusedTone:
  2823                           	callstack 26
  2824   002CAE                     
  2825                           ;main.c: 193:     tone(440, 150);
  2826   002CAE  0E01               	movlw	1
  2827   002CB0  6E1B               	movwf	(tone@frequency+1)^0,c
  2828   002CB2  0EB8               	movlw	184
  2829   002CB4  6E1A               	movwf	tone@frequency^0,c
  2830   002CB6  0E00               	movlw	0
  2831   002CB8  6E1D               	movwf	(tone@duration_ms+1)^0,c
  2832   002CBA  0E96               	movlw	150
  2833   002CBC  6E1C               	movwf	tone@duration_ms^0,c
  2834   002CBE  EC2F  F011         	call	_tone	;wreg free
  2835   002CC2                     
  2836                           ;main.c: 194:     _delay((unsigned long)((150)*(4000000/4000.0)));
  2837   002CC2  0EC3               	movlw	195
  2838   002CC4  6E2B               	movwf	??_playConfusedTone^0,c
  2839   002CC6  0ECD               	movlw	205
  2840   002CC8                     u5027:
  2841   002CC8  2EE8               	decfsz	wreg,f,c
  2842   002CCA  D7FE               	bra	u5027
  2843   002CCC  2E2B               	decfsz	??_playConfusedTone^0,f,c
  2844   002CCE  D7FC               	bra	u5027
  2845   002CD0  0000               	nop	
  2846   002CD2                     
  2847                           ;main.c: 195:     tone(392, 150);
  2848   002CD2  0E01               	movlw	1
  2849   002CD4  6E1B               	movwf	(tone@frequency+1)^0,c
  2850   002CD6  0E88               	movlw	136
  2851   002CD8  6E1A               	movwf	tone@frequency^0,c
  2852   002CDA  0E00               	movlw	0
  2853   002CDC  6E1D               	movwf	(tone@duration_ms+1)^0,c
  2854   002CDE  0E96               	movlw	150
  2855   002CE0  6E1C               	movwf	tone@duration_ms^0,c
  2856   002CE2  EC2F  F011         	call	_tone	;wreg free
  2857                           
  2858                           ;main.c: 196:     _delay((unsigned long)((150)*(4000000/4000.0)));
  2859   002CE6  0EC3               	movlw	195
  2860   002CE8  6E2B               	movwf	??_playConfusedTone^0,c
  2861   002CEA  0ECD               	movlw	205
  2862   002CEC                     u5037:
  2863   002CEC  2EE8               	decfsz	wreg,f,c
  2864   002CEE  D7FE               	bra	u5037
  2865   002CF0  2E2B               	decfsz	??_playConfusedTone^0,f,c
  2866   002CF2  D7FC               	bra	u5037
  2867   002CF4  0000               	nop	
  2868   002CF6                     
  2869                           ;main.c: 197:     tone(370, 150);
  2870   002CF6  0E01               	movlw	1
  2871   002CF8  6E1B               	movwf	(tone@frequency+1)^0,c
  2872   002CFA  0E72               	movlw	114
  2873   002CFC  6E1A               	movwf	tone@frequency^0,c
  2874   002CFE  0E00               	movlw	0
  2875   002D00  6E1D               	movwf	(tone@duration_ms+1)^0,c
  2876   002D02  0E96               	movlw	150
  2877   002D04  6E1C               	movwf	tone@duration_ms^0,c
  2878   002D06  EC2F  F011         	call	_tone	;wreg free
  2879   002D0A                     
  2880                           ;main.c: 198:     _delay((unsigned long)((150)*(4000000/4000.0)));
  2881   002D0A  0EC3               	movlw	195
  2882   002D0C  6E2B               	movwf	??_playConfusedTone^0,c
  2883   002D0E  0ECD               	movlw	205
  2884   002D10                     u5047:
  2885   002D10  2EE8               	decfsz	wreg,f,c
  2886   002D12  D7FE               	bra	u5047
  2887   002D14  2E2B               	decfsz	??_playConfusedTone^0,f,c
  2888   002D16  D7FC               	bra	u5047
  2889   002D18  0000               	nop	
  2890                           
  2891                           ;main.c: 199:     tone(392, 150);
  2892   002D1A  0E01               	movlw	1
  2893   002D1C  6E1B               	movwf	(tone@frequency+1)^0,c
  2894   002D1E  0E88               	movlw	136
  2895   002D20  6E1A               	movwf	tone@frequency^0,c
  2896   002D22  0E00               	movlw	0
  2897   002D24  6E1D               	movwf	(tone@duration_ms+1)^0,c
  2898   002D26  0E96               	movlw	150
  2899   002D28  6E1C               	movwf	tone@duration_ms^0,c
  2900   002D2A  EC2F  F011         	call	_tone	;wreg free
  2901   002D2E                     
  2902                           ;main.c: 200:     _delay((unsigned long)((150)*(4000000/4000.0)));
  2903   002D2E  0EC3               	movlw	195
  2904   002D30  6E2B               	movwf	??_playConfusedTone^0,c
  2905   002D32  0ECD               	movlw	205
  2906   002D34                     u5057:
  2907   002D34  2EE8               	decfsz	wreg,f,c
  2908   002D36  D7FE               	bra	u5057
  2909   002D38  2E2B               	decfsz	??_playConfusedTone^0,f,c
  2910   002D3A  D7FC               	bra	u5057
  2911   002D3C  0000               	nop	
  2912   002D3E                     
  2913                           ;main.c: 201:     tone(415, 150);
  2914   002D3E  0E01               	movlw	1
  2915   002D40  6E1B               	movwf	(tone@frequency+1)^0,c
  2916   002D42  0E9F               	movlw	159
  2917   002D44  6E1A               	movwf	tone@frequency^0,c
  2918   002D46  0E00               	movlw	0
  2919   002D48  6E1D               	movwf	(tone@duration_ms+1)^0,c
  2920   002D4A  0E96               	movlw	150
  2921   002D4C  6E1C               	movwf	tone@duration_ms^0,c
  2922   002D4E  EC2F  F011         	call	_tone	;wreg free
  2923                           
  2924                           ;main.c: 202:     _delay((unsigned long)((150)*(4000000/4000.0)));
  2925   002D52  0EC3               	movlw	195
  2926   002D54  6E2B               	movwf	??_playConfusedTone^0,c
  2927   002D56  0ECD               	movlw	205
  2928   002D58                     u5067:
  2929   002D58  2EE8               	decfsz	wreg,f,c
  2930   002D5A  D7FE               	bra	u5067
  2931   002D5C  2E2B               	decfsz	??_playConfusedTone^0,f,c
  2932   002D5E  D7FC               	bra	u5067
  2933   002D60  0000               	nop	
  2934   002D62                     
  2935                           ;main.c: 203:     tone(370, 200);
  2936   002D62  0E01               	movlw	1
  2937   002D64  6E1B               	movwf	(tone@frequency+1)^0,c
  2938   002D66  0E72               	movlw	114
  2939   002D68  6E1A               	movwf	tone@frequency^0,c
  2940   002D6A  0E00               	movlw	0
  2941   002D6C  6E1D               	movwf	(tone@duration_ms+1)^0,c
  2942   002D6E  0EC8               	movlw	200
  2943   002D70  6E1C               	movwf	tone@duration_ms^0,c
  2944   002D72  EC2F  F011         	call	_tone	;wreg free
  2945   002D76  0012               	return		;funcret
  2946   002D78                     __end_of_playConfusedTone:
  2947                           	callstack 0
  2948                           
  2949 ;; *************** function _noise *****************
  2950 ;; Defined at:
  2951 ;;		line 218 in file "main.c"
  2952 ;; Parameters:    Size  Location     Type
  2953 ;;		None
  2954 ;; Auto vars:     Size  Location     Type
  2955 ;;  i               2   50[COMRAM] int 
  2956 ;;  i               2   48[COMRAM] int 
  2957 ;;  i               2   46[COMRAM] int 
  2958 ;;  i               2   44[COMRAM] int 
  2959 ;;  i               2   54[COMRAM] int 
  2960 ;;  i               2   52[COMRAM] int 
  2961 ;; Return value:  Size  Location     Type
  2962 ;;                  1    wreg      void 
  2963 ;; Registers used:
  2964 ;;		wreg, status,2, status,0, cstack
  2965 ;; Tracked objects:
  2966 ;;		On entry : 0/0
  2967 ;;		On exit  : 0/0
  2968 ;;		Unchanged: 0/0
  2969 ;; Data sizes:     COMRAM   BANK0   BANK1   BANK2   BANK3   BANK4   BANK5
  2970 ;;      Params:         0       0       0       0       0       0       0
  2971 ;;      Locals:        12       0       0       0       0       0       0
  2972 ;;      Temps:          2       0       0       0       0       0       0
  2973 ;;      Totals:        14       0       0       0       0       0       0
  2974 ;;Total ram usage:       14 bytes
  2975 ;; Hardware stack levels used: 1
  2976 ;; Hardware stack levels required when called: 4
  2977 ;; This function calls:
  2978 ;;		_tone
  2979 ;; This function is called by:
  2980 ;;		_main
  2981 ;; This function uses a non-reentrant model
  2982 ;;
  2983                           
  2984                           	psect	text4
  2985   00166A                     __ptext4:
  2986                           	callstack 0
  2987   00166A                     _noise:
  2988                           	callstack 26
  2989   00166A                     
  2990                           ;main.c: 219:     for (int i=50; i<1500; i=i+50) {
  2991   00166A  0E00               	movlw	0
  2992   00166C  6E36               	movwf	(noise@i+1)^0,c
  2993   00166E  0E32               	movlw	50
  2994   001670  6E35               	movwf	noise@i^0,c
  2995   001672                     l4411:
  2996                           
  2997                           ;main.c: 220:         tone(i, 5);
  2998   001672  C035  F01A         	movff	noise@i,tone@frequency
  2999   001676  C036  F01B         	movff	noise@i+1,tone@frequency+1
  3000   00167A  0E00               	movlw	0
  3001   00167C  6E1D               	movwf	(tone@duration_ms+1)^0,c
  3002   00167E  0E05               	movlw	5
  3003   001680  6E1C               	movwf	tone@duration_ms^0,c
  3004   001682  EC2F  F011         	call	_tone	;wreg free
  3005   001686                     
  3006                           ;main.c: 221:         _delay((unsigned long)((5)*(4000000/4000.0)));
  3007   001686  0E07               	movlw	7
  3008   001688  6E2B               	movwf	??_noise^0,c
  3009   00168A  0E7D               	movlw	125
  3010   00168C                     u5077:
  3011   00168C  2EE8               	decfsz	wreg,f,c
  3012   00168E  D7FE               	bra	u5077
  3013   001690  2E2B               	decfsz	??_noise^0,f,c
  3014   001692  D7FC               	bra	u5077
  3015   001694  0000               	nop	
  3016   001696                     
  3017                           ;main.c: 222:         tone((i-20), 5);
  3018   001696  0EEC               	movlw	236
  3019   001698  2435               	addwf	noise@i^0,w,c
  3020   00169A  6E1A               	movwf	tone@frequency^0,c
  3021   00169C  0EFF               	movlw	255
  3022   00169E  2036               	addwfc	(noise@i+1)^0,w,c
  3023   0016A0  6E1B               	movwf	(tone@frequency+1)^0,c
  3024   0016A2  0E00               	movlw	0
  3025   0016A4  6E1D               	movwf	(tone@duration_ms+1)^0,c
  3026   0016A6  0E05               	movlw	5
  3027   0016A8  6E1C               	movwf	tone@duration_ms^0,c
  3028   0016AA  EC2F  F011         	call	_tone	;wreg free
  3029                           
  3030                           ;main.c: 223:         _delay((unsigned long)((5)*(4000000/4000.0)));
  3031   0016AE  0E07               	movlw	7
  3032   0016B0  6E2B               	movwf	??_noise^0,c
  3033   0016B2  0E7D               	movlw	125
  3034   0016B4                     u5087:
  3035   0016B4  2EE8               	decfsz	wreg,f,c
  3036   0016B6  D7FE               	bra	u5087
  3037   0016B8  2E2B               	decfsz	??_noise^0,f,c
  3038   0016BA  D7FC               	bra	u5087
  3039   0016BC  0000               	nop	
  3040   0016BE                     
  3041                           ;main.c: 224:     }
  3042   0016BE  0E32               	movlw	50
  3043   0016C0  2435               	addwf	noise@i^0,w,c
  3044   0016C2  6E35               	movwf	noise@i^0,c
  3045   0016C4  0E00               	movlw	0
  3046   0016C6  2036               	addwfc	(noise@i+1)^0,w,c
  3047   0016C8  6E36               	movwf	(noise@i+1)^0,c
  3048   0016CA  BE36               	btfsc	(noise@i+1)^0,7,c
  3049   0016CC  EF71  F00B         	goto	u4591
  3050   0016D0  0EDC               	movlw	220
  3051   0016D2  5C35               	subwf	noise@i^0,w,c
  3052   0016D4  0E05               	movlw	5
  3053   0016D6  5836               	subwfb	(noise@i+1)^0,w,c
  3054   0016D8  A0D8               	btfss	status,0,c
  3055   0016DA  EF71  F00B         	goto	u4591
  3056   0016DE  EF73  F00B         	goto	u4590
  3057   0016E2                     u4591:
  3058   0016E2  EF39  F00B         	goto	l4411
  3059   0016E6                     u4590:
  3060   0016E6                     
  3061                           ;main.c: 226:     _delay((unsigned long)((500)*(4000000/4000.0)));
  3062   0016E6  0E03               	movlw	3
  3063   0016E8  6E2C               	movwf	(??_noise+1)^0,c
  3064   0016EA  0E8A               	movlw	138
  3065   0016EC  6E2B               	movwf	??_noise^0,c
  3066   0016EE  0E56               	movlw	86
  3067   0016F0                     u5097:
  3068   0016F0  2EE8               	decfsz	wreg,f,c
  3069   0016F2  D7FE               	bra	u5097
  3070   0016F4  2E2B               	decfsz	??_noise^0,f,c
  3071   0016F6  D7FC               	bra	u5097
  3072   0016F8  2E2C               	decfsz	(??_noise+1)^0,f,c
  3073   0016FA  D7FA               	bra	u5097
  3074   0016FC                     
  3075                           ;main.c: 228:     for (int i=1500; i>50; i=i-25) {
  3076   0016FC  0E05               	movlw	5
  3077   0016FE  6E38               	movwf	(noise@i_774+1)^0,c
  3078   001700  0EDC               	movlw	220
  3079   001702  6E37               	movwf	noise@i_774^0,c
  3080   001704                     l4429:
  3081                           
  3082                           ;main.c: 229:         tone(i, 5);
  3083   001704  C037  F01A         	movff	noise@i_774,tone@frequency
  3084   001708  C038  F01B         	movff	noise@i_774+1,tone@frequency+1
  3085   00170C  0E00               	movlw	0
  3086   00170E  6E1D               	movwf	(tone@duration_ms+1)^0,c
  3087   001710  0E05               	movlw	5
  3088   001712  6E1C               	movwf	tone@duration_ms^0,c
  3089   001714  EC2F  F011         	call	_tone	;wreg free
  3090   001718                     
  3091                           ;main.c: 230:         _delay((unsigned long)((5)*(4000000/4000.0)));
  3092   001718  0E07               	movlw	7
  3093   00171A  6E2B               	movwf	??_noise^0,c
  3094   00171C  0E7D               	movlw	125
  3095   00171E                     u5107:
  3096   00171E  2EE8               	decfsz	wreg,f,c
  3097   001720  D7FE               	bra	u5107
  3098   001722  2E2B               	decfsz	??_noise^0,f,c
  3099   001724  D7FC               	bra	u5107
  3100   001726  0000               	nop	
  3101   001728                     
  3102                           ;main.c: 231:         tone((i-20), 5);
  3103   001728  0EEC               	movlw	236
  3104   00172A  2437               	addwf	noise@i_774^0,w,c
  3105   00172C  6E1A               	movwf	tone@frequency^0,c
  3106   00172E  0EFF               	movlw	255
  3107   001730  2038               	addwfc	(noise@i_774+1)^0,w,c
  3108   001732  6E1B               	movwf	(tone@frequency+1)^0,c
  3109   001734  0E00               	movlw	0
  3110   001736  6E1D               	movwf	(tone@duration_ms+1)^0,c
  3111   001738  0E05               	movlw	5
  3112   00173A  6E1C               	movwf	tone@duration_ms^0,c
  3113   00173C  EC2F  F011         	call	_tone	;wreg free
  3114                           
  3115                           ;main.c: 232:         _delay((unsigned long)((5)*(4000000/4000.0)));
  3116   001740  0E07               	movlw	7
  3117   001742  6E2B               	movwf	??_noise^0,c
  3118   001744  0E7D               	movlw	125
  3119   001746                     u5117:
  3120   001746  2EE8               	decfsz	wreg,f,c
  3121   001748  D7FE               	bra	u5117
  3122   00174A  2E2B               	decfsz	??_noise^0,f,c
  3123   00174C  D7FC               	bra	u5117
  3124   00174E  0000               	nop	
  3125   001750                     
  3126                           ;main.c: 233:     }
  3127   001750  0EE7               	movlw	231
  3128   001752  2437               	addwf	noise@i_774^0,w,c
  3129   001754  6E37               	movwf	noise@i_774^0,c
  3130   001756  0EFF               	movlw	255
  3131   001758  2038               	addwfc	(noise@i_774+1)^0,w,c
  3132   00175A  6E38               	movwf	(noise@i_774+1)^0,c
  3133   00175C  BE38               	btfsc	(noise@i_774+1)^0,7,c
  3134   00175E  EFBC  F00B         	goto	u4600
  3135   001762  5038               	movf	(noise@i_774+1)^0,w,c
  3136   001764  E107               	bnz	u4601
  3137   001766  0E33               	movlw	51
  3138   001768  5C37               	subwf	noise@i_774^0,w,c
  3139   00176A  B0D8               	btfsc	status,0,c
  3140   00176C  EFBA  F00B         	goto	u4601
  3141   001770  EFBC  F00B         	goto	u4600
  3142   001774                     u4601:
  3143   001774  EF82  F00B         	goto	l4429
  3144   001778                     u4600:
  3145   001778                     
  3146                           ;main.c: 235:     _delay((unsigned long)((500)*(4000000/4000.0)));
  3147   001778  0E03               	movlw	3
  3148   00177A  6E2C               	movwf	(??_noise+1)^0,c
  3149   00177C  0E8A               	movlw	138
  3150   00177E  6E2B               	movwf	??_noise^0,c
  3151   001780  0E56               	movlw	86
  3152   001782                     u5127:
  3153   001782  2EE8               	decfsz	wreg,f,c
  3154   001784  D7FE               	bra	u5127
  3155   001786  2E2B               	decfsz	??_noise^0,f,c
  3156   001788  D7FC               	bra	u5127
  3157   00178A  2E2C               	decfsz	(??_noise+1)^0,f,c
  3158   00178C  D7FA               	bra	u5127
  3159   00178E                     
  3160                           ;main.c: 237:     for (int i=0; i<20; i++) {
  3161   00178E  0E00               	movlw	0
  3162   001790  6E2E               	movwf	(noise@i_775+1)^0,c
  3163   001792  0E00               	movlw	0
  3164   001794  6E2D               	movwf	noise@i_775^0,c
  3165   001796                     l4447:
  3166                           
  3167                           ;main.c: 238:         tone(1500, 5);
  3168   001796  0E05               	movlw	5
  3169   001798  6E1B               	movwf	(tone@frequency+1)^0,c
  3170   00179A  0EDC               	movlw	220
  3171   00179C  6E1A               	movwf	tone@frequency^0,c
  3172   00179E  0E00               	movlw	0
  3173   0017A0  6E1D               	movwf	(tone@duration_ms+1)^0,c
  3174   0017A2  0E05               	movlw	5
  3175   0017A4  6E1C               	movwf	tone@duration_ms^0,c
  3176   0017A6  EC2F  F011         	call	_tone	;wreg free
  3177   0017AA                     
  3178                           ;main.c: 239:         _delay((unsigned long)((5)*(4000000/4000.0)));
  3179   0017AA  0E07               	movlw	7
  3180   0017AC  6E2B               	movwf	??_noise^0,c
  3181   0017AE  0E7D               	movlw	125
  3182   0017B0                     u5137:
  3183   0017B0  2EE8               	decfsz	wreg,f,c
  3184   0017B2  D7FE               	bra	u5137
  3185   0017B4  2E2B               	decfsz	??_noise^0,f,c
  3186   0017B6  D7FC               	bra	u5137
  3187   0017B8  0000               	nop	
  3188   0017BA                     
  3189                           ;main.c: 240:         tone(1480, 5);
  3190   0017BA  0E05               	movlw	5
  3191   0017BC  6E1B               	movwf	(tone@frequency+1)^0,c
  3192   0017BE  0EC8               	movlw	200
  3193   0017C0  6E1A               	movwf	tone@frequency^0,c
  3194   0017C2  0E00               	movlw	0
  3195   0017C4  6E1D               	movwf	(tone@duration_ms+1)^0,c
  3196   0017C6  0E05               	movlw	5
  3197   0017C8  6E1C               	movwf	tone@duration_ms^0,c
  3198   0017CA  EC2F  F011         	call	_tone	;wreg free
  3199                           
  3200                           ;main.c: 241:         _delay((unsigned long)((5)*(4000000/4000.0)));
  3201   0017CE  0E07               	movlw	7
  3202   0017D0  6E2B               	movwf	??_noise^0,c
  3203   0017D2  0E7D               	movlw	125
  3204   0017D4                     u5147:
  3205   0017D4  2EE8               	decfsz	wreg,f,c
  3206   0017D6  D7FE               	bra	u5147
  3207   0017D8  2E2B               	decfsz	??_noise^0,f,c
  3208   0017DA  D7FC               	bra	u5147
  3209   0017DC  0000               	nop	
  3210   0017DE                     
  3211                           ;main.c: 242:     }
  3212   0017DE  4A2D               	infsnz	noise@i_775^0,f,c
  3213   0017E0  2A2E               	incf	(noise@i_775+1)^0,f,c
  3214   0017E2  BE2E               	btfsc	(noise@i_775+1)^0,7,c
  3215   0017E4  EFFD  F00B         	goto	u4611
  3216   0017E8  502E               	movf	(noise@i_775+1)^0,w,c
  3217   0017EA  E109               	bnz	u4610
  3218   0017EC  0E14               	movlw	20
  3219   0017EE  5C2D               	subwf	noise@i_775^0,w,c
  3220   0017F0  A0D8               	btfss	status,0,c
  3221   0017F2  EFFD  F00B         	goto	u4611
  3222   0017F6  EFFF  F00B         	goto	u4610
  3223   0017FA                     u4611:
  3224   0017FA  EFCB  F00B         	goto	l4447
  3225   0017FE                     u4610:
  3226   0017FE                     
  3227                           ;main.c: 243:     _delay((unsigned long)((50)*(4000000/4000.0)));
  3228   0017FE  0E41               	movlw	65
  3229   001800  6E2B               	movwf	??_noise^0,c
  3230   001802  0EEE               	movlw	238
  3231   001804                     u5157:
  3232   001804  2EE8               	decfsz	wreg,f,c
  3233   001806  D7FE               	bra	u5157
  3234   001808  2E2B               	decfsz	??_noise^0,f,c
  3235   00180A  D7FC               	bra	u5157
  3236   00180C  D000               	nop2	
  3237   00180E                     
  3238                           ;main.c: 244:     for (int i=0; i<10; i++) {
  3239   00180E  0E00               	movlw	0
  3240   001810  6E30               	movwf	(noise@i_776+1)^0,c
  3241   001812  0E00               	movlw	0
  3242   001814  6E2F               	movwf	noise@i_776^0,c
  3243   001816                     l4463:
  3244                           
  3245                           ;main.c: 245:         tone(1550, 5);
  3246   001816  0E06               	movlw	6
  3247   001818  6E1B               	movwf	(tone@frequency+1)^0,c
  3248   00181A  0E0E               	movlw	14
  3249   00181C  6E1A               	movwf	tone@frequency^0,c
  3250   00181E  0E00               	movlw	0
  3251   001820  6E1D               	movwf	(tone@duration_ms+1)^0,c
  3252   001822  0E05               	movlw	5
  3253   001824  6E1C               	movwf	tone@duration_ms^0,c
  3254   001826  EC2F  F011         	call	_tone	;wreg free
  3255   00182A                     
  3256                           ;main.c: 246:         _delay((unsigned long)((5)*(4000000/4000.0)));
  3257   00182A  0E07               	movlw	7
  3258   00182C  6E2B               	movwf	??_noise^0,c
  3259   00182E  0E7D               	movlw	125
  3260   001830                     u5167:
  3261   001830  2EE8               	decfsz	wreg,f,c
  3262   001832  D7FE               	bra	u5167
  3263   001834  2E2B               	decfsz	??_noise^0,f,c
  3264   001836  D7FC               	bra	u5167
  3265   001838  0000               	nop	
  3266   00183A                     
  3267                           ;main.c: 247:         tone(1530, 5);
  3268   00183A  0E05               	movlw	5
  3269   00183C  6E1B               	movwf	(tone@frequency+1)^0,c
  3270   00183E  0EFA               	movlw	250
  3271   001840  6E1A               	movwf	tone@frequency^0,c
  3272   001842  0E00               	movlw	0
  3273   001844  6E1D               	movwf	(tone@duration_ms+1)^0,c
  3274   001846  0E05               	movlw	5
  3275   001848  6E1C               	movwf	tone@duration_ms^0,c
  3276   00184A  EC2F  F011         	call	_tone	;wreg free
  3277                           
  3278                           ;main.c: 248:         _delay((unsigned long)((5)*(4000000/4000.0)));
  3279   00184E  0E07               	movlw	7
  3280   001850  6E2B               	movwf	??_noise^0,c
  3281   001852  0E7D               	movlw	125
  3282   001854                     u5177:
  3283   001854  2EE8               	decfsz	wreg,f,c
  3284   001856  D7FE               	bra	u5177
  3285   001858  2E2B               	decfsz	??_noise^0,f,c
  3286   00185A  D7FC               	bra	u5177
  3287   00185C  0000               	nop	
  3288   00185E                     
  3289                           ;main.c: 249:     }
  3290   00185E  4A2F               	infsnz	noise@i_776^0,f,c
  3291   001860  2A30               	incf	(noise@i_776+1)^0,f,c
  3292   001862  BE30               	btfsc	(noise@i_776+1)^0,7,c
  3293   001864  EF3D  F00C         	goto	u4621
  3294   001868  5030               	movf	(noise@i_776+1)^0,w,c
  3295   00186A  E109               	bnz	u4620
  3296   00186C  0E0A               	movlw	10
  3297   00186E  5C2F               	subwf	noise@i_776^0,w,c
  3298   001870  A0D8               	btfss	status,0,c
  3299   001872  EF3D  F00C         	goto	u4621
  3300   001876  EF3F  F00C         	goto	u4620
  3301   00187A                     u4621:
  3302   00187A  EF0B  F00C         	goto	l4463
  3303   00187E                     u4620:
  3304   00187E                     
  3305                           ;main.c: 251:     _delay((unsigned long)((500)*(4000000/4000.0)));
  3306   00187E  0E03               	movlw	3
  3307   001880  6E2C               	movwf	(??_noise+1)^0,c
  3308   001882  0E8A               	movlw	138
  3309   001884  6E2B               	movwf	??_noise^0,c
  3310   001886  0E56               	movlw	86
  3311   001888                     u5187:
  3312   001888  2EE8               	decfsz	wreg,f,c
  3313   00188A  D7FE               	bra	u5187
  3314   00188C  2E2B               	decfsz	??_noise^0,f,c
  3315   00188E  D7FC               	bra	u5187
  3316   001890  2E2C               	decfsz	(??_noise+1)^0,f,c
  3317   001892  D7FA               	bra	u5187
  3318   001894                     
  3319                           ;main.c: 253:     for (int i=0; i<10; i++) {
  3320   001894  0E00               	movlw	0
  3321   001896  6E32               	movwf	(noise@i_777+1)^0,c
  3322   001898  0E00               	movlw	0
  3323   00189A  6E31               	movwf	noise@i_777^0,c
  3324   00189C                     l4479:
  3325                           
  3326                           ;main.c: 254:         tone(750, 5);
  3327   00189C  0E02               	movlw	2
  3328   00189E  6E1B               	movwf	(tone@frequency+1)^0,c
  3329   0018A0  0EEE               	movlw	238
  3330   0018A2  6E1A               	movwf	tone@frequency^0,c
  3331   0018A4  0E00               	movlw	0
  3332   0018A6  6E1D               	movwf	(tone@duration_ms+1)^0,c
  3333   0018A8  0E05               	movlw	5
  3334   0018AA  6E1C               	movwf	tone@duration_ms^0,c
  3335   0018AC  EC2F  F011         	call	_tone	;wreg free
  3336   0018B0                     
  3337                           ;main.c: 255:         _delay((unsigned long)((5)*(4000000/4000.0)));
  3338   0018B0  0E07               	movlw	7
  3339   0018B2  6E2B               	movwf	??_noise^0,c
  3340   0018B4  0E7D               	movlw	125
  3341   0018B6                     u5197:
  3342   0018B6  2EE8               	decfsz	wreg,f,c
  3343   0018B8  D7FE               	bra	u5197
  3344   0018BA  2E2B               	decfsz	??_noise^0,f,c
  3345   0018BC  D7FC               	bra	u5197
  3346   0018BE  0000               	nop	
  3347   0018C0                     
  3348                           ;main.c: 256:         tone(730, 5);
  3349   0018C0  0E02               	movlw	2
  3350   0018C2  6E1B               	movwf	(tone@frequency+1)^0,c
  3351   0018C4  0EDA               	movlw	218
  3352   0018C6  6E1A               	movwf	tone@frequency^0,c
  3353   0018C8  0E00               	movlw	0
  3354   0018CA  6E1D               	movwf	(tone@duration_ms+1)^0,c
  3355   0018CC  0E05               	movlw	5
  3356   0018CE  6E1C               	movwf	tone@duration_ms^0,c
  3357   0018D0  EC2F  F011         	call	_tone	;wreg free
  3358                           
  3359                           ;main.c: 257:         _delay((unsigned long)((5)*(4000000/4000.0)));
  3360   0018D4  0E07               	movlw	7
  3361   0018D6  6E2B               	movwf	??_noise^0,c
  3362   0018D8  0E7D               	movlw	125
  3363   0018DA                     u5207:
  3364   0018DA  2EE8               	decfsz	wreg,f,c
  3365   0018DC  D7FE               	bra	u5207
  3366   0018DE  2E2B               	decfsz	??_noise^0,f,c
  3367   0018E0  D7FC               	bra	u5207
  3368   0018E2  0000               	nop	
  3369   0018E4                     
  3370                           ;main.c: 258:     }
  3371   0018E4  4A31               	infsnz	noise@i_777^0,f,c
  3372   0018E6  2A32               	incf	(noise@i_777+1)^0,f,c
  3373   0018E8  BE32               	btfsc	(noise@i_777+1)^0,7,c
  3374   0018EA  EF80  F00C         	goto	u4631
  3375   0018EE  5032               	movf	(noise@i_777+1)^0,w,c
  3376   0018F0  E109               	bnz	u4630
  3377   0018F2  0E0A               	movlw	10
  3378   0018F4  5C31               	subwf	noise@i_777^0,w,c
  3379   0018F6  A0D8               	btfss	status,0,c
  3380   0018F8  EF80  F00C         	goto	u4631
  3381   0018FC  EF82  F00C         	goto	u4630
  3382   001900                     u4631:
  3383   001900  EF4E  F00C         	goto	l4479
  3384   001904                     u4630:
  3385   001904                     
  3386                           ;main.c: 259:     _delay((unsigned long)((100)*(4000000/4000.0)));
  3387   001904  0E82               	movlw	130
  3388   001906  6E2B               	movwf	??_noise^0,c
  3389   001908  0EDE               	movlw	222
  3390   00190A                     u5217:
  3391   00190A  2EE8               	decfsz	wreg,f,c
  3392   00190C  D7FE               	bra	u5217
  3393   00190E  2E2B               	decfsz	??_noise^0,f,c
  3394   001910  D7FC               	bra	u5217
  3395   001912                     
  3396                           ;main.c: 260:     for (int i=0; i<20; i++) {
  3397   001912  0E00               	movlw	0
  3398   001914  6E34               	movwf	(noise@i_778+1)^0,c
  3399   001916  0E00               	movlw	0
  3400   001918  6E33               	movwf	noise@i_778^0,c
  3401   00191A                     l4495:
  3402                           
  3403                           ;main.c: 261:         tone(700, 5);
  3404   00191A  0E02               	movlw	2
  3405   00191C  6E1B               	movwf	(tone@frequency+1)^0,c
  3406   00191E  0EBC               	movlw	188
  3407   001920  6E1A               	movwf	tone@frequency^0,c
  3408   001922  0E00               	movlw	0
  3409   001924  6E1D               	movwf	(tone@duration_ms+1)^0,c
  3410   001926  0E05               	movlw	5
  3411   001928  6E1C               	movwf	tone@duration_ms^0,c
  3412   00192A  EC2F  F011         	call	_tone	;wreg free
  3413   00192E                     
  3414                           ;main.c: 262:         _delay((unsigned long)((5)*(4000000/4000.0)));
  3415   00192E  0E07               	movlw	7
  3416   001930  6E2B               	movwf	??_noise^0,c
  3417   001932  0E7D               	movlw	125
  3418   001934                     u5227:
  3419   001934  2EE8               	decfsz	wreg,f,c
  3420   001936  D7FE               	bra	u5227
  3421   001938  2E2B               	decfsz	??_noise^0,f,c
  3422   00193A  D7FC               	bra	u5227
  3423   00193C  0000               	nop	
  3424   00193E                     
  3425                           ;main.c: 263:         tone(680, 5);
  3426   00193E  0E02               	movlw	2
  3427   001940  6E1B               	movwf	(tone@frequency+1)^0,c
  3428   001942  0EA8               	movlw	168
  3429   001944  6E1A               	movwf	tone@frequency^0,c
  3430   001946  0E00               	movlw	0
  3431   001948  6E1D               	movwf	(tone@duration_ms+1)^0,c
  3432   00194A  0E05               	movlw	5
  3433   00194C  6E1C               	movwf	tone@duration_ms^0,c
  3434   00194E  EC2F  F011         	call	_tone	;wreg free
  3435                           
  3436                           ;main.c: 264:         _delay((unsigned long)((5)*(4000000/4000.0)));
  3437   001952  0E07               	movlw	7
  3438   001954  6E2B               	movwf	??_noise^0,c
  3439   001956  0E7D               	movlw	125
  3440   001958                     u5237:
  3441   001958  2EE8               	decfsz	wreg,f,c
  3442   00195A  D7FE               	bra	u5237
  3443   00195C  2E2B               	decfsz	??_noise^0,f,c
  3444   00195E  D7FC               	bra	u5237
  3445   001960  0000               	nop	
  3446   001962                     
  3447                           ;main.c: 265:     }
  3448   001962  4A33               	infsnz	noise@i_778^0,f,c
  3449   001964  2A34               	incf	(noise@i_778+1)^0,f,c
  3450   001966  BE34               	btfsc	(noise@i_778+1)^0,7,c
  3451   001968  EFBF  F00C         	goto	u4641
  3452   00196C  5034               	movf	(noise@i_778+1)^0,w,c
  3453   00196E  E109               	bnz	u4640
  3454   001970  0E14               	movlw	20
  3455   001972  5C33               	subwf	noise@i_778^0,w,c
  3456   001974  A0D8               	btfss	status,0,c
  3457   001976  EFBF  F00C         	goto	u4641
  3458   00197A  EFC1  F00C         	goto	u4640
  3459   00197E                     u4641:
  3460   00197E  EF8D  F00C         	goto	l4495
  3461   001982                     u4640:
  3462   001982  0012               	return		;funcret
  3463   001984                     __end_of_noise:
  3464                           	callstack 0
  3465                           
  3466 ;; *************** function _tone *****************
  3467 ;; Defined at:
  3468 ;;		line 126 in file "main.c"
  3469 ;; Parameters:    Size  Location     Type
  3470 ;;  frequency       2   25[COMRAM] unsigned int 
  3471 ;;  duration_ms     2   27[COMRAM] unsigned int 
  3472 ;; Auto vars:     Size  Location     Type
  3473 ;;  period_us       4   33[COMRAM] unsigned long 
  3474 ;;  toggle_time_    2   40[COMRAM] unsigned int 
  3475 ;;  pr              2   37[COMRAM] unsigned int 
  3476 ;;  prescaler_bi    1   39[COMRAM] unsigned char 
  3477 ;; Return value:  Size  Location     Type
  3478 ;;                  1    wreg      void 
  3479 ;; Registers used:
  3480 ;;		wreg, status,2, status,0, cstack
  3481 ;; Tracked objects:
  3482 ;;		On entry : 0/0
  3483 ;;		On exit  : 0/0
  3484 ;;		Unchanged: 0/0
  3485 ;; Data sizes:     COMRAM   BANK0   BANK1   BANK2   BANK3   BANK4   BANK5
  3486 ;;      Params:         4       0       0       0       0       0       0
  3487 ;;      Locals:         9       0       0       0       0       0       0
  3488 ;;      Temps:          4       0       0       0       0       0       0
  3489 ;;      Totals:        17       0       0       0       0       0       0
  3490 ;;Total ram usage:       17 bytes
  3491 ;; Hardware stack levels used: 1
  3492 ;; Hardware stack levels required when called: 3
  3493 ;; This function calls:
  3494 ;;		___lldiv
  3495 ;;		___lmul
  3496 ;; This function is called by:
  3497 ;;		_playNotes
  3498 ;;		_playConfusedTone
  3499 ;;		_noise
  3500 ;;		_playHappyTone
  3501 ;; This function uses a non-reentrant model
  3502 ;;
  3503                           
  3504                           	psect	text5
  3505   00225E                     __ptext5:
  3506                           	callstack 0
  3507   00225E                     _tone:
  3508                           	callstack 26
  3509   00225E                     
  3510                           ;main.c: 127:     if (frequency == 0) return;
  3511   00225E  501A               	movf	tone@frequency^0,w,c
  3512   002260  101B               	iorwf	(tone@frequency+1)^0,w,c
  3513   002262  A4D8               	btfss	status,2,c
  3514   002264  EF36  F011         	goto	u4391
  3515   002268  EF38  F011         	goto	u4390
  3516   00226C                     u4391:
  3517   00226C  EF3A  F011         	goto	l263
  3518   002270                     u4390:
  3519   002270  EF00  F012         	goto	l264
  3520   002274                     l263:
  3521                           
  3522                           ;main.c: 130:     T2CONbits.TMR2ON = 0;
  3523   002274  94CA               	bcf	202,2,c	;volatile
  3524                           
  3525                           ;main.c: 131:     LATDbits.LATD1 = 0;
  3526   002276  928C               	bcf	140,1,c	;volatile
  3527   002278                     
  3528                           ;main.c: 134:     unsigned long period_us = 1000000UL / (unsigned long)frequency;
  3529   002278  0E40               	movlw	64
  3530   00227A  6E0D               	movwf	___lldiv@dividend^0,c
  3531   00227C  0E42               	movlw	66
  3532   00227E  6E0E               	movwf	(___lldiv@dividend+1)^0,c
  3533   002280  0E0F               	movlw	15
  3534   002282  6E0F               	movwf	(___lldiv@dividend+2)^0,c
  3535   002284  0E00               	movlw	0
  3536   002286  6E10               	movwf	(___lldiv@dividend+3)^0,c
  3537   002288  C01A  F011         	movff	tone@frequency,___lldiv@divisor
  3538   00228C  C01B  F012         	movff	tone@frequency+1,___lldiv@divisor+1
  3539   002290  6A13               	clrf	(___lldiv@divisor+2)^0,c
  3540   002292  6A14               	clrf	(___lldiv@divisor+3)^0,c
  3541   002294  EC23  F018         	call	___lldiv	;wreg free
  3542   002298  C00D  F022         	movff	?___lldiv,tone@period_us
  3543   00229C  C00E  F023         	movff	?___lldiv+1,tone@period_us+1
  3544   0022A0  C00F  F024         	movff	?___lldiv+2,tone@period_us+2
  3545   0022A4  C010  F025         	movff	?___lldiv+3,tone@period_us+3
  3546   0022A8                     
  3547                           ;main.c: 135:     unsigned int toggle_time_us = (unsigned int)(period_us / 2UL);
  3548   0022A8  C022  F01E         	movff	tone@period_us,??_tone
  3549   0022AC  C023  F01F         	movff	tone@period_us+1,??_tone+1
  3550   0022B0  C024  F020         	movff	tone@period_us+2,??_tone+2
  3551   0022B4  C025  F021         	movff	tone@period_us+3,??_tone+3
  3552   0022B8  90D8               	bcf	status,0,c
  3553   0022BA  3221               	rrcf	(??_tone+3)^0,f,c
  3554   0022BC  3220               	rrcf	(??_tone+2)^0,f,c
  3555   0022BE  321F               	rrcf	(??_tone+1)^0,f,c
  3556   0022C0  321E               	rrcf	??_tone^0,f,c
  3557   0022C2  C01E  F029         	movff	??_tone,tone@toggle_time_us
  3558   0022C6  C01F  F02A         	movff	??_tone+1,tone@toggle_time_us+1
  3559   0022CA                     
  3560                           ;main.c: 142:     if (toggle_time_us <= 256) {
  3561   0022CA  0429               	decf	tone@toggle_time_us^0,w,c
  3562   0022CC  0E01               	movlw	1
  3563   0022CE  582A               	subwfb	(tone@toggle_time_us+1)^0,w,c
  3564   0022D0  B0D8               	btfsc	status,0,c
  3565   0022D2  EF6D  F011         	goto	u4401
  3566   0022D6  EF6F  F011         	goto	u4400
  3567   0022DA                     u4401:
  3568   0022DA  EF78  F011         	goto	l4181
  3569   0022DE                     u4400:
  3570   0022DE                     
  3571                           ;main.c: 143:         prescaler_bits = 0;
  3572   0022DE  6A28               	clrf	tone@prescaler_bits^0,c
  3573   0022E0                     
  3574                           ;main.c: 144:         pr = toggle_time_us - 1;
  3575   0022E0  0EFF               	movlw	255
  3576   0022E2  2429               	addwf	tone@toggle_time_us^0,w,c
  3577   0022E4  6E26               	movwf	tone@pr^0,c
  3578   0022E6  0EFF               	movlw	255
  3579   0022E8  202A               	addwfc	(tone@toggle_time_us+1)^0,w,c
  3580   0022EA  6E27               	movwf	(tone@pr+1)^0,c
  3581                           
  3582                           ;main.c: 145:     } else if ((toggle_time_us / 4) <= 256) {
  3583   0022EC  EFCA  F011         	goto	l4193
  3584   0022F0                     l4181:
  3585   0022F0  C029  F01E         	movff	tone@toggle_time_us,??_tone
  3586   0022F4  C02A  F01F         	movff	tone@toggle_time_us+1,??_tone+1
  3587   0022F8  90D8               	bcf	status,0,c
  3588   0022FA  321F               	rrcf	(??_tone+1)^0,f,c
  3589   0022FC  321E               	rrcf	??_tone^0,f,c
  3590   0022FE  90D8               	bcf	status,0,c
  3591   002300  321F               	rrcf	(??_tone+1)^0,f,c
  3592   002302  321E               	rrcf	??_tone^0,f,c
  3593   002304  041E               	decf	??_tone^0,w,c
  3594   002306  0E01               	movlw	1
  3595   002308  581F               	subwfb	(??_tone+1)^0,w,c
  3596   00230A  B0D8               	btfsc	status,0,c
  3597   00230C  EF8A  F011         	goto	u4411
  3598   002310  EF8C  F011         	goto	u4410
  3599   002314                     u4411:
  3600   002314  EFA0  F011         	goto	l4187
  3601   002318                     u4410:
  3602   002318                     
  3603                           ;main.c: 146:         prescaler_bits = 1;
  3604   002318  0E01               	movlw	1
  3605   00231A  6E28               	movwf	tone@prescaler_bits^0,c
  3606   00231C                     
  3607                           ;main.c: 147:         pr = (toggle_time_us / 4) - 1;
  3608   00231C  C029  F01E         	movff	tone@toggle_time_us,??_tone
  3609   002320  C02A  F01F         	movff	tone@toggle_time_us+1,??_tone+1
  3610   002324  90D8               	bcf	status,0,c
  3611   002326  321F               	rrcf	(??_tone+1)^0,f,c
  3612   002328  321E               	rrcf	??_tone^0,f,c
  3613   00232A  90D8               	bcf	status,0,c
  3614   00232C  321F               	rrcf	(??_tone+1)^0,f,c
  3615   00232E  321E               	rrcf	??_tone^0,f,c
  3616   002330  0EFF               	movlw	255
  3617   002332  241E               	addwf	??_tone^0,w,c
  3618   002334  6E26               	movwf	tone@pr^0,c
  3619   002336  0EFF               	movlw	255
  3620   002338  201F               	addwfc	(??_tone+1)^0,w,c
  3621   00233A  6E27               	movwf	(tone@pr+1)^0,c
  3622                           
  3623                           ;main.c: 148:     } else if ((toggle_time_us / 16) <= 256) {
  3624   00233C  EFCA  F011         	goto	l4193
  3625   002340                     l4187:
  3626   002340  C029  F01E         	movff	tone@toggle_time_us,??_tone
  3627   002344  C02A  F01F         	movff	tone@toggle_time_us+1,??_tone+1
  3628   002348  0E04               	movlw	4
  3629   00234A  6E20               	movwf	(??_tone+2)^0,c
  3630   00234C                     u4425:
  3631   00234C  90D8               	bcf	status,0,c
  3632   00234E  321F               	rrcf	(??_tone+1)^0,f,c
  3633   002350  321E               	rrcf	??_tone^0,f,c
  3634   002352  2E20               	decfsz	(??_tone+2)^0,f,c
  3635   002354  EFA6  F011         	goto	u4425
  3636   002358  041E               	decf	??_tone^0,w,c
  3637   00235A  0E01               	movlw	1
  3638   00235C  581F               	subwfb	(??_tone+1)^0,w,c
  3639   00235E  B0D8               	btfsc	status,0,c
  3640   002360  EFB4  F011         	goto	u4431
  3641   002364  EFB6  F011         	goto	u4430
  3642   002368                     u4431:
  3643   002368  EF00  F012         	goto	l264
  3644   00236C                     u4430:
  3645   00236C                     
  3646                           ;main.c: 149:         prescaler_bits = 2;
  3647   00236C  0E02               	movlw	2
  3648   00236E  6E28               	movwf	tone@prescaler_bits^0,c
  3649   002370                     
  3650                           ;main.c: 150:         pr = (toggle_time_us / 16) - 1;
  3651   002370  C029  F01E         	movff	tone@toggle_time_us,??_tone
  3652   002374  C02A  F01F         	movff	tone@toggle_time_us+1,??_tone+1
  3653   002378  0E04               	movlw	4
  3654   00237A  6E20               	movwf	(??_tone+2)^0,c
  3655   00237C                     u4445:
  3656   00237C  90D8               	bcf	status,0,c
  3657   00237E  321F               	rrcf	(??_tone+1)^0,f,c
  3658   002380  321E               	rrcf	??_tone^0,f,c
  3659   002382  2E20               	decfsz	(??_tone+2)^0,f,c
  3660   002384  EFBE  F011         	goto	u4445
  3661   002388  0EFF               	movlw	255
  3662   00238A  241E               	addwf	??_tone^0,w,c
  3663   00238C  6E26               	movwf	tone@pr^0,c
  3664   00238E  0EFF               	movlw	255
  3665   002390  201F               	addwfc	(??_tone+1)^0,w,c
  3666   002392  6E27               	movwf	(tone@pr+1)^0,c
  3667   002394                     l4193:
  3668                           
  3669                           ;main.c: 157:     T2CONbits.T2CKPS = prescaler_bits;
  3670   002394  50CA               	movf	202,w,c	;volatile
  3671   002396  1828               	xorwf	tone@prescaler_bits^0,w,c
  3672   002398  0BFC               	andlw	-4
  3673   00239A  1828               	xorwf	tone@prescaler_bits^0,w,c
  3674   00239C  6ECA               	movwf	202,c	;volatile
  3675   00239E                     
  3676                           ;main.c: 160:     PR2 = (unsigned char)pr;
  3677   00239E  C026  FFCB         	movff	tone@pr,4043	;volatile
  3678   0023A2                     
  3679                           ;main.c: 161:     TMR2 = 0;
  3680   0023A2  6ACC               	clrf	204,c	;volatile
  3681   0023A4                     
  3682                           ;main.c: 162:     PIR1bits.TMR2IF = 0;
  3683   0023A4  929E               	bcf	158,1,c	;volatile
  3684   0023A6                     
  3685                           ;main.c: 165:     tone_toggle_count = ((unsigned long)duration_ms * 1000UL) / (unsigned 
      +                          long)toggle_time_us;
  3686   0023A6  C01C  F001         	movff	tone@duration_ms,___lmul@multiplier
  3687   0023AA  C01D  F002         	movff	tone@duration_ms+1,___lmul@multiplier+1
  3688   0023AE  6A03               	clrf	(___lmul@multiplier+2)^0,c
  3689   0023B0  6A04               	clrf	(___lmul@multiplier+3)^0,c
  3690   0023B2  0EE8               	movlw	232
  3691   0023B4  6E05               	movwf	___lmul@multiplicand^0,c
  3692   0023B6  0E03               	movlw	3
  3693   0023B8  6E06               	movwf	(___lmul@multiplicand+1)^0,c
  3694   0023BA  0E00               	movlw	0
  3695   0023BC  6E07               	movwf	(___lmul@multiplicand+2)^0,c
  3696   0023BE  0E00               	movlw	0
  3697   0023C0  6E08               	movwf	(___lmul@multiplicand+3)^0,c
  3698   0023C2  ECE5  F018         	call	___lmul	;wreg free
  3699   0023C6  C001  F00D         	movff	?___lmul,___lldiv@dividend
  3700   0023CA  C002  F00E         	movff	?___lmul+1,___lldiv@dividend+1
  3701   0023CE  C003  F00F         	movff	?___lmul+2,___lldiv@dividend+2
  3702   0023D2  C004  F010         	movff	?___lmul+3,___lldiv@dividend+3
  3703   0023D6  C029  F011         	movff	tone@toggle_time_us,___lldiv@divisor
  3704   0023DA  C02A  F012         	movff	tone@toggle_time_us+1,___lldiv@divisor+1
  3705   0023DE  6A13               	clrf	(___lldiv@divisor+2)^0,c
  3706   0023E0  6A14               	clrf	(___lldiv@divisor+3)^0,c
  3707   0023E2  EC23  F018         	call	___lldiv	;wreg free
  3708   0023E6  C00D  F0C3         	movff	?___lldiv,_tone_toggle_count	;volatile
  3709   0023EA  C00E  F0C4         	movff	?___lldiv+1,_tone_toggle_count+1	;volatile
  3710   0023EE  C00F  F0C5         	movff	?___lldiv+2,_tone_toggle_count+2	;volatile
  3711   0023F2  C010  F0C6         	movff	?___lldiv+3,_tone_toggle_count+3	;volatile
  3712   0023F6                     
  3713                           ;main.c: 168:     _delay((unsigned long)((10)*(4000000/4000000.0)));
  3714   0023F6  0E03               	movlw	3
  3715   0023F8                     u5247:
  3716   0023F8  2EE8               	decfsz	wreg,f,c
  3717   0023FA  D7FE               	bra	u5247
  3718   0023FC  0000               	nop	
  3719   0023FE                     
  3720                           ;main.c: 171:     T2CONbits.TMR2ON = 1;
  3721   0023FE  84CA               	bsf	202,2,c	;volatile
  3722   002400                     l264:
  3723   002400  0012               	return		;funcret
  3724   002402                     __end_of_tone:
  3725                           	callstack 0
  3726                           
  3727 ;; *************** function ___lmul *****************
  3728 ;; Defined at:
  3729 ;;		line 15 in file "C:\Program Files\Microchip\xc8\v3.00\pic\sources\c99\common\Umul32.c"
  3730 ;; Parameters:    Size  Location     Type
  3731 ;;  multiplier      4    0[COMRAM] unsigned long 
  3732 ;;  multiplicand    4    4[COMRAM] unsigned long 
  3733 ;; Auto vars:     Size  Location     Type
  3734 ;;  product         4    8[COMRAM] unsigned long 
  3735 ;; Return value:  Size  Location     Type
  3736 ;;                  4    0[COMRAM] unsigned long 
  3737 ;; Registers used:
  3738 ;;		wreg, status,2, status,0
  3739 ;; Tracked objects:
  3740 ;;		On entry : 0/0
  3741 ;;		On exit  : 0/0
  3742 ;;		Unchanged: 0/0
  3743 ;; Data sizes:     COMRAM   BANK0   BANK1   BANK2   BANK3   BANK4   BANK5
  3744 ;;      Params:         8       0       0       0       0       0       0
  3745 ;;      Locals:         4       0       0       0       0       0       0
  3746 ;;      Temps:          0       0       0       0       0       0       0
  3747 ;;      Totals:        12       0       0       0       0       0       0
  3748 ;;Total ram usage:       12 bytes
  3749 ;; Hardware stack levels used: 1
  3750 ;; Hardware stack levels required when called: 2
  3751 ;; This function calls:
  3752 ;;		Nothing
  3753 ;; This function is called by:
  3754 ;;		_tone
  3755 ;; This function uses a non-reentrant model
  3756 ;;
  3757                           
  3758                           	psect	text6
  3759   0031CA                     __ptext6:
  3760                           	callstack 0
  3761   0031CA                     ___lmul:
  3762                           	callstack 26
  3763   0031CA  0E00               	movlw	0
  3764   0031CC  6E09               	movwf	___lmul@product^0,c
  3765   0031CE  0E00               	movlw	0
  3766   0031D0  6E0A               	movwf	(___lmul@product+1)^0,c
  3767   0031D2  0E00               	movlw	0
  3768   0031D4  6E0B               	movwf	(___lmul@product+2)^0,c
  3769   0031D6  0E00               	movlw	0
  3770   0031D8  6E0C               	movwf	(___lmul@product+3)^0,c
  3771   0031DA                     l3975:
  3772   0031DA  A001               	btfss	___lmul@multiplier^0,0,c
  3773   0031DC  EFF2  F018         	goto	u4201
  3774   0031E0  EFF4  F018         	goto	u4200
  3775   0031E4                     u4201:
  3776   0031E4  EFFC  F018         	goto	l3979
  3777   0031E8                     u4200:
  3778   0031E8  5005               	movf	___lmul@multiplicand^0,w,c
  3779   0031EA  2609               	addwf	___lmul@product^0,f,c
  3780   0031EC  5006               	movf	(___lmul@multiplicand+1)^0,w,c
  3781   0031EE  220A               	addwfc	(___lmul@product+1)^0,f,c
  3782   0031F0  5007               	movf	(___lmul@multiplicand+2)^0,w,c
  3783   0031F2  220B               	addwfc	(___lmul@product+2)^0,f,c
  3784   0031F4  5008               	movf	(___lmul@multiplicand+3)^0,w,c
  3785   0031F6  220C               	addwfc	(___lmul@product+3)^0,f,c
  3786   0031F8                     l3979:
  3787   0031F8  90D8               	bcf	status,0,c
  3788   0031FA  3605               	rlcf	___lmul@multiplicand^0,f,c
  3789   0031FC  3606               	rlcf	(___lmul@multiplicand+1)^0,f,c
  3790   0031FE  3607               	rlcf	(___lmul@multiplicand+2)^0,f,c
  3791   003200  3608               	rlcf	(___lmul@multiplicand+3)^0,f,c
  3792   003202  90D8               	bcf	status,0,c
  3793   003204  3204               	rrcf	(___lmul@multiplier+3)^0,f,c
  3794   003206  3203               	rrcf	(___lmul@multiplier+2)^0,f,c
  3795   003208  3202               	rrcf	(___lmul@multiplier+1)^0,f,c
  3796   00320A  3201               	rrcf	___lmul@multiplier^0,f,c
  3797   00320C  5001               	movf	___lmul@multiplier^0,w,c
  3798   00320E  1002               	iorwf	(___lmul@multiplier+1)^0,w,c
  3799   003210  1003               	iorwf	(___lmul@multiplier+2)^0,w,c
  3800   003212  1004               	iorwf	(___lmul@multiplier+3)^0,w,c
  3801   003214  A4D8               	btfss	status,2,c
  3802   003216  EF0F  F019         	goto	u4211
  3803   00321A  EF11  F019         	goto	u4210
  3804   00321E                     u4211:
  3805   00321E  EFED  F018         	goto	l3975
  3806   003222                     u4210:
  3807   003222  C009  F001         	movff	___lmul@product,?___lmul
  3808   003226  C00A  F002         	movff	___lmul@product+1,?___lmul+1
  3809   00322A  C00B  F003         	movff	___lmul@product+2,?___lmul+2
  3810   00322E  C00C  F004         	movff	___lmul@product+3,?___lmul+3
  3811   003232  0012               	return		;funcret
  3812   003234                     __end_of___lmul:
  3813                           	callstack 0
  3814                           
  3815 ;; *************** function ___lldiv *****************
  3816 ;; Defined at:
  3817 ;;		line 7 in file "C:\Program Files\Microchip\xc8\v3.00\pic\sources\c99\common\__lldiv.c"
  3818 ;; Parameters:    Size  Location     Type
  3819 ;;  dividend        4   12[COMRAM] unsigned long 
  3820 ;;  divisor         4   16[COMRAM] unsigned long 
  3821 ;; Auto vars:     Size  Location     Type
  3822 ;;  quotient        4   20[COMRAM] unsigned long 
  3823 ;;  counter         1   24[COMRAM] unsigned char 
  3824 ;; Return value:  Size  Location     Type
  3825 ;;                  4   12[COMRAM] unsigned long 
  3826 ;; Registers used:
  3827 ;;		wreg, status,2, status,0
  3828 ;; Tracked objects:
  3829 ;;		On entry : 0/0
  3830 ;;		On exit  : 0/0
  3831 ;;		Unchanged: 0/0
  3832 ;; Data sizes:     COMRAM   BANK0   BANK1   BANK2   BANK3   BANK4   BANK5
  3833 ;;      Params:         8       0       0       0       0       0       0
  3834 ;;      Locals:         5       0       0       0       0       0       0
  3835 ;;      Temps:          0       0       0       0       0       0       0
  3836 ;;      Totals:        13       0       0       0       0       0       0
  3837 ;;Total ram usage:       13 bytes
  3838 ;; Hardware stack levels used: 1
  3839 ;; Hardware stack levels required when called: 2
  3840 ;; This function calls:
  3841 ;;		Nothing
  3842 ;; This function is called by:
  3843 ;;		_tone
  3844 ;; This function uses a non-reentrant model
  3845 ;;
  3846                           
  3847                           	psect	text7
  3848   003046                     __ptext7:
  3849                           	callstack 0
  3850   003046                     ___lldiv:
  3851                           	callstack 26
  3852   003046  0E00               	movlw	0
  3853   003048  6E15               	movwf	___lldiv@quotient^0,c
  3854   00304A  0E00               	movlw	0
  3855   00304C  6E16               	movwf	(___lldiv@quotient+1)^0,c
  3856   00304E  0E00               	movlw	0
  3857   003050  6E17               	movwf	(___lldiv@quotient+2)^0,c
  3858   003052  0E00               	movlw	0
  3859   003054  6E18               	movwf	(___lldiv@quotient+3)^0,c
  3860   003056  5011               	movf	___lldiv@divisor^0,w,c
  3861   003058  1012               	iorwf	(___lldiv@divisor+1)^0,w,c
  3862   00305A  1013               	iorwf	(___lldiv@divisor+2)^0,w,c
  3863   00305C  1014               	iorwf	(___lldiv@divisor+3)^0,w,c
  3864   00305E  B4D8               	btfsc	status,2,c
  3865   003060  EF34  F018         	goto	u4221
  3866   003064  EF36  F018         	goto	u4220
  3867   003068                     u4221:
  3868   003068  EF6C  F018         	goto	l344
  3869   00306C                     u4220:
  3870   00306C  0E01               	movlw	1
  3871   00306E  6E19               	movwf	___lldiv@counter^0,c
  3872   003070  EF40  F018         	goto	l3991
  3873   003074                     l3989:
  3874   003074  90D8               	bcf	status,0,c
  3875   003076  3611               	rlcf	___lldiv@divisor^0,f,c
  3876   003078  3612               	rlcf	(___lldiv@divisor+1)^0,f,c
  3877   00307A  3613               	rlcf	(___lldiv@divisor+2)^0,f,c
  3878   00307C  3614               	rlcf	(___lldiv@divisor+3)^0,f,c
  3879   00307E  2A19               	incf	___lldiv@counter^0,f,c
  3880   003080                     l3991:
  3881   003080  AE14               	btfss	(___lldiv@divisor+3)^0,7,c
  3882   003082  EF45  F018         	goto	u4231
  3883   003086  EF47  F018         	goto	u4230
  3884   00308A                     u4231:
  3885   00308A  EF3A  F018         	goto	l3989
  3886   00308E                     u4230:
  3887   00308E                     l3993:
  3888   00308E  90D8               	bcf	status,0,c
  3889   003090  3615               	rlcf	___lldiv@quotient^0,f,c
  3890   003092  3616               	rlcf	(___lldiv@quotient+1)^0,f,c
  3891   003094  3617               	rlcf	(___lldiv@quotient+2)^0,f,c
  3892   003096  3618               	rlcf	(___lldiv@quotient+3)^0,f,c
  3893   003098  5011               	movf	___lldiv@divisor^0,w,c
  3894   00309A  5C0D               	subwf	___lldiv@dividend^0,w,c
  3895   00309C  5012               	movf	(___lldiv@divisor+1)^0,w,c
  3896   00309E  580E               	subwfb	(___lldiv@dividend+1)^0,w,c
  3897   0030A0  5013               	movf	(___lldiv@divisor+2)^0,w,c
  3898   0030A2  580F               	subwfb	(___lldiv@dividend+2)^0,w,c
  3899   0030A4  5014               	movf	(___lldiv@divisor+3)^0,w,c
  3900   0030A6  5810               	subwfb	(___lldiv@dividend+3)^0,w,c
  3901   0030A8  A0D8               	btfss	status,0,c
  3902   0030AA  EF59  F018         	goto	u4241
  3903   0030AE  EF5B  F018         	goto	u4240
  3904   0030B2                     u4241:
  3905   0030B2  EF64  F018         	goto	l4001
  3906   0030B6                     u4240:
  3907   0030B6  5011               	movf	___lldiv@divisor^0,w,c
  3908   0030B8  5E0D               	subwf	___lldiv@dividend^0,f,c
  3909   0030BA  5012               	movf	(___lldiv@divisor+1)^0,w,c
  3910   0030BC  5A0E               	subwfb	(___lldiv@dividend+1)^0,f,c
  3911   0030BE  5013               	movf	(___lldiv@divisor+2)^0,w,c
  3912   0030C0  5A0F               	subwfb	(___lldiv@dividend+2)^0,f,c
  3913   0030C2  5014               	movf	(___lldiv@divisor+3)^0,w,c
  3914   0030C4  5A10               	subwfb	(___lldiv@dividend+3)^0,f,c
  3915   0030C6  8015               	bsf	___lldiv@quotient^0,0,c
  3916   0030C8                     l4001:
  3917   0030C8  90D8               	bcf	status,0,c
  3918   0030CA  3214               	rrcf	(___lldiv@divisor+3)^0,f,c
  3919   0030CC  3213               	rrcf	(___lldiv@divisor+2)^0,f,c
  3920   0030CE  3212               	rrcf	(___lldiv@divisor+1)^0,f,c
  3921   0030D0  3211               	rrcf	___lldiv@divisor^0,f,c
  3922   0030D2  2E19               	decfsz	___lldiv@counter^0,f,c
  3923   0030D4  EF47  F018         	goto	l3993
  3924   0030D8                     l344:
  3925   0030D8  C015  F00D         	movff	___lldiv@quotient,?___lldiv
  3926   0030DC  C016  F00E         	movff	___lldiv@quotient+1,?___lldiv+1
  3927   0030E0  C017  F00F         	movff	___lldiv@quotient+2,?___lldiv+2
  3928   0030E4  C018  F010         	movff	___lldiv@quotient+3,?___lldiv+3
  3929   0030E8  0012               	return		;funcret
  3930   0030EA                     __end_of___lldiv:
  3931                           	callstack 0
  3932                           
  3933 ;; *************** function _UpdateScreen *****************
  3934 ;; Defined at:
  3935 ;;		line 90 in file "main.c"
  3936 ;; Parameters:    Size  Location     Type
  3937 ;;  dist            2   63[BANK0 ] unsigned int 
  3938 ;; Auto vars:     Size  Location     Type
  3939 ;;  a               7   65[BANK0 ] unsigned char [7]
  3940 ;; Return value:  Size  Location     Type
  3941 ;;                  1    wreg      void 
  3942 ;; Registers used:
  3943 ;;		wreg, fsr1l, fsr1h, fsr2l, fsr2h, status,2, status,0, tblptrl, tblptrh, tblptru, prodl, prodh, cstack
  3944 ;; Tracked objects:
  3945 ;;		On entry : 0/0
  3946 ;;		On exit  : 0/0
  3947 ;;		Unchanged: 0/0
  3948 ;; Data sizes:     COMRAM   BANK0   BANK1   BANK2   BANK3   BANK4   BANK5
  3949 ;;      Params:         0       2       0       0       0       0       0
  3950 ;;      Locals:         0       7       0       0       0       0       0
  3951 ;;      Temps:          0       0       0       0       0       0       0
  3952 ;;      Totals:         0       9       0       0       0       0       0
  3953 ;;Total ram usage:        9 bytes
  3954 ;; Hardware stack levels used: 1
  3955 ;; Hardware stack levels required when called: 10
  3956 ;; This function calls:
  3957 ;;		_SSD1306_ClearScreen
  3958 ;;		_SSD1306_GotoStart
  3959 ;;		_SSD1306_String
  3960 ;;		_SendString
  3961 ;;		_sprintf
  3962 ;; This function is called by:
  3963 ;;		_main
  3964 ;; This function uses a non-reentrant model
  3965 ;;
  3966                           
  3967                           	psect	text8
  3968   003648                     __ptext8:
  3969                           	callstack 0
  3970   003648                     _UpdateScreen:
  3971                           	callstack 20
  3972   003648                     
  3973                           ;main.c: 92:     unsigned char a[7];;main.c: 93:     SSD1306_ClearScreen();
  3974   003648  ECAF  F018         	call	_SSD1306_ClearScreen	;wreg free
  3975                           
  3976                           ;main.c: 94:     SSD1306_GotoStart();
  3977   00364C  ECCF  F01A         	call	_SSD1306_GotoStart	;wreg free
  3978   003650                     
  3979                           ;main.c: 95:     sprintf(a, "%u\n", dist);
  3980   003650  0EA1               	movlw	low UpdateScreen@a
  3981   003652  0100               	movlb	0	; () banked
  3982   003654  6F8C               	movwf	sprintf@s& (0+255),b
  3983   003656  0EFB               	movlw	low STR_1
  3984   003658  6F8D               	movwf	sprintf@fmt& (0+255),b
  3985   00365A  0E7F               	movlw	high STR_1
  3986   00365C  6F8E               	movwf	(sprintf@fmt+1)& (0+255),b
  3987   00365E  C09F  F08F         	movff	UpdateScreen@dist,?_sprintf+3
  3988   003662  C0A0  F090         	movff	UpdateScreen@dist+1,?_sprintf+4
  3989   003666  ECB1  F01A         	call	_sprintf	;wreg free
  3990   00366A                     
  3991                           ;main.c: 96:     SendString(a);
  3992   00366A  0EA1               	movlw	low UpdateScreen@a
  3993   00366C  6E02               	movwf	SendString@str^0,c
  3994   00366E  EC55  F01B         	call	_SendString	;wreg free
  3995   003672                     
  3996                           ;main.c: 97:     SSD1306_String(a);
  3997   003672  0EA1               	movlw	low UpdateScreen@a
  3998   003674  6E0C               	movwf	SSD1306_String@data^0,c
  3999   003676  ECE1  F015         	call	_SSD1306_String	;wreg free
  4000   00367A  0012               	return		;funcret
  4001   00367C                     __end_of_UpdateScreen:
  4002                           	callstack 0
  4003                           
  4004 ;; *************** function _sprintf *****************
  4005 ;; Defined at:
  4006 ;;		line 9 in file "C:\Program Files\Microchip\xc8\v3.00\pic\sources\c99\common\nf_sprintf.c"
  4007 ;; Parameters:    Size  Location     Type
  4008 ;;  s               1   44[BANK0 ] PTR unsigned char 
  4009 ;;		 -> main@a(10), UpdateScreen@a(7), 
  4010 ;;  fmt             2   45[BANK0 ] PTR const unsigned char 
  4011 ;;		 -> STR_2(4), STR_1(4), 
  4012 ;; Auto vars:     Size  Location     Type
  4013 ;;  f              11   52[BANK0 ] struct _IO_FILE
  4014 ;;  ret             2    0        int 
  4015 ;;  ap              1   51[BANK0 ] PTR void [1]
  4016 ;;		 -> ?_sprintf(2), 
  4017 ;; Return value:  Size  Location     Type
  4018 ;;                  2   44[BANK0 ] int 
  4019 ;; Registers used:
  4020 ;;		wreg, fsr1l, fsr1h, fsr2l, fsr2h, status,2, status,0, tblptrl, tblptrh, tblptru, prodl, prodh, cstack
  4021 ;; Tracked objects:
  4022 ;;		On entry : 0/0
  4023 ;;		On exit  : 0/0
  4024 ;;		Unchanged: 0/0
  4025 ;; Data sizes:     COMRAM   BANK0   BANK1   BANK2   BANK3   BANK4   BANK5
  4026 ;;      Params:         0       7       0       0       0       0       0
  4027 ;;      Locals:         0      12       0       0       0       0       0
  4028 ;;      Temps:          0       0       0       0       0       0       0
  4029 ;;      Totals:         0      19       0       0       0       0       0
  4030 ;;Total ram usage:       19 bytes
  4031 ;; Hardware stack levels used: 1
  4032 ;; Hardware stack levels required when called: 9
  4033 ;; This function calls:
  4034 ;;		_vfprintf
  4035 ;; This function is called by:
  4036 ;;		_UpdateScreen
  4037 ;;		_main
  4038 ;; This function uses a non-reentrant model
  4039 ;;
  4040                           
  4041                           	psect	text9
  4042   003562                     __ptext9:
  4043                           	callstack 0
  4044   003562                     _sprintf:
  4045                           	callstack 21
  4046   003562  0E8F               	movlw	low (?_sprintf+3)
  4047   003564  0100               	movlb	0	; () banked
  4048   003566  6F93               	movwf	sprintf@ap& (0+255),b
  4049   003568  C08C  F094         	movff	sprintf@s,sprintf@f
  4050   00356C                     
  4051                           ; BSR set to: 0
  4052   00356C  0E00               	movlw	0
  4053   00356E  6F97               	movwf	(sprintf@f+3)& (0+255),b
  4054   003570  0E00               	movlw	0
  4055   003572  6F96               	movwf	(sprintf@f+2)& (0+255),b
  4056   003574                     
  4057                           ; BSR set to: 0
  4058   003574  0E00               	movlw	0
  4059   003576  6F9E               	movwf	(sprintf@f+10)& (0+255),b
  4060   003578  0E00               	movlw	0
  4061   00357A  6F9D               	movwf	(sprintf@f+9)& (0+255),b
  4062   00357C                     
  4063                           ; BSR set to: 0
  4064   00357C  0E94               	movlw	low sprintf@f
  4065   00357E  6E54               	movwf	vfprintf@fp^0,c
  4066   003580  C08D  F055         	movff	sprintf@fmt,vfprintf@fmt
  4067   003584  C08E  F056         	movff	sprintf@fmt+1,vfprintf@fmt+1
  4068   003588  0E93               	movlw	low sprintf@ap
  4069   00358A  6E57               	movwf	vfprintf@ap^0,c
  4070   00358C  EC70  F01A         	call	_vfprintf	;wreg free
  4071   003590  0100               	movlb	0	; () banked
  4072   003592  518C               	movf	sprintf@s& (0+255),w,b
  4073   003594  2596               	addwf	(sprintf@f+2)& (0+255),w,b
  4074   003596  6ED9               	movwf	fsr2l,c
  4075   003598  6ADA               	clrf	fsr2h,c
  4076   00359A  6ADF               	clrf	indf2,c
  4077   00359C                     
  4078                           ; BSR set to: 0
  4079   00359C  0012               	return		;funcret
  4080   00359E                     __end_of_sprintf:
  4081                           	callstack 0
  4082                           
  4083 ;; *************** function _vfprintf *****************
  4084 ;; Defined at:
  4085 ;;		line 1817 in file "C:\Program Files\Microchip\xc8\v3.00\pic\sources\c99\common\doprnt.c"
  4086 ;; Parameters:    Size  Location     Type
  4087 ;;  fp              1   83[COMRAM] PTR struct _IO_FILE
  4088 ;;		 -> sprintf@f(11), 
  4089 ;;  fmt             2   84[COMRAM] PTR const unsigned char 
  4090 ;;		 -> STR_2(4), STR_1(4), 
  4091 ;;  ap              1   86[COMRAM] PTR PTR void 
  4092 ;;		 -> sprintf@ap(1), 
  4093 ;; Auto vars:     Size  Location     Type
  4094 ;;  cfmt            2   87[COMRAM] PTR unsigned char 
  4095 ;;		 -> STR_2(4), STR_1(4), 
  4096 ;; Return value:  Size  Location     Type
  4097 ;;                  2   83[COMRAM] int 
  4098 ;; Registers used:
  4099 ;;		wreg, fsr1l, fsr1h, fsr2l, fsr2h, status,2, status,0, tblptrl, tblptrh, tblptru, prodl, prodh, cstack
  4100 ;; Tracked objects:
  4101 ;;		On entry : 0/0
  4102 ;;		On exit  : 0/0
  4103 ;;		Unchanged: 0/0
  4104 ;; Data sizes:     COMRAM   BANK0   BANK1   BANK2   BANK3   BANK4   BANK5
  4105 ;;      Params:         4       0       0       0       0       0       0
  4106 ;;      Locals:         2       0       0       0       0       0       0
  4107 ;;      Temps:          0       0       0       0       0       0       0
  4108 ;;      Totals:         6       0       0       0       0       0       0
  4109 ;;Total ram usage:        6 bytes
  4110 ;; Hardware stack levels used: 1
  4111 ;; Hardware stack levels required when called: 8
  4112 ;; This function calls:
  4113 ;;		_vfpfcnvrt
  4114 ;; This function is called by:
  4115 ;;		_sprintf
  4116 ;; This function uses a non-reentrant model
  4117 ;;
  4118                           
  4119                           	psect	text10
  4120   0034E0                     __ptext10:
  4121                           	callstack 0
  4122   0034E0                     _vfprintf:
  4123                           	callstack 21
  4124   0034E0                     
  4125                           ;C:\Program Files\Microchip\xc8\v3.00\pic\sources\c99\common\doprnt.c: 1817: int vfprint
      +                          f(FILE *fp, const char *fmt, va_list ap);C:\Program Files\Microchip\xc8\v3.00\pic\source
      +                          s\c99\common\doprnt.c: 1818: {;C:\Program Files\Microchip\xc8\v3.00\pic\sources\c99\comm
      +                          on\doprnt.c: 1820:     char *cfmt;;C:\Program Files\Microchip\xc8\v3.00\pic\sources\c99\
      +                          common\doprnt.c: 1822:     cfmt = (char *)fmt;
  4126   0034E0  C055  F058         	movff	vfprintf@fmt,vfprintf@cfmt
  4127   0034E4  C056  F059         	movff	vfprintf@fmt+1,vfprintf@cfmt+1
  4128                           
  4129                           ;C:\Program Files\Microchip\xc8\v3.00\pic\sources\c99\common\doprnt.c: 1826:     while (
      +                          *cfmt) {
  4130   0034E8  EF7E  F01A         	goto	l4053
  4131   0034EC                     l4051:
  4132                           
  4133                           ;C:\Program Files\Microchip\xc8\v3.00\pic\sources\c99\common\doprnt.c: 1830:    vfpfcnvr
      +                          t(fp, &cfmt, ap);
  4134   0034EC  C054  F048         	movff	vfprintf@fp,vfpfcnvrt@fp
  4135   0034F0  0E58               	movlw	low vfprintf@cfmt
  4136   0034F2  6E49               	movwf	vfpfcnvrt@fmt^0,c
  4137   0034F4  C057  F04A         	movff	vfprintf@ap,vfpfcnvrt@ap
  4138   0034F8  ECC2  F00C         	call	_vfpfcnvrt	;wreg free
  4139   0034FC                     l4053:
  4140                           
  4141                           ;C:\Program Files\Microchip\xc8\v3.00\pic\sources\c99\common\doprnt.c: 1826:     while (
      +                          *cfmt) {
  4142   0034FC  C058  FFF6         	movff	vfprintf@cfmt,tblptrl
  4143   003500  C059  FFF7         	movff	vfprintf@cfmt+1,tblptrh
  4144   003504                     	if	0	;tblptru may be non-zero
  4145   003504                     	endif
  4146   003504                     	if	0	;tblptru may be non-zero
  4147   003504                     	endif
  4148   003504  0008               	tblrd		*
  4149   003506  50F5               	movf	tablat,w,c
  4150   003508  0900               	iorlw	0
  4151   00350A  A4D8               	btfss	status,2,c
  4152   00350C  EF8A  F01A         	goto	u4311
  4153   003510  EF8C  F01A         	goto	u4310
  4154   003514                     u4311:
  4155   003514  EF76  F01A         	goto	l4051
  4156   003518                     u4310:
  4157   003518                     
  4158                           ;C:\Program Files\Microchip\xc8\v3.00\pic\sources\c99\common\doprnt.c: 1835:  return 0;
  4159   003518  0E00               	movlw	0
  4160   00351A  6E55               	movwf	(?_vfprintf+1)^0,c
  4161   00351C  0E00               	movlw	0
  4162   00351E  6E54               	movwf	?_vfprintf^0,c
  4163   003520  0012               	return		;funcret
  4164   003522                     __end_of_vfprintf:
  4165                           	callstack 0
  4166                           
  4167 ;; *************** function _vfpfcnvrt *****************
  4168 ;; Defined at:
  4169 ;;		line 1177 in file "C:\Program Files\Microchip\xc8\v3.00\pic\sources\c99\common\doprnt.c"
  4170 ;; Parameters:    Size  Location     Type
  4171 ;;  fp              1   71[COMRAM] PTR struct _IO_FILE
  4172 ;;		 -> sprintf@f(11), 
  4173 ;;  fmt             1   72[COMRAM] PTR PTR unsigned char 
  4174 ;;		 -> vfprintf@cfmt(2), 
  4175 ;;  ap              1   73[COMRAM] PTR PTR void 
  4176 ;;		 -> sprintf@ap(1), 
  4177 ;; Auto vars:     Size  Location     Type
  4178 ;;  convarg         4   76[COMRAM] struct .
  4179 ;;  cp              2   81[COMRAM] PTR unsigned char 
  4180 ;;		 -> STR_2(4), STR_1(4), 
  4181 ;;  c               1   80[COMRAM] unsigned char 
  4182 ;;  done            1    0        _Bool 
  4183 ;; Return value:  Size  Location     Type
  4184 ;;                  1    wreg      void 
  4185 ;; Registers used:
  4186 ;;		wreg, fsr1l, fsr1h, fsr2l, fsr2h, status,2, status,0, tblptrl, tblptrh, tblptru, prodl, prodh, cstack
  4187 ;; Tracked objects:
  4188 ;;		On entry : 0/0
  4189 ;;		On exit  : 0/0
  4190 ;;		Unchanged: 0/0
  4191 ;; Data sizes:     COMRAM   BANK0   BANK1   BANK2   BANK3   BANK4   BANK5
  4192 ;;      Params:         3       0       0       0       0       0       0
  4193 ;;      Locals:         7       0       0       0       0       0       0
  4194 ;;      Temps:          2       0       0       0       0       0       0
  4195 ;;      Totals:        12       0       0       0       0       0       0
  4196 ;;Total ram usage:       12 bytes
  4197 ;; Hardware stack levels used: 1
  4198 ;; Hardware stack levels required when called: 7
  4199 ;; This function calls:
  4200 ;;		___lwdiv
  4201 ;;		___lwmod
  4202 ;;		_efgtoa
  4203 ;;		_fputc
  4204 ;; This function is called by:
  4205 ;;		_vfprintf
  4206 ;; This function uses a non-reentrant model
  4207 ;;
  4208                           
  4209                           	psect	text11
  4210   001984                     __ptext11:
  4211                           	callstack 0
  4212   001984                     _vfpfcnvrt:
  4213                           	callstack 21
  4214   001984                     
  4215                           ;C:\Program Files\Microchip\xc8\v3.00\pic\sources\c99\common\doprnt.c: 1177: vfpfcnvrt(F
      +                          ILE *fp, char *fmt[], va_list ap);C:\Program Files\Microchip\xc8\v3.00\pic\sources\c99\c
      +                          ommon\doprnt.c: 1178: {;C:\Program Files\Microchip\xc8\v3.00\pic\sources\c99\common\dopr
      +                          nt.c: 1179:     char c, *cp;;C:\Program Files\Microchip\xc8\v3.00\pic\sources\c99\common
      +                          \doprnt.c: 1180:     _Bool done;;C:\Program Files\Microchip\xc8\v3.00\pic\sources\c99\co
      +                          mmon\doprnt.c: 1188:  } convarg;;C:\Program Files\Microchip\xc8\v3.00\pic\sources\c99\co
      +                          mmon\doprnt.c: 1201:     if ((*fmt)[0] == '%') {
  4216   001984  5049               	movf	vfpfcnvrt@fmt^0,w,c
  4217   001986  6ED9               	movwf	fsr2l,c
  4218   001988  6ADA               	clrf	fsr2h,c
  4219   00198A  CFDE FFF6          	movff	postinc2,tblptrl
  4220   00198E  CFDD FFF7          	movff	postdec2,tblptrh
  4221   001992                     	if	0	;tblptru may be non-zero
  4222   001992                     	endif
  4223   001992                     	if	0	;tblptru may be non-zero
  4224   001992                     	endif
  4225   001992  0008               	tblrd		*
  4226   001994  50F5               	movf	tablat,w,c
  4227   001996  0A25               	xorlw	37
  4228   001998  A4D8               	btfss	status,2,c
  4229   00199A  EFD1  F00C         	goto	u4131
  4230   00199E  EFD3  F00C         	goto	u4130
  4231   0019A2                     u4131:
  4232   0019A2  EF15  F00E         	goto	l3957
  4233   0019A6                     u4130:
  4234   0019A6                     
  4235                           ;C:\Program Files\Microchip\xc8\v3.00\pic\sources\c99\common\doprnt.c: 1202:         ++*
      +                          fmt;
  4236   0019A6  5049               	movf	vfpfcnvrt@fmt^0,w,c
  4237   0019A8  6ED9               	movwf	fsr2l,c
  4238   0019AA  6ADA               	clrf	fsr2h,c
  4239   0019AC  2ADE               	incf	postinc2,f,c
  4240   0019AE  0E00               	movlw	0
  4241   0019B0  22DD               	addwfc	postdec2,f,c
  4242   0019B2                     
  4243                           ;C:\Program Files\Microchip\xc8\v3.00\pic\sources\c99\common\doprnt.c: 1204:         fla
      +                          gs = width = 0;
  4244   0019B2  0E00               	movlw	0
  4245   0019B4  0100               	movlb	0	; () banked
  4246   0019B6  6FC8               	movwf	(_width+1)& (0+255),b
  4247   0019B8  0E00               	movlw	0
  4248   0019BA  6FC7               	movwf	_width& (0+255),b
  4249   0019BC  C0C7  F0CD         	movff	_width,_flags
  4250   0019C0                     
  4251                           ; BSR set to: 0
  4252                           ;C:\Program Files\Microchip\xc8\v3.00\pic\sources\c99\common\doprnt.c: 1205:         pre
      +                          c = -1;
  4253   0019C0  69C9               	setf	_prec& (0+255),b
  4254   0019C2  69CA               	setf	(_prec+1)& (0+255),b
  4255   0019C4                     
  4256                           ; BSR set to: 0
  4257                           ;C:\Program Files\Microchip\xc8\v3.00\pic\sources\c99\common\doprnt.c: 1439:   if (0
  4258   0019C4  5049               	movf	vfpfcnvrt@fmt^0,w,c
  4259   0019C6  6ED9               	movwf	fsr2l,c
  4260   0019C8  6ADA               	clrf	fsr2h,c
  4261   0019CA  CFDE F052          	movff	postinc2,vfpfcnvrt@cp
  4262   0019CE  CFDD F053          	movff	postdec2,vfpfcnvrt@cp+1
  4263   0019D2                     
  4264                           ; BSR set to: 0
  4265   0019D2  C052  FFF6         	movff	vfpfcnvrt@cp,tblptrl
  4266   0019D6  C053  FFF7         	movff	vfpfcnvrt@cp+1,tblptrh
  4267   0019DA                     	if	0	;tblptru may be non-zero
  4268   0019DA                     	endif
  4269   0019DA                     	if	0	;tblptru may be non-zero
  4270   0019DA                     	endif
  4271   0019DA  0008               	tblrd		*
  4272   0019DC  50F5               	movf	tablat,w,c
  4273   0019DE  0A75               	xorlw	117
  4274   0019E0  A4D8               	btfss	status,2,c
  4275   0019E2  EFF5  F00C         	goto	u4141
  4276   0019E6  EFF7  F00C         	goto	u4140
  4277   0019EA                     u4141:
  4278   0019EA  EF70  F00D         	goto	l3921
  4279   0019EE                     u4140:
  4280   0019EE                     
  4281                           ; BSR set to: 0
  4282                           ;C:\Program Files\Microchip\xc8\v3.00\pic\sources\c99\common\doprnt.c: 1452:     ) {;C:\
      +                          Program Files\Microchip\xc8\v3.00\pic\sources\c99\common\doprnt.c: 1495:    convarg.uint
      +                           = (vfpf_uint_t)(unsigned int)(*(unsigned int *)__va_arg(*(unsigned int **)ap, (unsigned
      +                           int)0));
  4283   0019EE  504A               	movf	vfpfcnvrt@ap^0,w,c
  4284   0019F0  6ED9               	movwf	fsr2l,c
  4285   0019F2  6ADA               	clrf	fsr2h,c
  4286   0019F4  0E02               	movlw	2
  4287   0019F6  26DF               	addwf	indf2,f,c
  4288   0019F8  5CDF               	subwf	indf2,w,c
  4289   0019FA  6ED9               	movwf	fsr2l,c
  4290   0019FC  6ADA               	clrf	fsr2h,c
  4291   0019FE  CFDE F04D          	movff	postinc2,vfpfcnvrt@convarg
  4292   001A02  CFDE F04E          	movff	postinc2,vfpfcnvrt@convarg+1
  4293   001A06                     
  4294                           ; BSR set to: 0
  4295                           ;C:\Program Files\Microchip\xc8\v3.00\pic\sources\c99\common\doprnt.c: 1497:    *fmt = c
      +                          p+1;
  4296   001A06  0E01               	movlw	1
  4297   001A08  2452               	addwf	vfpfcnvrt@cp^0,w,c
  4298   001A0A  6E4B               	movwf	??_vfpfcnvrt^0,c
  4299   001A0C  0E00               	movlw	0
  4300   001A0E  2053               	addwfc	(vfpfcnvrt@cp+1)^0,w,c
  4301   001A10  6E4C               	movwf	(??_vfpfcnvrt+1)^0,c
  4302   001A12  5049               	movf	vfpfcnvrt@fmt^0,w,c
  4303   001A14  6ED9               	movwf	fsr2l,c
  4304   001A16  6ADA               	clrf	fsr2h,c
  4305   001A18  C04B  FFDE         	movff	??_vfpfcnvrt,postinc2
  4306   001A1C  C04C  FFDD         	movff	??_vfpfcnvrt+1,postdec2
  4307                           
  4308                           ;C:\Program Files\Microchip\xc8\v3.00\pic\sources\c99\common\doprnt.c: 1498:    switch (
      +                          *cp) {
  4309   001A20  EF64  F00D         	goto	l3919
  4310   001A24                     l3901:
  4311                           
  4312                           ; BSR set to: 0
  4313                           ;C:\Program Files\Microchip\xc8\v3.00\pic\sources\c99\common\doprnt.c: 1525:      c = si
      +                          zeof(dbuf);
  4314   001A24  0E50               	movlw	80
  4315   001A26  6E51               	movwf	vfpfcnvrt@c^0,c
  4316   001A28                     l3903:
  4317                           
  4318                           ;C:\Program Files\Microchip\xc8\v3.00\pic\sources\c99\common\doprnt.c: 1527:       dbuf[
      +                          --c] = (convarg.uint % 10) + '0';
  4319   001A28  0651               	decf	vfpfcnvrt@c^0,f,c
  4320   001A2A  0E00               	movlw	low _dbuf
  4321   001A2C  2451               	addwf	vfpfcnvrt@c^0,w,c
  4322   001A2E  6ED9               	movwf	fsr2l,c
  4323   001A30  6ADA               	clrf	fsr2h,c
  4324   001A32  0E01               	movlw	high _dbuf
  4325   001A34  22DA               	addwfc	fsr2h,f,c
  4326   001A36  C04D  F001         	movff	vfpfcnvrt@convarg,___lwmod@dividend
  4327   001A3A  C04E  F002         	movff	vfpfcnvrt@convarg+1,___lwmod@dividend+1
  4328   001A3E  0E00               	movlw	0
  4329   001A40  6E04               	movwf	(___lwmod@divisor+1)^0,c
  4330   001A42  0E0A               	movlw	10
  4331   001A44  6E03               	movwf	___lwmod@divisor^0,c
  4332   001A46  EC80  F019         	call	___lwmod	;wreg free
  4333   001A4A  5001               	movf	?___lwmod^0,w,c
  4334   001A4C  0F30               	addlw	48
  4335   001A4E  6EDF               	movwf	indf2,c
  4336   001A50                     
  4337                           ;C:\Program Files\Microchip\xc8\v3.00\pic\sources\c99\common\doprnt.c: 1528:       conva
      +                          rg.uint /= 10;
  4338   001A50  C04D  F001         	movff	vfpfcnvrt@convarg,___lwdiv@dividend
  4339   001A54  C04E  F002         	movff	vfpfcnvrt@convarg+1,___lwdiv@dividend+1
  4340   001A58  0E00               	movlw	0
  4341   001A5A  6E04               	movwf	(___lwdiv@divisor+1)^0,c
  4342   001A5C  0E0A               	movlw	10
  4343   001A5E  6E03               	movwf	___lwdiv@divisor^0,c
  4344   001A60  EC75  F018         	call	___lwdiv	;wreg free
  4345   001A64  C001  F04D         	movff	?___lwdiv,vfpfcnvrt@convarg
  4346   001A68  C002  F04E         	movff	?___lwdiv+1,vfpfcnvrt@convarg+1
  4347   001A6C                     
  4348                           ;C:\Program Files\Microchip\xc8\v3.00\pic\sources\c99\common\doprnt.c: 1532:      } whil
      +                          e (convarg.uint != 0 && c != 0);
  4349   001A6C  504D               	movf	vfpfcnvrt@convarg^0,w,c
  4350   001A6E  104E               	iorwf	(vfpfcnvrt@convarg+1)^0,w,c
  4351   001A70  B4D8               	btfsc	status,2,c
  4352   001A72  EF3D  F00D         	goto	u4151
  4353   001A76  EF3F  F00D         	goto	u4150
  4354   001A7A                     u4151:
  4355   001A7A  EF59  F00D         	goto	l3915
  4356   001A7E                     u4150:
  4357   001A7E  5051               	movf	vfpfcnvrt@c^0,w,c
  4358   001A80  A4D8               	btfss	status,2,c
  4359   001A82  EF45  F00D         	goto	u4161
  4360   001A86  EF47  F00D         	goto	u4160
  4361   001A8A                     u4161:
  4362   001A8A  EF14  F00D         	goto	l3903
  4363   001A8E                     u4160:
  4364   001A8E  EF59  F00D         	goto	l3915
  4365   001A92                     l3911:
  4366                           
  4367                           ;C:\Program Files\Microchip\xc8\v3.00\pic\sources\c99\common\doprnt.c: 1534:       fputc
      +                          (dbuf[c++], fp);
  4368   001A92  0E00               	movlw	low _dbuf
  4369   001A94  2451               	addwf	vfpfcnvrt@c^0,w,c
  4370   001A96  6ED9               	movwf	fsr2l,c
  4371   001A98  6ADA               	clrf	fsr2h,c
  4372   001A9A  0E01               	movlw	high _dbuf
  4373   001A9C  22DA               	addwfc	fsr2h,f,c
  4374   001A9E  50DF               	movf	indf2,w,c
  4375   001AA0  6E4B               	movwf	??_vfpfcnvrt^0,c
  4376   001AA2  504B               	movf	??_vfpfcnvrt^0,w,c
  4377   001AA4  6E01               	movwf	fputc@c^0,c
  4378   001AA6  6A02               	clrf	(fputc@c+1)^0,c
  4379   001AA8  C048  F003         	movff	vfpfcnvrt@fp,fputc@fp
  4380   001AAC  EC79  F017         	call	_fputc	;wreg free
  4381   001AB0  2A51               	incf	vfpfcnvrt@c^0,f,c
  4382   001AB2                     l3915:
  4383                           
  4384                           ;C:\Program Files\Microchip\xc8\v3.00\pic\sources\c99\common\doprnt.c: 1533:      while 
      +                          (c != sizeof(dbuf)) {
  4385   001AB2  0E50               	movlw	80
  4386   001AB4  1851               	xorwf	vfpfcnvrt@c^0,w,c
  4387   001AB6  A4D8               	btfss	status,2,c
  4388   001AB8  EF60  F00D         	goto	u4171
  4389   001ABC  EF62  F00D         	goto	u4170
  4390   001AC0                     u4171:
  4391   001AC0  EF49  F00D         	goto	l3911
  4392   001AC4                     u4170:
  4393   001AC4  EF26  F00E         	goto	l1100
  4394   001AC8                     l3919:
  4395                           
  4396                           ; BSR set to: 0
  4397   001AC8  C052  FFF6         	movff	vfpfcnvrt@cp,tblptrl
  4398   001ACC  C053  FFF7         	movff	vfpfcnvrt@cp+1,tblptrh
  4399   001AD0                     	if	0	;tblptru may be non-zero
  4400   001AD0                     	endif
  4401   001AD0                     	if	0	;tblptru may be non-zero
  4402   001AD0                     	endif
  4403   001AD0  0008               	tblrd		*
  4404   001AD2  50F5               	movf	tablat,w,c
  4405                           
  4406                           ; Switch size 1, requested type "simple"
  4407                           ; Number of cases is 1, Range of values is 117 to 117
  4408                           ; switch strategies available:
  4409                           ; Name         Instructions Cycles
  4410                           ; simple_byte            4     3 (average)
  4411                           ;	Chosen strategy is simple_byte
  4412   001AD4  0A75               	xorlw	117	; case 117
  4413   001AD6  B4D8               	btfsc	status,2,c
  4414   001AD8  EF12  F00D         	goto	l3901
  4415   001ADC  EF70  F00D         	goto	l3921
  4416   001AE0                     l3921:
  4417                           
  4418                           ; BSR set to: 0
  4419                           ;C:\Program Files\Microchip\xc8\v3.00\pic\sources\c99\common\doprnt.c: 1689:   cp = *fmt
      +                          ;
  4420   001AE0  5049               	movf	vfpfcnvrt@fmt^0,w,c
  4421   001AE2  6ED9               	movwf	fsr2l,c
  4422   001AE4  6ADA               	clrf	fsr2h,c
  4423   001AE6  CFDE F052          	movff	postinc2,vfpfcnvrt@cp
  4424   001AEA  CFDD F053          	movff	postdec2,vfpfcnvrt@cp+1
  4425   001AEE                     
  4426                           ; BSR set to: 0
  4427                           ;C:\Program Files\Microchip\xc8\v3.00\pic\sources\c99\common\doprnt.c: 1690:   c = *cp;
  4428   001AEE  C052  FFF6         	movff	vfpfcnvrt@cp,tblptrl
  4429   001AF2  C053  FFF7         	movff	vfpfcnvrt@cp+1,tblptrh
  4430   001AF6                     	if	0	;tblptru may be non-zero
  4431   001AF6                     	endif
  4432   001AF6                     	if	0	;tblptru may be non-zero
  4433   001AF6                     	endif
  4434   001AF6  0008               	tblrd		*
  4435   001AF8  CFF5 F051          	movff	tablat,vfpfcnvrt@c
  4436                           
  4437                           ;C:\Program Files\Microchip\xc8\v3.00\pic\sources\c99\common\doprnt.c: 1691:   switch(c)
      +                           {
  4438   001AFC  EF8B  F00D         	goto	l3931
  4439   001B00                     l3925:
  4440                           
  4441                           ; BSR set to: 0
  4442                           ;C:\Program Files\Microchip\xc8\v3.00\pic\sources\c99\common\doprnt.c: 1695:     cp++;
  4443   001B00  4A52               	infsnz	vfpfcnvrt@cp^0,f,c
  4444   001B02  2A53               	incf	(vfpfcnvrt@cp+1)^0,f,c
  4445                           
  4446                           ;C:\Program Files\Microchip\xc8\v3.00\pic\sources\c99\common\doprnt.c: 1696:     break;
  4447   001B04  EF9A  F00D         	goto	l3933
  4448   001B08                     l3927:
  4449                           
  4450                           ; BSR set to: 0
  4451                           ;C:\Program Files\Microchip\xc8\v3.00\pic\sources\c99\common\doprnt.c: 1721:     c = 'l'
      +                          ;
  4452   001B08  0E6C               	movlw	108
  4453   001B0A  6E51               	movwf	vfpfcnvrt@c^0,c
  4454                           
  4455                           ;C:\Program Files\Microchip\xc8\v3.00\pic\sources\c99\common\doprnt.c: 1722:     break;
  4456   001B0C  EF9A  F00D         	goto	l3933
  4457   001B10                     l1107:
  4458                           
  4459                           ; BSR set to: 0
  4460                           ;C:\Program Files\Microchip\xc8\v3.00\pic\sources\c99\common\doprnt.c: 1724:     c = 0;
  4461   001B10  6A51               	clrf	vfpfcnvrt@c^0,c
  4462                           
  4463                           ;C:\Program Files\Microchip\xc8\v3.00\pic\sources\c99\common\doprnt.c: 1725:     break;
  4464   001B12  EF9A  F00D         	goto	l3933
  4465   001B16                     l3931:
  4466                           
  4467                           ; BSR set to: 0
  4468   001B16  5051               	movf	vfpfcnvrt@c^0,w,c
  4469                           
  4470                           ; Switch size 1, requested type "simple"
  4471                           ; Number of cases is 3, Range of values is 76 to 108
  4472                           ; switch strategies available:
  4473                           ; Name         Instructions Cycles
  4474                           ; simple_byte           10     6 (average)
  4475                           ;	Chosen strategy is simple_byte
  4476   001B18  0A4C               	xorlw	76	; case 76
  4477   001B1A  B4D8               	btfsc	status,2,c
  4478   001B1C  EF80  F00D         	goto	l3925
  4479   001B20  0A2A               	xorlw	42	; case 102
  4480   001B22  B4D8               	btfsc	status,2,c
  4481   001B24  EF84  F00D         	goto	l3927
  4482   001B28  0A0A               	xorlw	10	; case 108
  4483   001B2A  B4D8               	btfsc	status,2,c
  4484   001B2C  EF80  F00D         	goto	l3925
  4485   001B30  EF88  F00D         	goto	l1107
  4486   001B34                     l3933:
  4487                           
  4488                           ; BSR set to: 0
  4489   001B34  C052  FFF6         	movff	vfpfcnvrt@cp,tblptrl
  4490   001B38  C053  FFF7         	movff	vfpfcnvrt@cp+1,tblptrh
  4491   001B3C                     	if	0	;tblptru may be non-zero
  4492   001B3C                     	endif
  4493   001B3C                     	if	0	;tblptru may be non-zero
  4494   001B3C                     	endif
  4495   001B3C  0008               	tblrd		*
  4496   001B3E  50F5               	movf	tablat,w,c
  4497   001B40  0A66               	xorlw	102
  4498   001B42  A4D8               	btfss	status,2,c
  4499   001B44  EFA6  F00D         	goto	u4181
  4500   001B48  EFA8  F00D         	goto	u4180
  4501   001B4C                     u4181:
  4502   001B4C  EF0D  F00E         	goto	l3953
  4503   001B50                     u4180:
  4504   001B50  EFD2  F00D         	goto	l3941
  4505   001B54                     l3935:
  4506                           
  4507                           ; BSR set to: 0
  4508                           ;C:\Program Files\Microchip\xc8\v3.00\pic\sources\c99\common\doprnt.c: 1756:      convar
      +                          g.f = (long double)(*(double *)__va_arg(*(double **)ap, (double)0));
  4509   001B54  504A               	movf	vfpfcnvrt@ap^0,w,c
  4510   001B56  6ED9               	movwf	fsr2l,c
  4511   001B58  6ADA               	clrf	fsr2h,c
  4512   001B5A  CFDF F04B          	movff	indf2,??_vfpfcnvrt
  4513   001B5E  0E04               	movlw	4
  4514   001B60  26DF               	addwf	indf2,f,c
  4515   001B62  504B               	movf	??_vfpfcnvrt^0,w,c
  4516   001B64  6ED9               	movwf	fsr2l,c
  4517   001B66  6ADA               	clrf	fsr2h,c
  4518   001B68  CFDE F04D          	movff	postinc2,vfpfcnvrt@convarg
  4519   001B6C  CFDE F04E          	movff	postinc2,vfpfcnvrt@convarg+1
  4520   001B70  CFDE F04F          	movff	postinc2,vfpfcnvrt@convarg+2
  4521   001B74  CFDE F050          	movff	postinc2,vfpfcnvrt@convarg+3
  4522                           
  4523                           ;C:\Program Files\Microchip\xc8\v3.00\pic\sources\c99\common\doprnt.c: 1757:      break;
  4524   001B78  EFDD  F00D         	goto	l3943
  4525   001B7C                     l3937:
  4526                           
  4527                           ; BSR set to: 0
  4528                           ;C:\Program Files\Microchip\xc8\v3.00\pic\sources\c99\common\doprnt.c: 1759:      convar
      +                          g.f = (long double)(*(long double *)__va_arg(*(long double **)ap, (long double)0));
  4529   001B7C  504A               	movf	vfpfcnvrt@ap^0,w,c
  4530   001B7E  6ED9               	movwf	fsr2l,c
  4531   001B80  6ADA               	clrf	fsr2h,c
  4532   001B82  CFDF F04B          	movff	indf2,??_vfpfcnvrt
  4533   001B86  0E04               	movlw	4
  4534   001B88  26DF               	addwf	indf2,f,c
  4535   001B8A  504B               	movf	??_vfpfcnvrt^0,w,c
  4536   001B8C  6ED9               	movwf	fsr2l,c
  4537   001B8E  6ADA               	clrf	fsr2h,c
  4538   001B90  CFDE F04D          	movff	postinc2,vfpfcnvrt@convarg
  4539   001B94  CFDE F04E          	movff	postinc2,vfpfcnvrt@convarg+1
  4540   001B98  CFDE F04F          	movff	postinc2,vfpfcnvrt@convarg+2
  4541   001B9C  CFDE F050          	movff	postinc2,vfpfcnvrt@convarg+3
  4542                           
  4543                           ;C:\Program Files\Microchip\xc8\v3.00\pic\sources\c99\common\doprnt.c: 1760:      break;
  4544   001BA0  EFDD  F00D         	goto	l3943
  4545   001BA4                     l3941:
  4546                           
  4547                           ; BSR set to: 0
  4548   001BA4  5051               	movf	vfpfcnvrt@c^0,w,c
  4549                           
  4550                           ; Switch size 1, requested type "simple"
  4551                           ; Number of cases is 2, Range of values is 76 to 108
  4552                           ; switch strategies available:
  4553                           ; Name         Instructions Cycles
  4554                           ; simple_byte            7     4 (average)
  4555                           ;	Chosen strategy is simple_byte
  4556   001BA6  0A4C               	xorlw	76	; case 76
  4557   001BA8  B4D8               	btfsc	status,2,c
  4558   001BAA  EFBE  F00D         	goto	l3937
  4559   001BAE  0A20               	xorlw	32	; case 108
  4560   001BB0  B4D8               	btfsc	status,2,c
  4561   001BB2  EFAA  F00D         	goto	l3935
  4562   001BB6  EFDD  F00D         	goto	l3943
  4563   001BBA                     l3943:
  4564                           
  4565                           ; BSR set to: 0
  4566                           ;C:\Program Files\Microchip\xc8\v3.00\pic\sources\c99\common\doprnt.c: 1762:    *fmt = c
      +                          p+1;
  4567   001BBA  0E01               	movlw	1
  4568   001BBC  2452               	addwf	vfpfcnvrt@cp^0,w,c
  4569   001BBE  6E4B               	movwf	??_vfpfcnvrt^0,c
  4570   001BC0  0E00               	movlw	0
  4571   001BC2  2053               	addwfc	(vfpfcnvrt@cp+1)^0,w,c
  4572   001BC4  6E4C               	movwf	(??_vfpfcnvrt+1)^0,c
  4573   001BC6  5049               	movf	vfpfcnvrt@fmt^0,w,c
  4574   001BC8  6ED9               	movwf	fsr2l,c
  4575   001BCA  6ADA               	clrf	fsr2h,c
  4576   001BCC  C04B  FFDE         	movff	??_vfpfcnvrt,postinc2
  4577   001BD0  C04C  FFDD         	movff	??_vfpfcnvrt+1,postdec2
  4578                           
  4579                           ;C:\Program Files\Microchip\xc8\v3.00\pic\sources\c99\common\doprnt.c: 1763:    switch (
      +                          *cp) {
  4580   001BD4  EF01  F00E         	goto	l3951
  4581   001BD8                     l3945:
  4582                           
  4583                           ; BSR set to: 0
  4584                           ;C:\Program Files\Microchip\xc8\v3.00\pic\sources\c99\common\doprnt.c: 1790:      return
      +                           (void) efgtoa(fp, convarg.f, *cp);;	Return value of _vfpfcnvrt is never used
  4585   001BD8  C048  F040         	movff	vfpfcnvrt@fp,efgtoa@fp
  4586   001BDC  C04D  F041         	movff	vfpfcnvrt@convarg,efgtoa@f
  4587   001BE0  C04E  F042         	movff	vfpfcnvrt@convarg+1,efgtoa@f+1
  4588   001BE4  C04F  F043         	movff	vfpfcnvrt@convarg+2,efgtoa@f+2
  4589   001BE8  C050  F044         	movff	vfpfcnvrt@convarg+3,efgtoa@f+3
  4590   001BEC  C052  FFF6         	movff	vfpfcnvrt@cp,tblptrl
  4591   001BF0  C053  FFF7         	movff	vfpfcnvrt@cp+1,tblptrh
  4592   001BF4                     	if	0	;tblptru may be non-zero
  4593   001BF4                     	endif
  4594   001BF4                     	if	0	;tblptru may be non-zero
  4595   001BF4                     	endif
  4596   001BF4  0008               	tblrd		*
  4597   001BF6  CFF5 F045          	movff	tablat,efgtoa@c
  4598   001BFA  EC09  F000         	call	_efgtoa	;wreg free
  4599   001BFE  EF26  F00E         	goto	l1100
  4600   001C02                     l3951:
  4601                           
  4602                           ; BSR set to: 0
  4603   001C02  C052  FFF6         	movff	vfpfcnvrt@cp,tblptrl
  4604   001C06  C053  FFF7         	movff	vfpfcnvrt@cp+1,tblptrh
  4605   001C0A                     	if	0	;tblptru may be non-zero
  4606   001C0A                     	endif
  4607   001C0A                     	if	0	;tblptru may be non-zero
  4608   001C0A                     	endif
  4609   001C0A  0008               	tblrd		*
  4610   001C0C  50F5               	movf	tablat,w,c
  4611                           
  4612                           ; Switch size 1, requested type "simple"
  4613                           ; Number of cases is 1, Range of values is 102 to 102
  4614                           ; switch strategies available:
  4615                           ; Name         Instructions Cycles
  4616                           ; simple_byte            4     3 (average)
  4617                           ;	Chosen strategy is simple_byte
  4618   001C0E  0A66               	xorlw	102	; case 102
  4619   001C10  B4D8               	btfsc	status,2,c
  4620   001C12  EFEC  F00D         	goto	l3945
  4621   001C16  EF0D  F00E         	goto	l3953
  4622   001C1A                     l3953:
  4623                           
  4624                           ;C:\Program Files\Microchip\xc8\v3.00\pic\sources\c99\common\doprnt.c: 1806:         ++*
      +                          fmt;
  4625   001C1A  5049               	movf	vfpfcnvrt@fmt^0,w,c
  4626   001C1C  6ED9               	movwf	fsr2l,c
  4627   001C1E  6ADA               	clrf	fsr2h,c
  4628   001C20  2ADE               	incf	postinc2,f,c
  4629   001C22  0E00               	movlw	0
  4630   001C24  22DD               	addwfc	postdec2,f,c
  4631   001C26  EF26  F00E         	goto	l1100
  4632   001C2A                     l3957:
  4633                           
  4634                           ;C:\Program Files\Microchip\xc8\v3.00\pic\sources\c99\common\doprnt.c: 1811:     fputc((
      +                          int)(*fmt)[0], fp);
  4635   001C2A  5049               	movf	vfpfcnvrt@fmt^0,w,c
  4636   001C2C  6ED9               	movwf	fsr2l,c
  4637   001C2E  6ADA               	clrf	fsr2h,c
  4638   001C30  CFDE FFF6          	movff	postinc2,tblptrl
  4639   001C34  CFDD FFF7          	movff	postdec2,tblptrh
  4640   001C38                     	if	0	;tblptru may be non-zero
  4641   001C38                     	endif
  4642   001C38                     	if	0	;tblptru may be non-zero
  4643   001C38                     	endif
  4644   001C38  0008               	tblrd		*
  4645   001C3A  50F5               	movf	tablat,w,c
  4646   001C3C  6E01               	movwf	fputc@c^0,c
  4647   001C3E  6A02               	clrf	(fputc@c+1)^0,c
  4648   001C40  C048  F003         	movff	vfpfcnvrt@fp,fputc@fp
  4649   001C44  EC79  F017         	call	_fputc	;wreg free
  4650   001C48  EF0D  F00E         	goto	l3953
  4651   001C4C                     l1100:
  4652   001C4C  0012               	return		;funcret
  4653   001C4E                     __end_of_vfpfcnvrt:
  4654                           	callstack 0
  4655                           
  4656 ;; *************** function _efgtoa *****************
  4657 ;; Defined at:
  4658 ;;		line 587 in file "C:\Program Files\Microchip\xc8\v3.00\pic\sources\c99\common\doprnt.c"
  4659 ;; Parameters:    Size  Location     Type
  4660 ;;  fp              1   63[COMRAM] PTR struct _IO_FILE
  4661 ;;		 -> sprintf@f(11), 
  4662 ;;  f               4   64[COMRAM] PTR struct _IO_FILE
  4663 ;;  c               1   68[COMRAM] unsigned char 
  4664 ;; Auto vars:     Size  Location     Type
  4665 ;;  u               4   40[BANK0 ] struct flui
  4666 ;;  g               4   36[BANK0 ] struct flui
  4667 ;;  l               4   29[BANK0 ] struct flui
  4668 ;;  h               4   25[BANK0 ] struct flui
  4669 ;;  ou              4   19[BANK0 ] struct flui
  4670 ;;  n               2   34[BANK0 ] int 
  4671 ;;  i               2   23[BANK0 ] int 
  4672 ;;  w               2   17[BANK0 ] int 
  4673 ;;  e               2   15[BANK0 ] int 
  4674 ;;  m               2   13[BANK0 ] int 
  4675 ;;  d               2   11[BANK0 ] int 
  4676 ;;  t               2    4[BANK0 ] int 
  4677 ;;  p               2    2[BANK0 ] int 
  4678 ;;  ne              2    0[BANK0 ] int 
  4679 ;;  sign            1   33[BANK0 ] unsigned char 
  4680 ;;  nmode           1   10[BANK0 ] unsigned char 
  4681 ;;  mode            1    9[BANK0 ] unsigned char 
  4682 ;;  pp              1    8[BANK0 ] unsigned char 
  4683 ;;  esign           1    0        unsigned char 
  4684 ;; Return value:  Size  Location     Type
  4685 ;;                  1    wreg      void 
  4686 ;; Registers used:
  4687 ;;		wreg, fsr1l, fsr1h, fsr2l, fsr2h, status,2, status,0, tblptrl, tblptrh, tblptru, prodl, prodh, cstack
  4688 ;; Tracked objects:
  4689 ;;		On entry : 0/0
  4690 ;;		On exit  : 0/0
  4691 ;;		Unchanged: 0/0
  4692 ;; Data sizes:     COMRAM   BANK0   BANK1   BANK2   BANK3   BANK4   BANK5
  4693 ;;      Params:         6       0       0       0       0       0       0
  4694 ;;      Locals:         0      44       0       0       0       0       0
  4695 ;;      Temps:          2       0       0       0       0       0       0
  4696 ;;      Totals:         8      44       0       0       0       0       0
  4697 ;;Total ram usage:       52 bytes
  4698 ;; Hardware stack levels used: 1
  4699 ;; Hardware stack levels required when called: 6
  4700 ;; This function calls:
  4701 ;;		___fladd
  4702 ;;		___fldiv
  4703 ;;		___fleq
  4704 ;;		___flge
  4705 ;;		___flmul
  4706 ;;		___flneg
  4707 ;;		___flsub
  4708 ;;		___fltol
  4709 ;;		___fpclassifyf
  4710 ;;		_floorf
  4711 ;;		_labs
  4712 ;;		_memcpy
  4713 ;;		_pad
  4714 ;;		_strcpy
  4715 ;; This function is called by:
  4716 ;;		_vfpfcnvrt
  4717 ;; This function uses a non-reentrant model
  4718 ;;
  4719                           
  4720                           	psect	text12
  4721   000012                     __ptext12:
  4722                           	callstack 0
  4723   000012                     _efgtoa:
  4724                           	callstack 21
  4725   000012                     
  4726                           ;C:\Program Files\Microchip\xc8\v3.00\pic\sources\c99\common\doprnt.c: 587: static void 
      +                          efgtoa(FILE *fp, long double f, char c);C:\Program Files\Microchip\xc8\v3.00\pic\sources
      +                          \c99\common\doprnt.c: 588: {;C:\Program Files\Microchip\xc8\v3.00\pic\sources\c99\common
      +                          \doprnt.c: 589:     char mode, nmode, pp, sign, esign;;C:\Program Files\Microchip\xc8\v3
      +                          .00\pic\sources\c99\common\doprnt.c: 590:     int d, e, i, m, n, ne, p, t, w;;C:\Program
      +                           Files\Microchip\xc8\v3.00\pic\sources\c99\common\doprnt.c: 591:     long double h, l;
  4727   000012  0100               	movlb	0	; () banked
  4728   000014  6B81               	clrf	efgtoa@sign& (0+255),b
  4729                           
  4730                           ;C:\Program Files\Microchip\xc8\v3.00\pic\sources\c99\common\doprnt.c: 596:     g.f = f;
  4731   000016  C041  F084         	movff	efgtoa@f,efgtoa@g
  4732   00001A  C042  F085         	movff	efgtoa@f+1,efgtoa@g+1
  4733   00001E  C043  F086         	movff	efgtoa@f+2,efgtoa@g+2
  4734   000022  C044  F087         	movff	efgtoa@f+3,efgtoa@g+3
  4735   000026                     
  4736                           ; BSR set to: 0
  4737                           ;C:\Program Files\Microchip\xc8\v3.00\pic\sources\c99\common\doprnt.c: 597:     if (g.f 
      +                          < 0.0) {
  4738   000026  BF87               	btfsc	(efgtoa@g+3)& (0+255),7,b
  4739   000028  EF1A  F000         	goto	u3730
  4740   00002C  EF18  F000         	goto	u3731
  4741   000030                     u3731:
  4742   000030  EF2E  F000         	goto	l3643
  4743   000034                     u3730:
  4744   000034                     
  4745                           ; BSR set to: 0
  4746                           ;C:\Program Files\Microchip\xc8\v3.00\pic\sources\c99\common\doprnt.c: 598:         sign
      +                           = 1;
  4747   000034  0E01               	movlw	1
  4748   000036  6F81               	movwf	efgtoa@sign& (0+255),b
  4749   000038                     
  4750                           ; BSR set to: 0
  4751                           ;C:\Program Files\Microchip\xc8\v3.00\pic\sources\c99\common\doprnt.c: 599:         g.f 
      +                          = -g.f;
  4752   000038  C084  F001         	movff	efgtoa@g,___flneg@f1
  4753   00003C  C085  F002         	movff	efgtoa@g+1,___flneg@f1+1
  4754   000040  C086  F003         	movff	efgtoa@g+2,___flneg@f1+2
  4755   000044  C087  F004         	movff	efgtoa@g+3,___flneg@f1+3
  4756   000048  EC08  F01B         	call	___flneg	;wreg free
  4757   00004C  C001  F084         	movff	?___flneg,efgtoa@g
  4758   000050  C002  F085         	movff	?___flneg+1,efgtoa@g+1
  4759   000054  C003  F086         	movff	?___flneg+2,efgtoa@g+2
  4760   000058  C004  F087         	movff	?___flneg+3,efgtoa@g+3
  4761   00005C                     l3643:
  4762                           
  4763                           ;C:\Program Files\Microchip\xc8\v3.00\pic\sources\c99\common\doprnt.c: 603:     n = 0;
  4764   00005C  0E00               	movlw	0
  4765   00005E  0100               	movlb	0	; () banked
  4766   000060  6F83               	movwf	(efgtoa@n+1)& (0+255),b
  4767   000062  0E00               	movlw	0
  4768   000064  6F82               	movwf	efgtoa@n& (0+255),b
  4769   000066                     
  4770                           ; BSR set to: 0
  4771                           ;C:\Program Files\Microchip\xc8\v3.00\pic\sources\c99\common\doprnt.c: 604:     w = widt
      +                          h;
  4772   000066  C0C7  F071         	movff	_width,efgtoa@w
  4773   00006A  C0C8  F072         	movff	_width+1,efgtoa@w+1
  4774   00006E                     
  4775                           ; BSR set to: 0
  4776                           ;C:\Program Files\Microchip\xc8\v3.00\pic\sources\c99\common\doprnt.c: 605:     if (sign
  4777   00006E  5181               	movf	efgtoa@sign& (0+255),w,b
  4778   000070  B4D8               	btfsc	status,2,c
  4779   000072  EF3D  F000         	goto	u3741
  4780   000076  EF3F  F000         	goto	u3740
  4781   00007A                     u3741:
  4782   00007A  EF53  F000         	goto	l3657
  4783   00007E                     u3740:
  4784   00007E                     
  4785                           ; BSR set to: 0
  4786                           ;C:\Program Files\Microchip\xc8\v3.00\pic\sources\c99\common\doprnt.c: 609:    ) {;C:\Pr
      +                          ogram Files\Microchip\xc8\v3.00\pic\sources\c99\common\doprnt.c: 610:   sign = sign ? '-
      +                          ' : '+';
  4787   00007E  5181               	movf	efgtoa@sign& (0+255),w,b
  4788   000080  A4D8               	btfss	status,2,c
  4789   000082  EF45  F000         	goto	u3751
  4790   000086  EF47  F000         	goto	u3750
  4791   00008A                     u3751:
  4792   00008A  EF4D  F000         	goto	l3653
  4793   00008E                     u3750:
  4794   00008E                     
  4795                           ; BSR set to: 0
  4796   00008E  0E00               	movlw	0
  4797   000090  6F67               	movwf	(_efgtoa$1381+1)& (0+255),b
  4798   000092  0E2B               	movlw	43
  4799   000094  6F66               	movwf	_efgtoa$1381& (0+255),b
  4800   000096  EF51  F000         	goto	l3655
  4801   00009A                     l3653:
  4802                           
  4803                           ; BSR set to: 0
  4804   00009A  0E00               	movlw	0
  4805   00009C  6F67               	movwf	(_efgtoa$1381+1)& (0+255),b
  4806   00009E  0E2D               	movlw	45
  4807   0000A0  6F66               	movwf	_efgtoa$1381& (0+255),b
  4808   0000A2                     l3655:
  4809                           
  4810                           ; BSR set to: 0
  4811   0000A2  C066  F081         	movff	_efgtoa$1381,efgtoa@sign
  4812   0000A6                     l3657:
  4813                           
  4814                           ; BSR set to: 0
  4815                           ;C:\Program Files\Microchip\xc8\v3.00\pic\sources\c99\common\doprnt.c: 619:     if (( __
      +                          fpclassifyf(g.f) == 1 )) {
  4816   0000A6  C084  F001         	movff	efgtoa@g,___fpclassifyf@x
  4817   0000AA  C085  F002         	movff	efgtoa@g+1,___fpclassifyf@x+1
  4818   0000AE  C086  F003         	movff	efgtoa@g+2,___fpclassifyf@x+2
  4819   0000B2  C087  F004         	movff	efgtoa@g+3,___fpclassifyf@x+3
  4820   0000B6  ECE5  F014         	call	___fpclassifyf	;wreg free
  4821   0000BA  0401               	decf	?___fpclassifyf^0,w,c
  4822   0000BC  1002               	iorwf	(?___fpclassifyf+1)^0,w,c
  4823   0000BE  A4D8               	btfss	status,2,c
  4824   0000C0  EF64  F000         	goto	u3761
  4825   0000C4  EF66  F000         	goto	u3760
  4826   0000C8                     u3761:
  4827   0000C8  EF97  F000         	goto	l3675
  4828   0000CC                     u3760:
  4829   0000CC                     
  4830                           ;C:\Program Files\Microchip\xc8\v3.00\pic\sources\c99\common\doprnt.c: 620:   if (sign) 
      +                          {
  4831   0000CC  0100               	movlb	0	; () banked
  4832   0000CE  5181               	movf	efgtoa@sign& (0+255),w,b
  4833   0000D0  B4D8               	btfsc	status,2,c
  4834   0000D2  EF6D  F000         	goto	u3771
  4835   0000D6  EF6F  F000         	goto	u3770
  4836   0000DA                     u3771:
  4837   0000DA  EF78  F000         	goto	l3667
  4838   0000DE                     u3770:
  4839   0000DE                     
  4840                           ; BSR set to: 0
  4841                           ;C:\Program Files\Microchip\xc8\v3.00\pic\sources\c99\common\doprnt.c: 621:    dbuf[0] =
      +                           sign;
  4842   0000DE  C081  F100         	movff	efgtoa@sign,_dbuf
  4843   0000E2                     
  4844                           ; BSR set to: 0
  4845                           ;C:\Program Files\Microchip\xc8\v3.00\pic\sources\c99\common\doprnt.c: 622:    w--;
  4846   0000E2  0771               	decf	efgtoa@w& (0+255),f,b
  4847   0000E4  A0D8               	btfss	status,0,c
  4848   0000E6  0772               	decf	(efgtoa@w+1)& (0+255),f,b
  4849   0000E8                     
  4850                           ; BSR set to: 0
  4851                           ;C:\Program Files\Microchip\xc8\v3.00\pic\sources\c99\common\doprnt.c: 623:    n = 1;
  4852   0000E8  0E00               	movlw	0
  4853   0000EA  6F83               	movwf	(efgtoa@n+1)& (0+255),b
  4854   0000EC  0E01               	movlw	1
  4855   0000EE  6F82               	movwf	efgtoa@n& (0+255),b
  4856   0000F0                     l3667:
  4857                           
  4858                           ; BSR set to: 0
  4859                           ;C:\Program Files\Microchip\xc8\v3.00\pic\sources\c99\common\doprnt.c: 631:   {;C:\Progr
      +                          am Files\Microchip\xc8\v3.00\pic\sources\c99\common\doprnt.c: 632:             strcpy(&d
      +                          buf[n], "inf");
  4860   0000F0  0E00               	movlw	low _dbuf
  4861   0000F2  2582               	addwf	efgtoa@n& (0+255),w,b
  4862   0000F4  6E01               	movwf	strcpy@dest^0,c
  4863   0000F6  0E01               	movlw	high _dbuf
  4864   0000F8  2183               	addwfc	(efgtoa@n+1)& (0+255),w,b
  4865   0000FA  6E02               	movwf	(strcpy@dest+1)^0,c
  4866   0000FC  0EEF               	movlw	low STR_3
  4867   0000FE  6E03               	movwf	strcpy@src^0,c
  4868   000100  0E7F               	movlw	high STR_3
  4869   000102  6E04               	movwf	(strcpy@src+1)^0,c
  4870   000104  ECEC  F01A         	call	_strcpy	;wreg free
  4871   000108                     l3669:
  4872                           
  4873                           ;C:\Program Files\Microchip\xc8\v3.00\pic\sources\c99\common\doprnt.c: 633:         };C:
      +                          \Program Files\Microchip\xc8\v3.00\pic\sources\c99\common\doprnt.c: 634:         w -= ((
      +                          sizeof("inf")/sizeof("inf"[0]))-1);
  4874   000108  0100               	movlb	0	; () banked
  4875   00010A  0EFD               	movlw	253
  4876   00010C  2771               	addwf	efgtoa@w& (0+255),f,b
  4877   00010E  0EFF               	movlw	255
  4878   000110  2372               	addwfc	(efgtoa@w+1)& (0+255),f,b
  4879   000112                     
  4880                           ; BSR set to: 0
  4881                           ;C:\Program Files\Microchip\xc8\v3.00\pic\sources\c99\common\doprnt.c: 635:         retu
      +                          rn (void) pad(fp, &dbuf[0], w);
  4882   000112  C040  F00F         	movff	efgtoa@fp,pad@fp
  4883   000116  0E00               	movlw	low _dbuf
  4884   000118  6E10               	movwf	pad@buf^0,c
  4885   00011A  0E01               	movlw	high _dbuf
  4886   00011C  6E11               	movwf	(pad@buf+1)^0,c
  4887   00011E  C071  F012         	movff	efgtoa@w,pad@p
  4888   000122  C072  F013         	movff	efgtoa@w+1,pad@p+1
  4889   000126  EC1A  F019         	call	_pad	;wreg free
  4890   00012A  EFFE  F004         	goto	l1043
  4891   00012E                     l3675:
  4892                           
  4893                           ;C:\Program Files\Microchip\xc8\v3.00\pic\sources\c99\common\doprnt.c: 637:     if (( __
      +                          fpclassifyf(g.f) == 0 )) {
  4894   00012E  C084  F001         	movff	efgtoa@g,___fpclassifyf@x
  4895   000132  C085  F002         	movff	efgtoa@g+1,___fpclassifyf@x+1
  4896   000136  C086  F003         	movff	efgtoa@g+2,___fpclassifyf@x+2
  4897   00013A  C087  F004         	movff	efgtoa@g+3,___fpclassifyf@x+3
  4898   00013E  ECE5  F014         	call	___fpclassifyf	;wreg free
  4899   000142  5001               	movf	?___fpclassifyf^0,w,c
  4900   000144  1002               	iorwf	(?___fpclassifyf+1)^0,w,c
  4901   000146  A4D8               	btfss	status,2,c
  4902   000148  EFA8  F000         	goto	u3781
  4903   00014C  EFAA  F000         	goto	u3780
  4904   000150                     u3781:
  4905   000150  EFCA  F000         	goto	l3693
  4906   000154                     u3780:
  4907   000154                     
  4908                           ;C:\Program Files\Microchip\xc8\v3.00\pic\sources\c99\common\doprnt.c: 638:   if (sign) 
      +                          {
  4909   000154  0100               	movlb	0	; () banked
  4910   000156  5181               	movf	efgtoa@sign& (0+255),w,b
  4911   000158  B4D8               	btfsc	status,2,c
  4912   00015A  EFB1  F000         	goto	u3791
  4913   00015E  EFB3  F000         	goto	u3790
  4914   000162                     u3791:
  4915   000162  EFBC  F000         	goto	l3685
  4916   000166                     u3790:
  4917   000166                     
  4918                           ; BSR set to: 0
  4919                           ;C:\Program Files\Microchip\xc8\v3.00\pic\sources\c99\common\doprnt.c: 639:    dbuf[0] =
      +                           sign;
  4920   000166  C081  F100         	movff	efgtoa@sign,_dbuf
  4921   00016A                     
  4922                           ; BSR set to: 0
  4923                           ;C:\Program Files\Microchip\xc8\v3.00\pic\sources\c99\common\doprnt.c: 640:    w--;
  4924   00016A  0771               	decf	efgtoa@w& (0+255),f,b
  4925   00016C  A0D8               	btfss	status,0,c
  4926   00016E  0772               	decf	(efgtoa@w+1)& (0+255),f,b
  4927   000170                     
  4928                           ; BSR set to: 0
  4929                           ;C:\Program Files\Microchip\xc8\v3.00\pic\sources\c99\common\doprnt.c: 641:    n = 1;
  4930   000170  0E00               	movlw	0
  4931   000172  6F83               	movwf	(efgtoa@n+1)& (0+255),b
  4932   000174  0E01               	movlw	1
  4933   000176  6F82               	movwf	efgtoa@n& (0+255),b
  4934   000178                     l3685:
  4935                           
  4936                           ; BSR set to: 0
  4937                           ;C:\Program Files\Microchip\xc8\v3.00\pic\sources\c99\common\doprnt.c: 649:   {;C:\Progr
      +                          am Files\Microchip\xc8\v3.00\pic\sources\c99\common\doprnt.c: 650:             strcpy(&d
      +                          buf[n], "nan");
  4938   000178  0E00               	movlw	low _dbuf
  4939   00017A  2582               	addwf	efgtoa@n& (0+255),w,b
  4940   00017C  6E01               	movwf	strcpy@dest^0,c
  4941   00017E  0E01               	movlw	high _dbuf
  4942   000180  2183               	addwfc	(efgtoa@n+1)& (0+255),w,b
  4943   000182  6E02               	movwf	(strcpy@dest+1)^0,c
  4944   000184  0EF3               	movlw	low STR_6
  4945   000186  6E03               	movwf	strcpy@src^0,c
  4946   000188  0E7F               	movlw	high STR_6
  4947   00018A  6E04               	movwf	(strcpy@src+1)^0,c
  4948   00018C  ECEC  F01A         	call	_strcpy	;wreg free
  4949   000190  EF84  F000         	goto	l3669
  4950   000194                     l3693:
  4951                           
  4952                           ;C:\Program Files\Microchip\xc8\v3.00\pic\sources\c99\common\doprnt.c: 657:     u.f = 1.
      +                          0;
  4953   000194  0E00               	movlw	0
  4954   000196  0100               	movlb	0	; () banked
  4955   000198  6F88               	movwf	efgtoa@u& (0+255),b
  4956   00019A  0E00               	movlw	0
  4957   00019C  6F89               	movwf	(efgtoa@u+1)& (0+255),b
  4958   00019E  0E80               	movlw	128
  4959   0001A0  6F8A               	movwf	(efgtoa@u+2)& (0+255),b
  4960   0001A2  0E3F               	movlw	63
  4961   0001A4  6F8B               	movwf	(efgtoa@u+3)& (0+255),b
  4962                           
  4963                           ;C:\Program Files\Microchip\xc8\v3.00\pic\sources\c99\common\doprnt.c: 658:     e = 0;
  4964   0001A6  0E00               	movlw	0
  4965   0001A8  6F70               	movwf	(efgtoa@e+1)& (0+255),b
  4966   0001AA  0E00               	movlw	0
  4967   0001AC  6F6F               	movwf	efgtoa@e& (0+255),b
  4968   0001AE                     
  4969                           ; BSR set to: 0
  4970                           ;C:\Program Files\Microchip\xc8\v3.00\pic\sources\c99\common\doprnt.c: 659:  if (!(g.f =
      +                          = 0.0)) {
  4971   0001AE  C084  F001         	movff	efgtoa@g,___fleq@ff1
  4972   0001B2  C085  F002         	movff	efgtoa@g+1,___fleq@ff1+1
  4973   0001B6  C086  F003         	movff	efgtoa@g+2,___fleq@ff1+2
  4974   0001BA  C087  F004         	movff	efgtoa@g+3,___fleq@ff1+3
  4975   0001BE  0E00               	movlw	0
  4976   0001C0  6E05               	movwf	___fleq@ff2^0,c
  4977   0001C2  0E00               	movlw	0
  4978   0001C4  6E06               	movwf	(___fleq@ff2+1)^0,c
  4979   0001C6  0E00               	movlw	0
  4980   0001C8  6E07               	movwf	(___fleq@ff2+2)^0,c
  4981   0001CA  0E00               	movlw	0
  4982   0001CC  6E08               	movwf	(___fleq@ff2+3)^0,c
  4983   0001CE  ECCE  F017         	call	___fleq	;wreg free
  4984   0001D2  B0D8               	btfsc	status,0,c
  4985   0001D4  EFEE  F000         	goto	u3801
  4986   0001D8  EFF0  F000         	goto	u3800
  4987   0001DC                     u3801:
  4988   0001DC  EFCF  F001         	goto	l1046
  4989   0001E0                     u3800:
  4990   0001E0  EFFD  F000         	goto	l3701
  4991   0001E4                     l1048:
  4992                           
  4993                           ;C:\Program Files\Microchip\xc8\v3.00\pic\sources\c99\common\doprnt.c: 661:    u = ou;
  4994   0001E4  C073  F088         	movff	efgtoa@ou,efgtoa@u
  4995   0001E8  C074  F089         	movff	efgtoa@ou+1,efgtoa@u+1
  4996   0001EC  C075  F08A         	movff	efgtoa@ou+2,efgtoa@u+2
  4997   0001F0  C076  F08B         	movff	efgtoa@ou+3,efgtoa@u+3
  4998   0001F4                     
  4999                           ;C:\Program Files\Microchip\xc8\v3.00\pic\sources\c99\common\doprnt.c: 662:    ++e;
  5000   0001F4  0100               	movlb	0	; () banked
  5001   0001F6  4B6F               	infsnz	efgtoa@e& (0+255),f,b
  5002   0001F8  2B70               	incf	(efgtoa@e+1)& (0+255),f,b
  5003   0001FA                     l3701:
  5004                           
  5005                           ;C:\Program Files\Microchip\xc8\v3.00\pic\sources\c99\common\doprnt.c: 660:   while ((la
      +                          bs((g).u-((ou.f = u.f*10.0,ou)).u) <= 1) || g.f > ou.f) {
  5006   0001FA  C088  F00F         	movff	efgtoa@u,___flmul@b
  5007   0001FE  C089  F010         	movff	efgtoa@u+1,___flmul@b+1
  5008   000202  C08A  F011         	movff	efgtoa@u+2,___flmul@b+2
  5009   000206  C08B  F012         	movff	efgtoa@u+3,___flmul@b+3
  5010   00020A  0E00               	movlw	0
  5011   00020C  6E13               	movwf	___flmul@a^0,c
  5012   00020E  0E00               	movlw	0
  5013   000210  6E14               	movwf	(___flmul@a+1)^0,c
  5014   000212  0E20               	movlw	32
  5015   000214  6E15               	movwf	(___flmul@a+2)^0,c
  5016   000216  0E41               	movlw	65
  5017   000218  6E16               	movwf	(___flmul@a+3)^0,c
  5018   00021A  EC5A  F007         	call	___flmul	;wreg free
  5019   00021E  C00F  F073         	movff	?___flmul,efgtoa@ou
  5020   000222  C010  F074         	movff	?___flmul+1,efgtoa@ou+1
  5021   000226  C011  F075         	movff	?___flmul+2,efgtoa@ou+2
  5022   00022A  C012  F076         	movff	?___flmul+3,efgtoa@ou+3
  5023   00022E  0100               	movlb	0	; () banked
  5024   000230  5173               	movf	efgtoa@ou& (0+255),w,b
  5025   000232  5D84               	subwf	efgtoa@g& (0+255),w,b
  5026   000234  6E01               	movwf	labs@a^0,c
  5027   000236  5174               	movf	(efgtoa@ou+1)& (0+255),w,b
  5028   000238  5985               	subwfb	(efgtoa@g+1)& (0+255),w,b
  5029   00023A  6E02               	movwf	(labs@a+1)^0,c
  5030   00023C  5175               	movf	(efgtoa@ou+2)& (0+255),w,b
  5031   00023E  5986               	subwfb	(efgtoa@g+2)& (0+255),w,b
  5032   000240  6E03               	movwf	(labs@a+2)^0,c
  5033   000242  5176               	movf	(efgtoa@ou+3)& (0+255),w,b
  5034   000244  5987               	subwfb	(efgtoa@g+3)& (0+255),w,b
  5035   000246  6E04               	movwf	(labs@a+3)^0,c
  5036   000248  ECB2  F019         	call	_labs	;wreg free
  5037   00024C  BE04               	btfsc	(?_labs+3)^0,7,c
  5038   00024E  EF34  F001         	goto	u3811
  5039   000252  5004               	movf	(?_labs+3)^0,w,c
  5040   000254  1003               	iorwf	(?_labs+2)^0,w,c
  5041   000256  1002               	iorwf	(?_labs+1)^0,w,c
  5042   000258  E109               	bnz	u3810
  5043   00025A  0E02               	movlw	2
  5044   00025C  5C01               	subwf	?_labs^0,w,c
  5045   00025E  A0D8               	btfss	status,0,c
  5046   000260  EF34  F001         	goto	u3811
  5047   000264  EF36  F001         	goto	u3810
  5048   000268                     u3811:
  5049   000268  EFF2  F000         	goto	l1048
  5050   00026C                     u3810:
  5051   00026C  C073  F028         	movff	efgtoa@ou,___flge@ff1
  5052   000270  C074  F029         	movff	efgtoa@ou+1,___flge@ff1+1
  5053   000274  C075  F02A         	movff	efgtoa@ou+2,___flge@ff1+2
  5054   000278  C076  F02B         	movff	efgtoa@ou+3,___flge@ff1+3
  5055   00027C  C084  F02C         	movff	efgtoa@g,___flge@ff2
  5056   000280  C085  F02D         	movff	efgtoa@g+1,___flge@ff2+1
  5057   000284  C086  F02E         	movff	efgtoa@g+2,___flge@ff2+2
  5058   000288  C087  F02F         	movff	efgtoa@g+3,___flge@ff2+3
  5059   00028C  EC63  F014         	call	___flge	;wreg free
  5060   000290  A0D8               	btfss	status,0,c
  5061   000292  EF4D  F001         	goto	u3821
  5062   000296  EF4F  F001         	goto	u3820
  5063   00029A                     u3821:
  5064   00029A  EFF2  F000         	goto	l1048
  5065   00029E                     u3820:
  5066   00029E                     
  5067                           ;C:\Program Files\Microchip\xc8\v3.00\pic\sources\c99\common\doprnt.c: 664:   if ((labs(
      +                          (g).u-(u).u) <= 1)) {
  5068   00029E  0100               	movlb	0	; () banked
  5069   0002A0  5188               	movf	efgtoa@u& (0+255),w,b
  5070   0002A2  5D84               	subwf	efgtoa@g& (0+255),w,b
  5071   0002A4  6E01               	movwf	labs@a^0,c
  5072   0002A6  5189               	movf	(efgtoa@u+1)& (0+255),w,b
  5073   0002A8  5985               	subwfb	(efgtoa@g+1)& (0+255),w,b
  5074   0002AA  6E02               	movwf	(labs@a+1)^0,c
  5075   0002AC  518A               	movf	(efgtoa@u+2)& (0+255),w,b
  5076   0002AE  5986               	subwfb	(efgtoa@g+2)& (0+255),w,b
  5077   0002B0  6E03               	movwf	(labs@a+2)^0,c
  5078   0002B2  518B               	movf	(efgtoa@u+3)& (0+255),w,b
  5079   0002B4  5987               	subwfb	(efgtoa@g+3)& (0+255),w,b
  5080   0002B6  6E04               	movwf	(labs@a+3)^0,c
  5081   0002B8  ECB2  F019         	call	_labs	;wreg free
  5082   0002BC  BE04               	btfsc	(?_labs+3)^0,7,c
  5083   0002BE  EF6E  F001         	goto	u3830
  5084   0002C2  5004               	movf	(?_labs+3)^0,w,c
  5085   0002C4  1003               	iorwf	(?_labs+2)^0,w,c
  5086   0002C6  1002               	iorwf	(?_labs+1)^0,w,c
  5087   0002C8  E107               	bnz	u3831
  5088   0002CA  0E02               	movlw	2
  5089   0002CC  5C01               	subwf	?_labs^0,w,c
  5090   0002CE  B0D8               	btfsc	status,0,c
  5091   0002D0  EF6C  F001         	goto	u3831
  5092   0002D4  EF6E  F001         	goto	u3830
  5093   0002D8                     u3831:
  5094   0002D8  EFB6  F001         	goto	l3719
  5095   0002DC                     u3830:
  5096   0002DC                     l3709:
  5097                           
  5098                           ;C:\Program Files\Microchip\xc8\v3.00\pic\sources\c99\common\doprnt.c: 665:    g = u;
  5099   0002DC  C088  F084         	movff	efgtoa@u,efgtoa@g
  5100   0002E0  C089  F085         	movff	efgtoa@u+1,efgtoa@g+1
  5101   0002E4  C08A  F086         	movff	efgtoa@u+2,efgtoa@g+2
  5102   0002E8  C08B  F087         	movff	efgtoa@u+3,efgtoa@g+3
  5103                           
  5104                           ;C:\Program Files\Microchip\xc8\v3.00\pic\sources\c99\common\doprnt.c: 666:   }
  5105   0002EC  EFCF  F001         	goto	l1046
  5106   0002F0                     l3711:
  5107                           
  5108                           ;C:\Program Files\Microchip\xc8\v3.00\pic\sources\c99\common\doprnt.c: 669:     u.f = u.
      +                          f/10.0;
  5109   0002F0  C088  F00F         	movff	efgtoa@u,___fldiv@b
  5110   0002F4  C089  F010         	movff	efgtoa@u+1,___fldiv@b+1
  5111   0002F8  C08A  F011         	movff	efgtoa@u+2,___fldiv@b+2
  5112   0002FC  C08B  F012         	movff	efgtoa@u+3,___fldiv@b+3
  5113   000300  0E00               	movlw	0
  5114   000302  6E13               	movwf	___fldiv@a^0,c
  5115   000304  0E00               	movlw	0
  5116   000306  6E14               	movwf	(___fldiv@a+1)^0,c
  5117   000308  0E20               	movlw	32
  5118   00030A  6E15               	movwf	(___fldiv@a+2)^0,c
  5119   00030C  0E41               	movlw	65
  5120   00030E  6E16               	movwf	(___fldiv@a+3)^0,c
  5121   000310  EC6D  F009         	call	___fldiv	;wreg free
  5122   000314  C00F  F088         	movff	?___fldiv,efgtoa@u
  5123   000318  C010  F089         	movff	?___fldiv+1,efgtoa@u+1
  5124   00031C  C011  F08A         	movff	?___fldiv+2,efgtoa@u+2
  5125   000320  C012  F08B         	movff	?___fldiv+3,efgtoa@u+3
  5126   000324                     
  5127                           ;C:\Program Files\Microchip\xc8\v3.00\pic\sources\c99\common\doprnt.c: 670:     --e;
  5128   000324  0100               	movlb	0	; () banked
  5129   000326  076F               	decf	efgtoa@e& (0+255),f,b
  5130   000328  A0D8               	btfss	status,0,c
  5131   00032A  0770               	decf	(efgtoa@e+1)& (0+255),f,b
  5132   00032C                     
  5133                           ; BSR set to: 0
  5134                           ;C:\Program Files\Microchip\xc8\v3.00\pic\sources\c99\common\doprnt.c: 671:     if ((lab
      +                          s((g).u-(u).u) <= 1)) {
  5135   00032C  5188               	movf	efgtoa@u& (0+255),w,b
  5136   00032E  5D84               	subwf	efgtoa@g& (0+255),w,b
  5137   000330  6E01               	movwf	labs@a^0,c
  5138   000332  5189               	movf	(efgtoa@u+1)& (0+255),w,b
  5139   000334  5985               	subwfb	(efgtoa@g+1)& (0+255),w,b
  5140   000336  6E02               	movwf	(labs@a+1)^0,c
  5141   000338  518A               	movf	(efgtoa@u+2)& (0+255),w,b
  5142   00033A  5986               	subwfb	(efgtoa@g+2)& (0+255),w,b
  5143   00033C  6E03               	movwf	(labs@a+2)^0,c
  5144   00033E  518B               	movf	(efgtoa@u+3)& (0+255),w,b
  5145   000340  5987               	subwfb	(efgtoa@g+3)& (0+255),w,b
  5146   000342  6E04               	movwf	(labs@a+3)^0,c
  5147   000344  ECB2  F019         	call	_labs	;wreg free
  5148   000348  BE04               	btfsc	(?_labs+3)^0,7,c
  5149   00034A  EFB4  F001         	goto	u3840
  5150   00034E  5004               	movf	(?_labs+3)^0,w,c
  5151   000350  1003               	iorwf	(?_labs+2)^0,w,c
  5152   000352  1002               	iorwf	(?_labs+1)^0,w,c
  5153   000354  E107               	bnz	u3841
  5154   000356  0E02               	movlw	2
  5155   000358  5C01               	subwf	?_labs^0,w,c
  5156   00035A  B0D8               	btfsc	status,0,c
  5157   00035C  EFB2  F001         	goto	u3841
  5158   000360  EFB4  F001         	goto	u3840
  5159   000364                     u3841:
  5160   000364  EFB6  F001         	goto	l3719
  5161   000368                     u3840:
  5162   000368  EF6E  F001         	goto	l3709
  5163   00036C                     l3719:
  5164                           
  5165                           ;C:\Program Files\Microchip\xc8\v3.00\pic\sources\c99\common\doprnt.c: 668:    while (g.
      +                          f < u.f) {
  5166   00036C  C084  F028         	movff	efgtoa@g,___flge@ff1
  5167   000370  C085  F029         	movff	efgtoa@g+1,___flge@ff1+1
  5168   000374  C086  F02A         	movff	efgtoa@g+2,___flge@ff1+2
  5169   000378  C087  F02B         	movff	efgtoa@g+3,___flge@ff1+3
  5170   00037C  C088  F02C         	movff	efgtoa@u,___flge@ff2
  5171   000380  C089  F02D         	movff	efgtoa@u+1,___flge@ff2+1
  5172   000384  C08A  F02E         	movff	efgtoa@u+2,___flge@ff2+2
  5173   000388  C08B  F02F         	movff	efgtoa@u+3,___flge@ff2+3
  5174   00038C  EC63  F014         	call	___flge	;wreg free
  5175   000390  A0D8               	btfss	status,0,c
  5176   000392  EFCD  F001         	goto	u3851
  5177   000396  EFCF  F001         	goto	u3850
  5178   00039A                     u3851:
  5179   00039A  EF78  F001         	goto	l3711
  5180   00039E                     u3850:
  5181   00039E                     l1046:
  5182                           
  5183                           ;C:\Program Files\Microchip\xc8\v3.00\pic\sources\c99\common\doprnt.c: 683:  mode = c;
  5184   00039E  C045  F069         	movff	efgtoa@c,efgtoa@mode
  5185                           
  5186                           ;C:\Program Files\Microchip\xc8\v3.00\pic\sources\c99\common\doprnt.c: 685:     nmode = 
      +                          mode;
  5187   0003A2  C069  F06A         	movff	efgtoa@mode,efgtoa@nmode
  5188   0003A6                     
  5189                           ;C:\Program Files\Microchip\xc8\v3.00\pic\sources\c99\common\doprnt.c: 695:  {;C:\Progra
      +                          m Files\Microchip\xc8\v3.00\pic\sources\c99\common\doprnt.c: 696:         p = (prec < 0)
      +                           ? 6 : prec;
  5190   0003A6  0100               	movlb	0	; () banked
  5191   0003A8  BFCA               	btfsc	(_prec+1)& (0+255),7,b
  5192   0003AA  EFD9  F001         	goto	u3861
  5193   0003AE  EFDB  F001         	goto	u3860
  5194   0003B2                     u3861:
  5195   0003B2  EFE1  F001         	goto	l3725
  5196   0003B6                     u3860:
  5197   0003B6                     
  5198                           ; BSR set to: 0
  5199   0003B6  C0C9  F062         	movff	_prec,efgtoa@p
  5200   0003BA  C0CA  F063         	movff	_prec+1,efgtoa@p+1
  5201   0003BE  EFE5  F001         	goto	l3727
  5202   0003C2                     l3725:
  5203                           
  5204                           ; BSR set to: 0
  5205   0003C2  0E00               	movlw	0
  5206   0003C4  6F63               	movwf	(efgtoa@p+1)& (0+255),b
  5207   0003C6  0E06               	movlw	6
  5208   0003C8  6F62               	movwf	efgtoa@p& (0+255),b
  5209   0003CA                     l3727:
  5210                           
  5211                           ; BSR set to: 0
  5212                           ;C:\Program Files\Microchip\xc8\v3.00\pic\sources\c99\common\doprnt.c: 697:     };C:\Pro
      +                          gram Files\Microchip\xc8\v3.00\pic\sources\c99\common\doprnt.c: 711:     m = p;
  5213   0003CA  C062  F06D         	movff	efgtoa@p,efgtoa@m
  5214   0003CE  C063  F06E         	movff	efgtoa@p+1,efgtoa@m+1
  5215   0003D2                     
  5216                           ; BSR set to: 0
  5217                           ;C:\Program Files\Microchip\xc8\v3.00\pic\sources\c99\common\doprnt.c: 715:  {;C:\Progra
      +                          m Files\Microchip\xc8\v3.00\pic\sources\c99\common\doprnt.c: 716:         ++m;
  5218   0003D2  4B6D               	infsnz	efgtoa@m& (0+255),f,b
  5219   0003D4  2B6E               	incf	(efgtoa@m+1)& (0+255),f,b
  5220   0003D6                     
  5221                           ; BSR set to: 0
  5222                           ;C:\Program Files\Microchip\xc8\v3.00\pic\sources\c99\common\doprnt.c: 717:     };C:\Pro
      +                          gram Files\Microchip\xc8\v3.00\pic\sources\c99\common\doprnt.c: 721:     if (nmode == 'f
      +                          ') {
  5223   0003D6  0E66               	movlw	102
  5224   0003D8  196A               	xorwf	efgtoa@nmode& (0+255),w,b
  5225   0003DA  A4D8               	btfss	status,2,c
  5226   0003DC  EFF2  F001         	goto	u3871
  5227   0003E0  EFF4  F001         	goto	u3870
  5228   0003E4                     u3871:
  5229   0003E4  EF14  F002         	goto	l3741
  5230   0003E8                     u3870:
  5231   0003E8                     
  5232                           ; BSR set to: 0
  5233                           ;C:\Program Files\Microchip\xc8\v3.00\pic\sources\c99\common\doprnt.c: 722:         if (
      +                          e < 0) {
  5234   0003E8  BF70               	btfsc	(efgtoa@e+1)& (0+255),7,b
  5235   0003EA  EFFB  F001         	goto	u3880
  5236   0003EE  EFF9  F001         	goto	u3881
  5237   0003F2                     u3881:
  5238   0003F2  EF07  F002         	goto	l3737
  5239   0003F6                     u3880:
  5240   0003F6                     
  5241                           ; BSR set to: 0
  5242                           ;C:\Program Files\Microchip\xc8\v3.00\pic\sources\c99\common\doprnt.c: 723:             
      +                          u.f = 1.0;
  5243   0003F6  0E00               	movlw	0
  5244   0003F8  6F88               	movwf	efgtoa@u& (0+255),b
  5245   0003FA  0E00               	movlw	0
  5246   0003FC  6F89               	movwf	(efgtoa@u+1)& (0+255),b
  5247   0003FE  0E80               	movlw	128
  5248   000400  6F8A               	movwf	(efgtoa@u+2)& (0+255),b
  5249   000402  0E3F               	movlw	63
  5250   000404  6F8B               	movwf	(efgtoa@u+3)& (0+255),b
  5251                           
  5252                           ;C:\Program Files\Microchip\xc8\v3.00\pic\sources\c99\common\doprnt.c: 724:             
      +                          e = 0;
  5253   000406  0E00               	movlw	0
  5254   000408  6F70               	movwf	(efgtoa@e+1)& (0+255),b
  5255   00040A  0E00               	movlw	0
  5256   00040C  6F6F               	movwf	efgtoa@e& (0+255),b
  5257   00040E                     l3737:
  5258                           
  5259                           ; BSR set to: 0
  5260                           ;C:\Program Files\Microchip\xc8\v3.00\pic\sources\c99\common\doprnt.c: 726:         if (
      +                          !(mode == 'g')) {
  5261   00040E  0E67               	movlw	103
  5262   000410  1969               	xorwf	efgtoa@mode& (0+255),w,b
  5263   000412  B4D8               	btfsc	status,2,c
  5264   000414  EF0E  F002         	goto	u3891
  5265   000418  EF10  F002         	goto	u3890
  5266   00041C                     u3891:
  5267   00041C  EF14  F002         	goto	l3741
  5268   000420                     u3890:
  5269   000420                     
  5270                           ; BSR set to: 0
  5271                           ;C:\Program Files\Microchip\xc8\v3.00\pic\sources\c99\common\doprnt.c: 727:             
      +                          m += e;
  5272   000420  516F               	movf	efgtoa@e& (0+255),w,b
  5273   000422  276D               	addwf	efgtoa@m& (0+255),f,b
  5274   000424  5170               	movf	(efgtoa@e+1)& (0+255),w,b
  5275   000426  236E               	addwfc	(efgtoa@m+1)& (0+255),f,b
  5276   000428                     l3741:
  5277                           
  5278                           ; BSR set to: 0
  5279                           ;C:\Program Files\Microchip\xc8\v3.00\pic\sources\c99\common\doprnt.c: 733:     i = 0;
  5280   000428  0E00               	movlw	0
  5281   00042A  6F78               	movwf	(efgtoa@i+1)& (0+255),b
  5282   00042C  0E00               	movlw	0
  5283   00042E  6F77               	movwf	efgtoa@i& (0+255),b
  5284   000430                     
  5285                           ; BSR set to: 0
  5286                           ;C:\Program Files\Microchip\xc8\v3.00\pic\sources\c99\common\doprnt.c: 734:     h = g.f;
  5287   000430  C084  F079         	movff	efgtoa@g,efgtoa@h
  5288   000434  C085  F07A         	movff	efgtoa@g+1,efgtoa@h+1
  5289   000438  C086  F07B         	movff	efgtoa@g+2,efgtoa@h+2
  5290   00043C  C087  F07C         	movff	efgtoa@g+3,efgtoa@h+3
  5291   000440                     
  5292                           ; BSR set to: 0
  5293                           ;C:\Program Files\Microchip\xc8\v3.00\pic\sources\c99\common\doprnt.c: 735:     ou = u;
  5294   000440  C088  F073         	movff	efgtoa@u,efgtoa@ou
  5295   000444  C089  F074         	movff	efgtoa@u+1,efgtoa@ou+1
  5296   000448  C08A  F075         	movff	efgtoa@u+2,efgtoa@ou+2
  5297   00044C  C08B  F076         	movff	efgtoa@u+3,efgtoa@ou+3
  5298                           
  5299                           ;C:\Program Files\Microchip\xc8\v3.00\pic\sources\c99\common\doprnt.c: 736:     while (i
      +                           < m) {
  5300   000450  EFA5  F002         	goto	l3755
  5301   000454                     l3747:
  5302                           
  5303                           ; BSR set to: 0
  5304                           ;C:\Program Files\Microchip\xc8\v3.00\pic\sources\c99\common\doprnt.c: 737:         l = 
      +                          floorf(h/u.f);
  5305   000454  C079  F00F         	movff	efgtoa@h,___fldiv@b
  5306   000458  C07A  F010         	movff	efgtoa@h+1,___fldiv@b+1
  5307   00045C  C07B  F011         	movff	efgtoa@h+2,___fldiv@b+2
  5308   000460  C07C  F012         	movff	efgtoa@h+3,___fldiv@b+3
  5309   000464  C088  F013         	movff	efgtoa@u,___fldiv@a
  5310   000468  C089  F014         	movff	efgtoa@u+1,___fldiv@a+1
  5311   00046C  C08A  F015         	movff	efgtoa@u+2,___fldiv@a+2
  5312   000470  C08B  F016         	movff	efgtoa@u+3,___fldiv@a+3
  5313   000474  EC6D  F009         	call	___fldiv	;wreg free
  5314   000478  C00F  F028         	movff	?___fldiv,floorf@x
  5315   00047C  C010  F029         	movff	?___fldiv+1,floorf@x+1
  5316   000480  C011  F02A         	movff	?___fldiv+2,floorf@x+2
  5317   000484  C012  F02B         	movff	?___fldiv+3,floorf@x+3
  5318   000488  EC4C  F00F         	call	_floorf	;wreg free
  5319   00048C  C028  F07D         	movff	?_floorf,efgtoa@l
  5320   000490  C029  F07E         	movff	?_floorf+1,efgtoa@l+1
  5321   000494  C02A  F07F         	movff	?_floorf+2,efgtoa@l+2
  5322   000498  C02B  F080         	movff	?_floorf+3,efgtoa@l+3
  5323                           
  5324                           ;C:\Program Files\Microchip\xc8\v3.00\pic\sources\c99\common\doprnt.c: 738:         d = 
      +                          (int)l;
  5325   00049C  C07D  F028         	movff	efgtoa@l,___fltol@f1
  5326   0004A0  C07E  F029         	movff	efgtoa@l+1,___fltol@f1+1
  5327   0004A4  C07F  F02A         	movff	efgtoa@l+2,___fltol@f1+2
  5328   0004A8  C080  F02B         	movff	efgtoa@l+3,___fltol@f1+3
  5329   0004AC  ECE0  F013         	call	___fltol	;wreg free
  5330   0004B0  C028  F06B         	movff	?___fltol,efgtoa@d
  5331   0004B4  C029  F06C         	movff	?___fltol+1,efgtoa@d+1
  5332   0004B8                     
  5333                           ;C:\Program Files\Microchip\xc8\v3.00\pic\sources\c99\common\doprnt.c: 739:         h -=
      +                           l*u.f;
  5334   0004B8  C079  F038         	movff	efgtoa@h,___flsub@b
  5335   0004BC  C07A  F039         	movff	efgtoa@h+1,___flsub@b+1
  5336   0004C0  C07B  F03A         	movff	efgtoa@h+2,___flsub@b+2
  5337   0004C4  C07C  F03B         	movff	efgtoa@h+3,___flsub@b+3
  5338   0004C8  C07D  F013         	movff	efgtoa@l,___flmul@a
  5339   0004CC  C07E  F014         	movff	efgtoa@l+1,___flmul@a+1
  5340   0004D0  C07F  F015         	movff	efgtoa@l+2,___flmul@a+2
  5341   0004D4  C080  F016         	movff	efgtoa@l+3,___flmul@a+3
  5342   0004D8  C088  F00F         	movff	efgtoa@u,___flmul@b
  5343   0004DC  C089  F010         	movff	efgtoa@u+1,___flmul@b+1
  5344   0004E0  C08A  F011         	movff	efgtoa@u+2,___flmul@b+2
  5345   0004E4  C08B  F012         	movff	efgtoa@u+3,___flmul@b+3
  5346   0004E8  EC5A  F007         	call	___flmul	;wreg free
  5347   0004EC  C00F  F03C         	movff	?___flmul,___flsub@a
  5348   0004F0  C010  F03D         	movff	?___flmul+1,___flsub@a+1
  5349   0004F4  C011  F03E         	movff	?___flmul+2,___flsub@a+2
  5350   0004F8  C012  F03F         	movff	?___flmul+3,___flsub@a+3
  5351   0004FC  EC07  F01A         	call	___flsub	;wreg free
  5352   000500  C038  F079         	movff	?___flsub,efgtoa@h
  5353   000504  C039  F07A         	movff	?___flsub+1,efgtoa@h+1
  5354   000508  C03A  F07B         	movff	?___flsub+2,efgtoa@h+2
  5355   00050C  C03B  F07C         	movff	?___flsub+3,efgtoa@h+3
  5356   000510                     
  5357                           ;C:\Program Files\Microchip\xc8\v3.00\pic\sources\c99\common\doprnt.c: 740:         u.f 
      +                          = u.f/10.0;
  5358   000510  C088  F00F         	movff	efgtoa@u,___fldiv@b
  5359   000514  C089  F010         	movff	efgtoa@u+1,___fldiv@b+1
  5360   000518  C08A  F011         	movff	efgtoa@u+2,___fldiv@b+2
  5361   00051C  C08B  F012         	movff	efgtoa@u+3,___fldiv@b+3
  5362   000520  0E00               	movlw	0
  5363   000522  6E13               	movwf	___fldiv@a^0,c
  5364   000524  0E00               	movlw	0
  5365   000526  6E14               	movwf	(___fldiv@a+1)^0,c
  5366   000528  0E20               	movlw	32
  5367   00052A  6E15               	movwf	(___fldiv@a+2)^0,c
  5368   00052C  0E41               	movlw	65
  5369   00052E  6E16               	movwf	(___fldiv@a+3)^0,c
  5370   000530  EC6D  F009         	call	___fldiv	;wreg free
  5371   000534  C00F  F088         	movff	?___fldiv,efgtoa@u
  5372   000538  C010  F089         	movff	?___fldiv+1,efgtoa@u+1
  5373   00053C  C011  F08A         	movff	?___fldiv+2,efgtoa@u+2
  5374   000540  C012  F08B         	movff	?___fldiv+3,efgtoa@u+3
  5375   000544                     
  5376                           ;C:\Program Files\Microchip\xc8\v3.00\pic\sources\c99\common\doprnt.c: 741:         ++i;
  5377   000544  0100               	movlb	0	; () banked
  5378   000546  4B77               	infsnz	efgtoa@i& (0+255),f,b
  5379   000548  2B78               	incf	(efgtoa@i+1)& (0+255),f,b
  5380   00054A                     l3755:
  5381                           
  5382                           ; BSR set to: 0
  5383                           ;C:\Program Files\Microchip\xc8\v3.00\pic\sources\c99\common\doprnt.c: 736:     while (i
      +                           < m) {
  5384   00054A  516D               	movf	efgtoa@m& (0+255),w,b
  5385   00054C  5D77               	subwf	efgtoa@i& (0+255),w,b
  5386   00054E  5178               	movf	(efgtoa@i+1)& (0+255),w,b
  5387   000550  0A80               	xorlw	128
  5388   000552  6E46               	movwf	??_efgtoa^0,c
  5389   000554  516E               	movf	(efgtoa@m+1)& (0+255),w,b
  5390   000556  0A80               	xorlw	128
  5391   000558  5846               	subwfb	??_efgtoa^0,w,c
  5392   00055A  A0D8               	btfss	status,0,c
  5393   00055C  EFB2  F002         	goto	u3901
  5394   000560  EFB4  F002         	goto	u3900
  5395   000564                     u3901:
  5396   000564  EF2A  F002         	goto	l3747
  5397   000568                     u3900:
  5398   000568                     
  5399                           ; BSR set to: 0
  5400                           ;C:\Program Files\Microchip\xc8\v3.00\pic\sources\c99\common\doprnt.c: 745:     l = u.f*
      +                          5.0;
  5401   000568  C088  F00F         	movff	efgtoa@u,___flmul@b
  5402   00056C  C089  F010         	movff	efgtoa@u+1,___flmul@b+1
  5403   000570  C08A  F011         	movff	efgtoa@u+2,___flmul@b+2
  5404   000574  C08B  F012         	movff	efgtoa@u+3,___flmul@b+3
  5405   000578  0E00               	movlw	0
  5406   00057A  6E13               	movwf	___flmul@a^0,c
  5407   00057C  0E00               	movlw	0
  5408   00057E  6E14               	movwf	(___flmul@a+1)^0,c
  5409   000580  0EA0               	movlw	160
  5410   000582  6E15               	movwf	(___flmul@a+2)^0,c
  5411   000584  0E40               	movlw	64
  5412   000586  6E16               	movwf	(___flmul@a+3)^0,c
  5413   000588  EC5A  F007         	call	___flmul	;wreg free
  5414   00058C  C00F  F07D         	movff	?___flmul,efgtoa@l
  5415   000590  C010  F07E         	movff	?___flmul+1,efgtoa@l+1
  5416   000594  C011  F07F         	movff	?___flmul+2,efgtoa@l+2
  5417   000598  C012  F080         	movff	?___flmul+3,efgtoa@l+3
  5418   00059C                     
  5419                           ;C:\Program Files\Microchip\xc8\v3.00\pic\sources\c99\common\doprnt.c: 746:     if (h < 
      +                          l) {
  5420   00059C  C079  F028         	movff	efgtoa@h,___flge@ff1
  5421   0005A0  C07A  F029         	movff	efgtoa@h+1,___flge@ff1+1
  5422   0005A4  C07B  F02A         	movff	efgtoa@h+2,___flge@ff1+2
  5423   0005A8  C07C  F02B         	movff	efgtoa@h+3,___flge@ff1+3
  5424   0005AC  C07D  F02C         	movff	efgtoa@l,___flge@ff2
  5425   0005B0  C07E  F02D         	movff	efgtoa@l+1,___flge@ff2+1
  5426   0005B4  C07F  F02E         	movff	efgtoa@l+2,___flge@ff2+2
  5427   0005B8  C080  F02F         	movff	efgtoa@l+3,___flge@ff2+3
  5428   0005BC  EC63  F014         	call	___flge	;wreg free
  5429   0005C0  B0D8               	btfsc	status,0,c
  5430   0005C2  EFE5  F002         	goto	u3911
  5431   0005C6  EFE7  F002         	goto	u3910
  5432   0005CA                     u3911:
  5433   0005CA  EFF2  F002         	goto	l3763
  5434   0005CE                     u3910:
  5435   0005CE                     
  5436                           ;C:\Program Files\Microchip\xc8\v3.00\pic\sources\c99\common\doprnt.c: 747:         l = 
      +                          0.0;
  5437   0005CE  0E00               	movlw	0
  5438   0005D0  0100               	movlb	0	; () banked
  5439   0005D2  6F7D               	movwf	efgtoa@l& (0+255),b
  5440   0005D4  0E00               	movlw	0
  5441   0005D6  6F7E               	movwf	(efgtoa@l+1)& (0+255),b
  5442   0005D8  0E00               	movlw	0
  5443   0005DA  6F7F               	movwf	(efgtoa@l+2)& (0+255),b
  5444   0005DC  0E00               	movlw	0
  5445   0005DE  6F80               	movwf	(efgtoa@l+3)& (0+255),b
  5446                           
  5447                           ;C:\Program Files\Microchip\xc8\v3.00\pic\sources\c99\common\doprnt.c: 748:     } else {
  5448   0005E0  EF1B  F003         	goto	l3769
  5449   0005E4                     l3763:
  5450                           
  5451                           ;C:\Program Files\Microchip\xc8\v3.00\pic\sources\c99\common\doprnt.c: 750:         if (
      +                          (h == l) && !(d % 2)) {
  5452   0005E4  C079  F001         	movff	efgtoa@h,___fleq@ff1
  5453   0005E8  C07A  F002         	movff	efgtoa@h+1,___fleq@ff1+1
  5454   0005EC  C07B  F003         	movff	efgtoa@h+2,___fleq@ff1+2
  5455   0005F0  C07C  F004         	movff	efgtoa@h+3,___fleq@ff1+3
  5456   0005F4  C07D  F005         	movff	efgtoa@l,___fleq@ff2
  5457   0005F8  C07E  F006         	movff	efgtoa@l+1,___fleq@ff2+1
  5458   0005FC  C07F  F007         	movff	efgtoa@l+2,___fleq@ff2+2
  5459   000600  C080  F008         	movff	efgtoa@l+3,___fleq@ff2+3
  5460   000604  ECCE  F017         	call	___fleq	;wreg free
  5461   000608  A0D8               	btfss	status,0,c
  5462   00060A  EF09  F003         	goto	u3921
  5463   00060E  EF0B  F003         	goto	u3920
  5464   000612                     u3921:
  5465   000612  EF1B  F003         	goto	l3769
  5466   000616                     u3920:
  5467   000616  0100               	movlb	0	; () banked
  5468   000618  B16B               	btfsc	efgtoa@d& (0+255),0,b
  5469   00061A  EF11  F003         	goto	u3931
  5470   00061E  EF13  F003         	goto	u3930
  5471   000622                     u3931:
  5472   000622  EF1B  F003         	goto	l3769
  5473   000626                     u3930:
  5474   000626                     
  5475                           ; BSR set to: 0
  5476                           ;C:\Program Files\Microchip\xc8\v3.00\pic\sources\c99\common\doprnt.c: 751:             
      +                          l = 0.0;
  5477   000626  0E00               	movlw	0
  5478   000628  6F7D               	movwf	efgtoa@l& (0+255),b
  5479   00062A  0E00               	movlw	0
  5480   00062C  6F7E               	movwf	(efgtoa@l+1)& (0+255),b
  5481   00062E  0E00               	movlw	0
  5482   000630  6F7F               	movwf	(efgtoa@l+2)& (0+255),b
  5483   000632  0E00               	movlw	0
  5484   000634  6F80               	movwf	(efgtoa@l+3)& (0+255),b
  5485   000636                     l3769:
  5486                           
  5487                           ;C:\Program Files\Microchip\xc8\v3.00\pic\sources\c99\common\doprnt.c: 756:     h = g.f 
      +                          + l;
  5488   000636  C084  F028         	movff	efgtoa@g,___fladd@b
  5489   00063A  C085  F029         	movff	efgtoa@g+1,___fladd@b+1
  5490   00063E  C086  F02A         	movff	efgtoa@g+2,___fladd@b+2
  5491   000642  C087  F02B         	movff	efgtoa@g+3,___fladd@b+3
  5492   000646  C07D  F02C         	movff	efgtoa@l,___fladd@a
  5493   00064A  C07E  F02D         	movff	efgtoa@l+1,___fladd@a+1
  5494   00064E  C07F  F02E         	movff	efgtoa@l+2,___fladd@a+2
  5495   000652  C080  F02F         	movff	efgtoa@l+3,___fladd@a+3
  5496   000656  ECFF  F004         	call	___fladd	;wreg free
  5497   00065A  C028  F079         	movff	?___fladd,efgtoa@h
  5498   00065E  C029  F07A         	movff	?___fladd+1,efgtoa@h+1
  5499   000662  C02A  F07B         	movff	?___fladd+2,efgtoa@h+2
  5500   000666  C02B  F07C         	movff	?___fladd+3,efgtoa@h+3
  5501   00066A                     
  5502                           ;C:\Program Files\Microchip\xc8\v3.00\pic\sources\c99\common\doprnt.c: 758:  if (h >= (o
      +                          u.f*10.0)) {
  5503   00066A  C079  F028         	movff	efgtoa@h,___flge@ff1
  5504   00066E  C07A  F029         	movff	efgtoa@h+1,___flge@ff1+1
  5505   000672  C07B  F02A         	movff	efgtoa@h+2,___flge@ff1+2
  5506   000676  C07C  F02B         	movff	efgtoa@h+3,___flge@ff1+3
  5507   00067A  0E00               	movlw	0
  5508   00067C  6E13               	movwf	___flmul@a^0,c
  5509   00067E  0E00               	movlw	0
  5510   000680  6E14               	movwf	(___flmul@a+1)^0,c
  5511   000682  0E20               	movlw	32
  5512   000684  6E15               	movwf	(___flmul@a+2)^0,c
  5513   000686  0E41               	movlw	65
  5514   000688  6E16               	movwf	(___flmul@a+3)^0,c
  5515   00068A  C073  F00F         	movff	efgtoa@ou,___flmul@b
  5516   00068E  C074  F010         	movff	efgtoa@ou+1,___flmul@b+1
  5517   000692  C075  F011         	movff	efgtoa@ou+2,___flmul@b+2
  5518   000696  C076  F012         	movff	efgtoa@ou+3,___flmul@b+3
  5519   00069A  EC5A  F007         	call	___flmul	;wreg free
  5520   00069E  C00F  F02C         	movff	?___flmul,___flge@ff2
  5521   0006A2  C010  F02D         	movff	?___flmul+1,___flge@ff2+1
  5522   0006A6  C011  F02E         	movff	?___flmul+2,___flge@ff2+2
  5523   0006AA  C012  F02F         	movff	?___flmul+3,___flge@ff2+3
  5524   0006AE  EC63  F014         	call	___flge	;wreg free
  5525   0006B2  A0D8               	btfss	status,0,c
  5526   0006B4  EF5E  F003         	goto	u3941
  5527   0006B8  EF60  F003         	goto	u3940
  5528   0006BC                     u3941:
  5529   0006BC  EF89  F003         	goto	l3781
  5530   0006C0                     u3940:
  5531   0006C0                     
  5532                           ;C:\Program Files\Microchip\xc8\v3.00\pic\sources\c99\common\doprnt.c: 759:   e++;
  5533   0006C0  0100               	movlb	0	; () banked
  5534   0006C2  4B6F               	infsnz	efgtoa@e& (0+255),f,b
  5535   0006C4  2B70               	incf	(efgtoa@e+1)& (0+255),f,b
  5536   0006C6                     
  5537                           ; BSR set to: 0
  5538                           ;C:\Program Files\Microchip\xc8\v3.00\pic\sources\c99\common\doprnt.c: 760:   ou.f *= 10
      +                          .0;
  5539   0006C6  C073  F00F         	movff	efgtoa@ou,___flmul@b
  5540   0006CA  C074  F010         	movff	efgtoa@ou+1,___flmul@b+1
  5541   0006CE  C075  F011         	movff	efgtoa@ou+2,___flmul@b+2
  5542   0006D2  C076  F012         	movff	efgtoa@ou+3,___flmul@b+3
  5543   0006D6  0E00               	movlw	0
  5544   0006D8  6E13               	movwf	___flmul@a^0,c
  5545   0006DA  0E00               	movlw	0
  5546   0006DC  6E14               	movwf	(___flmul@a+1)^0,c
  5547   0006DE  0E20               	movlw	32
  5548   0006E0  6E15               	movwf	(___flmul@a+2)^0,c
  5549   0006E2  0E41               	movlw	65
  5550   0006E4  6E16               	movwf	(___flmul@a+3)^0,c
  5551   0006E6  EC5A  F007         	call	___flmul	;wreg free
  5552   0006EA  C00F  F073         	movff	?___flmul,efgtoa@ou
  5553   0006EE  C010  F074         	movff	?___flmul+1,efgtoa@ou+1
  5554   0006F2  C011  F075         	movff	?___flmul+2,efgtoa@ou+2
  5555   0006F6  C012  F076         	movff	?___flmul+3,efgtoa@ou+3
  5556   0006FA                     
  5557                           ;C:\Program Files\Microchip\xc8\v3.00\pic\sources\c99\common\doprnt.c: 762:   if (nmode 
      +                          == 'f') {
  5558   0006FA  0E66               	movlw	102
  5559   0006FC  0100               	movlb	0	; () banked
  5560   0006FE  196A               	xorwf	efgtoa@nmode& (0+255),w,b
  5561   000700  A4D8               	btfss	status,2,c
  5562   000702  EF85  F003         	goto	u3951
  5563   000706  EF87  F003         	goto	u3950
  5564   00070A                     u3951:
  5565   00070A  EF89  F003         	goto	l3781
  5566   00070E                     u3950:
  5567   00070E                     
  5568                           ; BSR set to: 0
  5569                           ;C:\Program Files\Microchip\xc8\v3.00\pic\sources\c99\common\doprnt.c: 764:    m++;
  5570   00070E  4B6D               	infsnz	efgtoa@m& (0+255),f,b
  5571   000710  2B6E               	incf	(efgtoa@m+1)& (0+255),f,b
  5572   000712                     l3781:
  5573                           
  5574                           ;C:\Program Files\Microchip\xc8\v3.00\pic\sources\c99\common\doprnt.c: 770:     u = ou;
  5575   000712  C073  F088         	movff	efgtoa@ou,efgtoa@u
  5576   000716  C074  F089         	movff	efgtoa@ou+1,efgtoa@u+1
  5577   00071A  C075  F08A         	movff	efgtoa@ou+2,efgtoa@u+2
  5578   00071E  C076  F08B         	movff	efgtoa@ou+3,efgtoa@u+3
  5579   000722                     
  5580                           ;C:\Program Files\Microchip\xc8\v3.00\pic\sources\c99\common\doprnt.c: 774:  ne = e;
  5581   000722  C06F  F060         	movff	efgtoa@e,efgtoa@ne
  5582   000726  C070  F061         	movff	efgtoa@e+1,efgtoa@ne+1
  5583   00072A                     
  5584                           ;C:\Program Files\Microchip\xc8\v3.00\pic\sources\c99\common\doprnt.c: 776:     pp = 0;
  5585   00072A  0100               	movlb	0	; () banked
  5586   00072C  6B68               	clrf	efgtoa@pp& (0+255),b
  5587   00072E                     
  5588                           ; BSR set to: 0
  5589                           ;C:\Program Files\Microchip\xc8\v3.00\pic\sources\c99\common\doprnt.c: 777:     t = 0;
  5590   00072E  0E00               	movlw	0
  5591   000730  6F65               	movwf	(efgtoa@t+1)& (0+255),b
  5592   000732  0E00               	movlw	0
  5593   000734  6F64               	movwf	efgtoa@t& (0+255),b
  5594   000736                     
  5595                           ; BSR set to: 0
  5596                           ;C:\Program Files\Microchip\xc8\v3.00\pic\sources\c99\common\doprnt.c: 778:     i = 0;
  5597   000736  0E00               	movlw	0
  5598   000738  6F78               	movwf	(efgtoa@i+1)& (0+255),b
  5599   00073A  0E00               	movlw	0
  5600   00073C  6F77               	movwf	efgtoa@i& (0+255),b
  5601                           
  5602                           ;C:\Program Files\Microchip\xc8\v3.00\pic\sources\c99\common\doprnt.c: 779:     while ((
      +                          i < m) && (n < (80 - 5))) {
  5603   00073E  EF86  F004         	goto	l3831
  5604   000742                     l3791:
  5605                           
  5606                           ; BSR set to: 0
  5607                           ;C:\Program Files\Microchip\xc8\v3.00\pic\sources\c99\common\doprnt.c: 780:         l = 
      +                          floorf(h/u.f);
  5608   000742  C079  F00F         	movff	efgtoa@h,___fldiv@b
  5609   000746  C07A  F010         	movff	efgtoa@h+1,___fldiv@b+1
  5610   00074A  C07B  F011         	movff	efgtoa@h+2,___fldiv@b+2
  5611   00074E  C07C  F012         	movff	efgtoa@h+3,___fldiv@b+3
  5612   000752  C088  F013         	movff	efgtoa@u,___fldiv@a
  5613   000756  C089  F014         	movff	efgtoa@u+1,___fldiv@a+1
  5614   00075A  C08A  F015         	movff	efgtoa@u+2,___fldiv@a+2
  5615   00075E  C08B  F016         	movff	efgtoa@u+3,___fldiv@a+3
  5616   000762  EC6D  F009         	call	___fldiv	;wreg free
  5617   000766  C00F  F028         	movff	?___fldiv,floorf@x
  5618   00076A  C010  F029         	movff	?___fldiv+1,floorf@x+1
  5619   00076E  C011  F02A         	movff	?___fldiv+2,floorf@x+2
  5620   000772  C012  F02B         	movff	?___fldiv+3,floorf@x+3
  5621   000776  EC4C  F00F         	call	_floorf	;wreg free
  5622   00077A  C028  F07D         	movff	?_floorf,efgtoa@l
  5623   00077E  C029  F07E         	movff	?_floorf+1,efgtoa@l+1
  5624   000782  C02A  F07F         	movff	?_floorf+2,efgtoa@l+2
  5625   000786  C02B  F080         	movff	?_floorf+3,efgtoa@l+3
  5626                           
  5627                           ;C:\Program Files\Microchip\xc8\v3.00\pic\sources\c99\common\doprnt.c: 781:         d = 
      +                          (int)l > 9 ? 9 : (int)l;
  5628   00078A  C07D  F028         	movff	efgtoa@l,___fltol@f1
  5629   00078E  C07E  F029         	movff	efgtoa@l+1,___fltol@f1+1
  5630   000792  C07F  F02A         	movff	efgtoa@l+2,___fltol@f1+2
  5631   000796  C080  F02B         	movff	efgtoa@l+3,___fltol@f1+3
  5632   00079A  ECE0  F013         	call	___fltol	;wreg free
  5633   00079E  BE29               	btfsc	(?___fltol+1)^0,7,c
  5634   0007A0  EFDD  F003         	goto	u3960
  5635   0007A4  5029               	movf	(?___fltol+1)^0,w,c
  5636   0007A6  E107               	bnz	u3961
  5637   0007A8  0E0A               	movlw	10
  5638   0007AA  5C28               	subwf	?___fltol^0,w,c
  5639   0007AC  B0D8               	btfsc	status,0,c
  5640   0007AE  EFDB  F003         	goto	u3961
  5641   0007B2  EFDD  F003         	goto	u3960
  5642   0007B6                     u3961:
  5643   0007B6  EFED  F003         	goto	l3795
  5644   0007BA                     u3960:
  5645   0007BA  C07D  F028         	movff	efgtoa@l,___fltol@f1
  5646   0007BE  C07E  F029         	movff	efgtoa@l+1,___fltol@f1+1
  5647   0007C2  C07F  F02A         	movff	efgtoa@l+2,___fltol@f1+2
  5648   0007C6  C080  F02B         	movff	efgtoa@l+3,___fltol@f1+3
  5649   0007CA  ECE0  F013         	call	___fltol	;wreg free
  5650   0007CE  C028  F06B         	movff	?___fltol,efgtoa@d
  5651   0007D2  C029  F06C         	movff	?___fltol+1,efgtoa@d+1
  5652   0007D6  EFF2  F003         	goto	l1076
  5653   0007DA                     l3795:
  5654   0007DA  0E00               	movlw	0
  5655   0007DC  0100               	movlb	0	; () banked
  5656   0007DE  6F6C               	movwf	(efgtoa@d+1)& (0+255),b
  5657   0007E0  0E09               	movlw	9
  5658   0007E2  6F6B               	movwf	efgtoa@d& (0+255),b
  5659   0007E4                     l1076:
  5660                           
  5661                           ;C:\Program Files\Microchip\xc8\v3.00\pic\sources\c99\common\doprnt.c: 792:   {;C:\Progr
      +                          am Files\Microchip\xc8\v3.00\pic\sources\c99\common\doprnt.c: 793:             if (!pp &
      +                          & (ne < 0)) {
  5662   0007E4  0100               	movlb	0	; () banked
  5663   0007E6  5168               	movf	efgtoa@pp& (0+255),w,b
  5664   0007E8  A4D8               	btfss	status,2,c
  5665   0007EA  EFF9  F003         	goto	u3971
  5666   0007EE  EFFB  F003         	goto	u3970
  5667   0007F2                     u3971:
  5668   0007F2  EF23  F004         	goto	l3815
  5669   0007F6                     u3970:
  5670   0007F6                     
  5671                           ; BSR set to: 0
  5672   0007F6  BF61               	btfsc	(efgtoa@ne+1)& (0+255),7,b
  5673   0007F8  EF02  F004         	goto	u3980
  5674   0007FC  EF00  F004         	goto	u3981
  5675   000800                     u3981:
  5676   000800  EF23  F004         	goto	l3815
  5677   000804                     u3980:
  5678   000804                     
  5679                           ; BSR set to: 0
  5680                           ;C:\Program Files\Microchip\xc8\v3.00\pic\sources\c99\common\doprnt.c: 794:             
      +                              dbuf[n++] = '.';
  5681   000804  0E00               	movlw	low _dbuf
  5682   000806  2582               	addwf	efgtoa@n& (0+255),w,b
  5683   000808  6ED9               	movwf	fsr2l,c
  5684   00080A  0E01               	movlw	high _dbuf
  5685   00080C  2183               	addwfc	(efgtoa@n+1)& (0+255),w,b
  5686   00080E  6EDA               	movwf	fsr2h,c
  5687   000810  0E2E               	movlw	46
  5688   000812  6EDF               	movwf	indf2,c
  5689   000814                     
  5690                           ; BSR set to: 0
  5691   000814  4B82               	infsnz	efgtoa@n& (0+255),f,b
  5692   000816  2B83               	incf	(efgtoa@n+1)& (0+255),f,b
  5693   000818                     
  5694                           ; BSR set to: 0
  5695                           ;C:\Program Files\Microchip\xc8\v3.00\pic\sources\c99\common\doprnt.c: 795:             
      +                              --w;
  5696   000818  0771               	decf	efgtoa@w& (0+255),f,b
  5697   00081A  A0D8               	btfss	status,0,c
  5698   00081C  0772               	decf	(efgtoa@w+1)& (0+255),f,b
  5699   00081E                     
  5700                           ; BSR set to: 0
  5701                           ;C:\Program Files\Microchip\xc8\v3.00\pic\sources\c99\common\doprnt.c: 796:             
      +                              pp = 1;
  5702   00081E  0E01               	movlw	1
  5703   000820  6F68               	movwf	efgtoa@pp& (0+255),b
  5704   000822  EF23  F004         	goto	l3815
  5705   000826                     l3807:
  5706                           
  5707                           ; BSR set to: 0
  5708                           ;C:\Program Files\Microchip\xc8\v3.00\pic\sources\c99\common\doprnt.c: 799:             
      +                              dbuf[n++] = '0';
  5709   000826  0E00               	movlw	low _dbuf
  5710   000828  2582               	addwf	efgtoa@n& (0+255),w,b
  5711   00082A  6ED9               	movwf	fsr2l,c
  5712   00082C  0E01               	movlw	high _dbuf
  5713   00082E  2183               	addwfc	(efgtoa@n+1)& (0+255),w,b
  5714   000830  6EDA               	movwf	fsr2h,c
  5715   000832  0E30               	movlw	48
  5716   000834  6EDF               	movwf	indf2,c
  5717   000836                     
  5718                           ; BSR set to: 0
  5719   000836  4B82               	infsnz	efgtoa@n& (0+255),f,b
  5720   000838  2B83               	incf	(efgtoa@n+1)& (0+255),f,b
  5721   00083A                     
  5722                           ; BSR set to: 0
  5723                           ;C:\Program Files\Microchip\xc8\v3.00\pic\sources\c99\common\doprnt.c: 800:             
      +                              --w;
  5724   00083A  0771               	decf	efgtoa@w& (0+255),f,b
  5725   00083C  A0D8               	btfss	status,0,c
  5726   00083E  0772               	decf	(efgtoa@w+1)& (0+255),f,b
  5727   000840                     
  5728                           ; BSR set to: 0
  5729                           ;C:\Program Files\Microchip\xc8\v3.00\pic\sources\c99\common\doprnt.c: 801:             
      +                              --t;
  5730   000840  0764               	decf	efgtoa@t& (0+255),f,b
  5731   000842  A0D8               	btfss	status,0,c
  5732   000844  0765               	decf	(efgtoa@t+1)& (0+255),f,b
  5733   000846                     l3815:
  5734                           
  5735                           ; BSR set to: 0
  5736                           ;C:\Program Files\Microchip\xc8\v3.00\pic\sources\c99\common\doprnt.c: 798:             
      +                          while (t) {
  5737   000846  5164               	movf	efgtoa@t& (0+255),w,b
  5738   000848  1165               	iorwf	(efgtoa@t+1)& (0+255),w,b
  5739   00084A  A4D8               	btfss	status,2,c
  5740   00084C  EF2A  F004         	goto	u3991
  5741   000850  EF2C  F004         	goto	u3990
  5742   000854                     u3991:
  5743   000854  EF13  F004         	goto	l3807
  5744   000858                     u3990:
  5745   000858                     
  5746                           ; BSR set to: 0
  5747                           ;C:\Program Files\Microchip\xc8\v3.00\pic\sources\c99\common\doprnt.c: 803:             
      +                          dbuf[n++] = (char)((int)'0' + d);
  5748   000858  0E00               	movlw	low _dbuf
  5749   00085A  2582               	addwf	efgtoa@n& (0+255),w,b
  5750   00085C  6ED9               	movwf	fsr2l,c
  5751   00085E  0E01               	movlw	high _dbuf
  5752   000860  2183               	addwfc	(efgtoa@n+1)& (0+255),w,b
  5753   000862  6EDA               	movwf	fsr2h,c
  5754   000864  516B               	movf	efgtoa@d& (0+255),w,b
  5755   000866  0F30               	addlw	48
  5756   000868  6EDF               	movwf	indf2,c
  5757   00086A                     
  5758                           ; BSR set to: 0
  5759   00086A  4B82               	infsnz	efgtoa@n& (0+255),f,b
  5760   00086C  2B83               	incf	(efgtoa@n+1)& (0+255),f,b
  5761   00086E                     
  5762                           ; BSR set to: 0
  5763                           ;C:\Program Files\Microchip\xc8\v3.00\pic\sources\c99\common\doprnt.c: 804:             
      +                          --w;
  5764   00086E  0771               	decf	efgtoa@w& (0+255),f,b
  5765   000870  A0D8               	btfss	status,0,c
  5766   000872  0772               	decf	(efgtoa@w+1)& (0+255),f,b
  5767   000874                     
  5768                           ; BSR set to: 0
  5769                           ;C:\Program Files\Microchip\xc8\v3.00\pic\sources\c99\common\doprnt.c: 805:         };C:
      +                          \Program Files\Microchip\xc8\v3.00\pic\sources\c99\common\doprnt.c: 806:         h -= l*
      +                          u.f;
  5770   000874  C079  F038         	movff	efgtoa@h,___flsub@b
  5771   000878  C07A  F039         	movff	efgtoa@h+1,___flsub@b+1
  5772   00087C  C07B  F03A         	movff	efgtoa@h+2,___flsub@b+2
  5773   000880  C07C  F03B         	movff	efgtoa@h+3,___flsub@b+3
  5774   000884  C07D  F013         	movff	efgtoa@l,___flmul@a
  5775   000888  C07E  F014         	movff	efgtoa@l+1,___flmul@a+1
  5776   00088C  C07F  F015         	movff	efgtoa@l+2,___flmul@a+2
  5777   000890  C080  F016         	movff	efgtoa@l+3,___flmul@a+3
  5778   000894  C088  F00F         	movff	efgtoa@u,___flmul@b
  5779   000898  C089  F010         	movff	efgtoa@u+1,___flmul@b+1
  5780   00089C  C08A  F011         	movff	efgtoa@u+2,___flmul@b+2
  5781   0008A0  C08B  F012         	movff	efgtoa@u+3,___flmul@b+3
  5782   0008A4  EC5A  F007         	call	___flmul	;wreg free
  5783   0008A8  C00F  F03C         	movff	?___flmul,___flsub@a
  5784   0008AC  C010  F03D         	movff	?___flmul+1,___flsub@a+1
  5785   0008B0  C011  F03E         	movff	?___flmul+2,___flsub@a+2
  5786   0008B4  C012  F03F         	movff	?___flmul+3,___flsub@a+3
  5787   0008B8  EC07  F01A         	call	___flsub	;wreg free
  5788   0008BC  C038  F079         	movff	?___flsub,efgtoa@h
  5789   0008C0  C039  F07A         	movff	?___flsub+1,efgtoa@h+1
  5790   0008C4  C03A  F07B         	movff	?___flsub+2,efgtoa@h+2
  5791   0008C8  C03B  F07C         	movff	?___flsub+3,efgtoa@h+3
  5792   0008CC                     
  5793                           ;C:\Program Files\Microchip\xc8\v3.00\pic\sources\c99\common\doprnt.c: 807:         u.f 
      +                          = u.f/10.0;
  5794   0008CC  C088  F00F         	movff	efgtoa@u,___fldiv@b
  5795   0008D0  C089  F010         	movff	efgtoa@u+1,___fldiv@b+1
  5796   0008D4  C08A  F011         	movff	efgtoa@u+2,___fldiv@b+2
  5797   0008D8  C08B  F012         	movff	efgtoa@u+3,___fldiv@b+3
  5798   0008DC  0E00               	movlw	0
  5799   0008DE  6E13               	movwf	___fldiv@a^0,c
  5800   0008E0  0E00               	movlw	0
  5801   0008E2  6E14               	movwf	(___fldiv@a+1)^0,c
  5802   0008E4  0E20               	movlw	32
  5803   0008E6  6E15               	movwf	(___fldiv@a+2)^0,c
  5804   0008E8  0E41               	movlw	65
  5805   0008EA  6E16               	movwf	(___fldiv@a+3)^0,c
  5806   0008EC  EC6D  F009         	call	___fldiv	;wreg free
  5807   0008F0  C00F  F088         	movff	?___fldiv,efgtoa@u
  5808   0008F4  C010  F089         	movff	?___fldiv+1,efgtoa@u+1
  5809   0008F8  C011  F08A         	movff	?___fldiv+2,efgtoa@u+2
  5810   0008FC  C012  F08B         	movff	?___fldiv+3,efgtoa@u+3
  5811   000900                     
  5812                           ;C:\Program Files\Microchip\xc8\v3.00\pic\sources\c99\common\doprnt.c: 808:         --ne
      +                          ;
  5813   000900  0100               	movlb	0	; () banked
  5814   000902  0760               	decf	efgtoa@ne& (0+255),f,b
  5815   000904  A0D8               	btfss	status,0,c
  5816   000906  0761               	decf	(efgtoa@ne+1)& (0+255),f,b
  5817   000908                     
  5818                           ; BSR set to: 0
  5819                           ;C:\Program Files\Microchip\xc8\v3.00\pic\sources\c99\common\doprnt.c: 809:         ++i;
  5820   000908  4B77               	infsnz	efgtoa@i& (0+255),f,b
  5821   00090A  2B78               	incf	(efgtoa@i+1)& (0+255),f,b
  5822   00090C                     l3831:
  5823                           
  5824                           ; BSR set to: 0
  5825                           ;C:\Program Files\Microchip\xc8\v3.00\pic\sources\c99\common\doprnt.c: 779:     while ((
      +                          i < m) && (n < (80 - 5))) {
  5826   00090C  516D               	movf	efgtoa@m& (0+255),w,b
  5827   00090E  5D77               	subwf	efgtoa@i& (0+255),w,b
  5828   000910  5178               	movf	(efgtoa@i+1)& (0+255),w,b
  5829   000912  0A80               	xorlw	128
  5830   000914  6E46               	movwf	??_efgtoa^0,c
  5831   000916  516E               	movf	(efgtoa@m+1)& (0+255),w,b
  5832   000918  0A80               	xorlw	128
  5833   00091A  5846               	subwfb	??_efgtoa^0,w,c
  5834   00091C  B0D8               	btfsc	status,0,c
  5835   00091E  EF93  F004         	goto	u4001
  5836   000922  EF95  F004         	goto	u4000
  5837   000926                     u4001:
  5838   000926  EFA3  F004         	goto	l3835
  5839   00092A                     u4000:
  5840   00092A                     
  5841                           ; BSR set to: 0
  5842   00092A  BF83               	btfsc	(efgtoa@n+1)& (0+255),7,b
  5843   00092C  EFA1  F004         	goto	u4011
  5844   000930  5183               	movf	(efgtoa@n+1)& (0+255),w,b
  5845   000932  E109               	bnz	u4010
  5846   000934  0E4B               	movlw	75
  5847   000936  5D82               	subwf	efgtoa@n& (0+255),w,b
  5848   000938  A0D8               	btfss	status,0,c
  5849   00093A  EFA1  F004         	goto	u4011
  5850   00093E  EFA3  F004         	goto	u4010
  5851   000942                     u4011:
  5852   000942  EFA1  F003         	goto	l3791
  5853   000946                     u4010:
  5854   000946                     l3835:
  5855                           
  5856                           ; BSR set to: 0
  5857                           ;C:\Program Files\Microchip\xc8\v3.00\pic\sources\c99\common\doprnt.c: 816:  i = sizeof(
      +                          dbuf) - 1;
  5858   000946  0E00               	movlw	0
  5859   000948  6F78               	movwf	(efgtoa@i+1)& (0+255),b
  5860   00094A  0E4F               	movlw	79
  5861   00094C  6F77               	movwf	efgtoa@i& (0+255),b
  5862   00094E                     
  5863                           ; BSR set to: 0
  5864                           ;C:\Program Files\Microchip\xc8\v3.00\pic\sources\c99\common\doprnt.c: 817:     dbuf[i] 
      +                          = '\0';
  5865   00094E  0E00               	movlw	low _dbuf
  5866   000950  2577               	addwf	efgtoa@i& (0+255),w,b
  5867   000952  6ED9               	movwf	fsr2l,c
  5868   000954  0E01               	movlw	high _dbuf
  5869   000956  2178               	addwfc	(efgtoa@i+1)& (0+255),w,b
  5870   000958  6EDA               	movwf	fsr2h,c
  5871   00095A  6ADF               	clrf	indf2,c
  5872   00095C                     
  5873                           ; BSR set to: 0
  5874                           ;C:\Program Files\Microchip\xc8\v3.00\pic\sources\c99\common\doprnt.c: 848:  memcpy(&dbu
      +                          f[i-n], &dbuf[0], (size_t)n);
  5875   00095C  0E00               	movlw	low _dbuf
  5876   00095E  6E46               	movwf	??_efgtoa^0,c
  5877   000960  0E01               	movlw	high _dbuf
  5878   000962  6E47               	movwf	(??_efgtoa+1)^0,c
  5879   000964  5182               	movf	efgtoa@n& (0+255),w,b
  5880   000966  5E46               	subwf	??_efgtoa^0,f,c
  5881   000968  5183               	movf	(efgtoa@n+1)& (0+255),w,b
  5882   00096A  5A47               	subwfb	(??_efgtoa+1)^0,f,c
  5883   00096C  5177               	movf	efgtoa@i& (0+255),w,b
  5884   00096E  2446               	addwf	??_efgtoa^0,w,c
  5885   000970  6E01               	movwf	memcpy@d1^0,c
  5886   000972  5178               	movf	(efgtoa@i+1)& (0+255),w,b
  5887   000974  2047               	addwfc	(??_efgtoa+1)^0,w,c
  5888   000976  6E02               	movwf	(memcpy@d1+1)^0,c
  5889   000978  0E00               	movlw	low _dbuf
  5890   00097A  6E03               	movwf	memcpy@s1^0,c
  5891   00097C  0E01               	movlw	high _dbuf
  5892   00097E  6E04               	movwf	(memcpy@s1+1)^0,c
  5893   000980  C082  F005         	movff	efgtoa@n,memcpy@n
  5894   000984  C083  F006         	movff	efgtoa@n+1,memcpy@n+1
  5895   000988  EC4D  F019         	call	_memcpy	;wreg free
  5896   00098C                     
  5897                           ;C:\Program Files\Microchip\xc8\v3.00\pic\sources\c99\common\doprnt.c: 849:  n = i-n;
  5898   00098C  0100               	movlb	0	; () banked
  5899   00098E  5182               	movf	efgtoa@n& (0+255),w,b
  5900   000990  5D77               	subwf	efgtoa@i& (0+255),w,b
  5901   000992  6F82               	movwf	efgtoa@n& (0+255),b
  5902   000994  5183               	movf	(efgtoa@n+1)& (0+255),w,b
  5903   000996  5978               	subwfb	(efgtoa@i+1)& (0+255),w,b
  5904   000998  6F83               	movwf	(efgtoa@n+1)& (0+255),b
  5905   00099A                     
  5906                           ; BSR set to: 0
  5907                           ;C:\Program Files\Microchip\xc8\v3.00\pic\sources\c99\common\doprnt.c: 850:  i = sign ==
      +                           0 ? 0 : 1;
  5908   00099A  5181               	movf	efgtoa@sign& (0+255),w,b
  5909   00099C  A4D8               	btfss	status,2,c
  5910   00099E  EFD3  F004         	goto	u4021
  5911   0009A2  EFD6  F004         	goto	u4020
  5912   0009A6                     u4021:
  5913   0009A6  0E01               	movlw	1
  5914   0009A8  EFD7  F004         	goto	u4030
  5915   0009AC                     u4020:
  5916   0009AC  0E00               	movlw	0
  5917   0009AE                     u4030:
  5918   0009AE  6F77               	movwf	efgtoa@i& (0+255),b
  5919   0009B0  6B78               	clrf	(efgtoa@i+1)& (0+255),b
  5920   0009B2                     
  5921                           ; BSR set to: 0
  5922                           ;C:\Program Files\Microchip\xc8\v3.00\pic\sources\c99\common\doprnt.c: 861:  if (sign) {
  5923   0009B2  5181               	movf	efgtoa@sign& (0+255),w,b
  5924   0009B4  B4D8               	btfsc	status,2,c
  5925   0009B6  EFDF  F004         	goto	u4041
  5926   0009BA  EFE1  F004         	goto	u4040
  5927   0009BE                     u4041:
  5928   0009BE  EFEC  F004         	goto	l3849
  5929   0009C2                     u4040:
  5930   0009C2                     
  5931                           ; BSR set to: 0
  5932                           ;C:\Program Files\Microchip\xc8\v3.00\pic\sources\c99\common\doprnt.c: 862:   dbuf[--n] 
      +                          = sign;
  5933   0009C2  0782               	decf	efgtoa@n& (0+255),f,b
  5934   0009C4  A0D8               	btfss	status,0,c
  5935   0009C6  0783               	decf	(efgtoa@n+1)& (0+255),f,b
  5936   0009C8  0E00               	movlw	low _dbuf
  5937   0009CA  2582               	addwf	efgtoa@n& (0+255),w,b
  5938   0009CC  6ED9               	movwf	fsr2l,c
  5939   0009CE  0E01               	movlw	high _dbuf
  5940   0009D0  2183               	addwfc	(efgtoa@n+1)& (0+255),w,b
  5941   0009D2  6EDA               	movwf	fsr2h,c
  5942   0009D4  C081  FFDF         	movff	efgtoa@sign,indf2
  5943   0009D8                     l3849:
  5944                           
  5945                           ; BSR set to: 0
  5946                           ;C:\Program Files\Microchip\xc8\v3.00\pic\sources\c99\common\doprnt.c: 864:  w -= i;
  5947   0009D8  5177               	movf	efgtoa@i& (0+255),w,b
  5948   0009DA  5F71               	subwf	efgtoa@w& (0+255),f,b
  5949   0009DC  5178               	movf	(efgtoa@i+1)& (0+255),w,b
  5950   0009DE  5B72               	subwfb	(efgtoa@w+1)& (0+255),f,b
  5951   0009E0                     
  5952                           ; BSR set to: 0
  5953                           ;C:\Program Files\Microchip\xc8\v3.00\pic\sources\c99\common\doprnt.c: 867:     return (
      +                          void) pad(fp, &dbuf[n], w);
  5954   0009E0  C040  F00F         	movff	efgtoa@fp,pad@fp
  5955   0009E4  0E00               	movlw	low _dbuf
  5956   0009E6  2582               	addwf	efgtoa@n& (0+255),w,b
  5957   0009E8  6E10               	movwf	pad@buf^0,c
  5958   0009EA  0E01               	movlw	high _dbuf
  5959   0009EC  2183               	addwfc	(efgtoa@n+1)& (0+255),w,b
  5960   0009EE  6E11               	movwf	(pad@buf+1)^0,c
  5961   0009F0  C071  F012         	movff	efgtoa@w,pad@p
  5962   0009F4  C072  F013         	movff	efgtoa@w+1,pad@p+1
  5963   0009F8  EC1A  F019         	call	_pad	;wreg free
  5964   0009FC                     l1043:
  5965   0009FC  0012               	return		;funcret
  5966   0009FE                     __end_of_efgtoa:
  5967                           	callstack 0
  5968                           
  5969 ;; *************** function _strcpy *****************
  5970 ;; Defined at:
  5971 ;;		line 3 in file "C:\Program Files\Microchip\xc8\v3.00\pic\sources\c99\common\strcpy.c"
  5972 ;; Parameters:    Size  Location     Type
  5973 ;;  dest            2    0[COMRAM] PTR unsigned char 
  5974 ;;		 -> dbuf(80), 
  5975 ;;  src             2    2[COMRAM] PTR const unsigned char 
  5976 ;;		 -> STR_6(4), STR_3(4), 
  5977 ;; Auto vars:     Size  Location     Type
  5978 ;;  d               2    4[COMRAM] PTR unsigned char 
  5979 ;;		 -> dbuf(80), 
  5980 ;; Return value:  Size  Location     Type
  5981 ;;                  2    0[COMRAM] PTR unsigned char 
  5982 ;; Registers used:
  5983 ;;		wreg, fsr2l, fsr2h, status,2, status,0, tblptrl, tblptrh, tblptru
  5984 ;; Tracked objects:
  5985 ;;		On entry : 0/0
  5986 ;;		On exit  : 0/0
  5987 ;;		Unchanged: 0/0
  5988 ;; Data sizes:     COMRAM   BANK0   BANK1   BANK2   BANK3   BANK4   BANK5
  5989 ;;      Params:         4       0       0       0       0       0       0
  5990 ;;      Locals:         2       0       0       0       0       0       0
  5991 ;;      Temps:          0       0       0       0       0       0       0
  5992 ;;      Totals:         6       0       0       0       0       0       0
  5993 ;;Total ram usage:        6 bytes
  5994 ;; Hardware stack levels used: 1
  5995 ;; Hardware stack levels required when called: 2
  5996 ;; This function calls:
  5997 ;;		Nothing
  5998 ;; This function is called by:
  5999 ;;		_efgtoa
  6000 ;; This function uses a non-reentrant model
  6001 ;;
  6002                           
  6003                           	psect	text13
  6004   0035D8                     __ptext13:
  6005                           	callstack 0
  6006   0035D8                     _strcpy:
  6007                           	callstack 24
  6008   0035D8  C001  F005         	movff	strcpy@dest,strcpy@d
  6009   0035DC  C002  F006         	movff	strcpy@dest+1,strcpy@d+1
  6010   0035E0                     l3553:
  6011   0035E0  C003  FFF6         	movff	strcpy@src,tblptrl
  6012   0035E4  C004  FFF7         	movff	strcpy@src+1,tblptrh
  6013   0035E8  4A03               	infsnz	strcpy@src^0,f,c
  6014   0035EA  2A04               	incf	(strcpy@src+1)^0,f,c
  6015   0035EC                     	if	0	;tblptru may be non-zero
  6016   0035EC                     	endif
  6017   0035EC                     	if	0	;tblptru may be non-zero
  6018   0035EC                     	endif
  6019   0035EC  C005  FFD9         	movff	strcpy@d,fsr2l
  6020   0035F0  C006  FFDA         	movff	strcpy@d+1,fsr2h
  6021   0035F4  4A05               	infsnz	strcpy@d^0,f,c
  6022   0035F6  2A06               	incf	(strcpy@d+1)^0,f,c
  6023   0035F8  0008               	tblrd		*
  6024   0035FA  CFF5 FFDF          	movff	tablat,indf2
  6025   0035FE  50DF               	movf	indf2,w,c
  6026   003600  A4D8               	btfss	status,2,c
  6027   003602  EF05  F01B         	goto	u3531
  6028   003606  EF07  F01B         	goto	u3530
  6029   00360A                     u3531:
  6030   00360A  EFF0  F01A         	goto	l3553
  6031   00360E                     u3530:
  6032   00360E  0012               	return		;funcret
  6033   003610                     __end_of_strcpy:
  6034                           	callstack 0
  6035                           
  6036 ;; *************** function _pad *****************
  6037 ;; Defined at:
  6038 ;;		line 193 in file "C:\Program Files\Microchip\xc8\v3.00\pic\sources\c99\common\doprnt.c"
  6039 ;; Parameters:    Size  Location     Type
  6040 ;;  fp              1   14[COMRAM] PTR struct _IO_FILE
  6041 ;;		 -> sprintf@f(11), 
  6042 ;;  buf             2   15[COMRAM] PTR unsigned char 
  6043 ;;		 -> dbuf(80), 
  6044 ;;  p               2   17[COMRAM] int 
  6045 ;; Auto vars:     Size  Location     Type
  6046 ;;  i               2   20[COMRAM] int 
  6047 ;; Return value:  Size  Location     Type
  6048 ;;                  1    wreg      void 
  6049 ;; Registers used:
  6050 ;;		wreg, fsr1l, fsr1h, fsr2l, fsr2h, status,2, status,0, cstack
  6051 ;; Tracked objects:
  6052 ;;		On entry : 0/0
  6053 ;;		On exit  : 0/0
  6054 ;;		Unchanged: 0/0
  6055 ;; Data sizes:     COMRAM   BANK0   BANK1   BANK2   BANK3   BANK4   BANK5
  6056 ;;      Params:         5       0       0       0       0       0       0
  6057 ;;      Locals:         2       0       0       0       0       0       0
  6058 ;;      Temps:          1       0       0       0       0       0       0
  6059 ;;      Totals:         8       0       0       0       0       0       0
  6060 ;;Total ram usage:        8 bytes
  6061 ;; Hardware stack levels used: 1
  6062 ;; Hardware stack levels required when called: 5
  6063 ;; This function calls:
  6064 ;;		_fputc
  6065 ;;		_fputs
  6066 ;; This function is called by:
  6067 ;;		_efgtoa
  6068 ;; This function uses a non-reentrant model
  6069 ;;
  6070                           
  6071                           	psect	text14
  6072   003234                     __ptext14:
  6073                           	callstack 0
  6074   003234                     _pad:
  6075                           	callstack 21
  6076   003234                     
  6077                           ;C:\Program Files\Microchip\xc8\v3.00\pic\sources\c99\common\doprnt.c: 193: static void 
      +                          pad(FILE *fp, char *buf, int p);C:\Program Files\Microchip\xc8\v3.00\pic\sources\c99\com
      +                          mon\doprnt.c: 194: {;C:\Program Files\Microchip\xc8\v3.00\pic\sources\c99\common\doprnt.
      +                          c: 195:     int i;;C:\Program Files\Microchip\xc8\v3.00\pic\sources\c99\common\doprnt.c:
      +                           205:  if (p < 0) {
  6078   003234  BE13               	btfsc	(pad@p+1)^0,7,c
  6079   003236  EF21  F019         	goto	u3440
  6080   00323A  EF1F  F019         	goto	u3441
  6081   00323E                     u3441:
  6082   00323E  EF25  F019         	goto	l1028
  6083   003242                     u3440:
  6084   003242                     
  6085                           ;C:\Program Files\Microchip\xc8\v3.00\pic\sources\c99\common\doprnt.c: 206:   p = 0;
  6086   003242  0E00               	movlw	0
  6087   003244  6E13               	movwf	(pad@p+1)^0,c
  6088   003246  0E00               	movlw	0
  6089   003248  6E12               	movwf	pad@p^0,c
  6090   00324A                     l1028:
  6091                           
  6092                           ;C:\Program Files\Microchip\xc8\v3.00\pic\sources\c99\common\doprnt.c: 208:     i = 0;
  6093   00324A  0E00               	movlw	0
  6094   00324C  6E16               	movwf	(pad@i+1)^0,c
  6095   00324E  0E00               	movlw	0
  6096   003250  6E15               	movwf	pad@i^0,c
  6097                           
  6098                           ;C:\Program Files\Microchip\xc8\v3.00\pic\sources\c99\common\doprnt.c: 209:     while (i
      +                           < p) {
  6099   003252  EF35  F019         	goto	l3525
  6100   003256                     l3521:
  6101                           
  6102                           ;C:\Program Files\Microchip\xc8\v3.00\pic\sources\c99\common\doprnt.c: 210:         fput
      +                          c(' ', fp);
  6103   003256  0E00               	movlw	0
  6104   003258  6E02               	movwf	(fputc@c+1)^0,c
  6105   00325A  0E20               	movlw	32
  6106   00325C  6E01               	movwf	fputc@c^0,c
  6107   00325E  C00F  F003         	movff	pad@fp,fputc@fp
  6108   003262  EC79  F017         	call	_fputc	;wreg free
  6109   003266                     
  6110                           ;C:\Program Files\Microchip\xc8\v3.00\pic\sources\c99\common\doprnt.c: 211:         ++i;
  6111   003266  4A15               	infsnz	pad@i^0,f,c
  6112   003268  2A16               	incf	(pad@i+1)^0,f,c
  6113   00326A                     l3525:
  6114                           
  6115                           ;C:\Program Files\Microchip\xc8\v3.00\pic\sources\c99\common\doprnt.c: 209:     while (i
      +                           < p) {
  6116   00326A  5012               	movf	pad@p^0,w,c
  6117   00326C  5C15               	subwf	pad@i^0,w,c
  6118   00326E  5016               	movf	(pad@i+1)^0,w,c
  6119   003270  0A80               	xorlw	128
  6120   003272  6E14               	movwf	??_pad^0,c
  6121   003274  5013               	movf	(pad@p+1)^0,w,c
  6122   003276  0A80               	xorlw	128
  6123   003278  5814               	subwfb	??_pad^0,w,c
  6124   00327A  A0D8               	btfss	status,0,c
  6125   00327C  EF42  F019         	goto	u3451
  6126   003280  EF44  F019         	goto	u3450
  6127   003284                     u3451:
  6128   003284  EF2B  F019         	goto	l3521
  6129   003288                     u3450:
  6130   003288                     
  6131                           ;C:\Program Files\Microchip\xc8\v3.00\pic\sources\c99\common\doprnt.c: 218:         fput
      +                          s((const char *)buf, fp);
  6132   003288  C010  F009         	movff	pad@buf,fputs@s
  6133   00328C  C011  F00A         	movff	pad@buf+1,fputs@s+1
  6134   003290  C00F  F00B         	movff	pad@fp,fputs@fp
  6135   003294  EC91  F01A         	call	_fputs	;wreg free
  6136   003298  0012               	return		;funcret
  6137   00329A                     __end_of_pad:
  6138                           	callstack 0
  6139                           
  6140 ;; *************** function _fputs *****************
  6141 ;; Defined at:
  6142 ;;		line 8 in file "C:\Program Files\Microchip\xc8\v3.00\pic\sources\c99\common\nf_fputs.c"
  6143 ;; Parameters:    Size  Location     Type
  6144 ;;  s               2    8[COMRAM] PTR const unsigned char 
  6145 ;;		 -> dbuf(80), 
  6146 ;;  fp              1   10[COMRAM] PTR struct _IO_FILE
  6147 ;;		 -> sprintf@f(11), 
  6148 ;; Auto vars:     Size  Location     Type
  6149 ;;  i               2   12[COMRAM] int 
  6150 ;;  c               1   11[COMRAM] unsigned char 
  6151 ;; Return value:  Size  Location     Type
  6152 ;;                  2    8[COMRAM] int 
  6153 ;; Registers used:
  6154 ;;		wreg, fsr1l, fsr1h, fsr2l, fsr2h, status,2, status,0, cstack
  6155 ;; Tracked objects:
  6156 ;;		On entry : 0/0
  6157 ;;		On exit  : 0/0
  6158 ;;		Unchanged: 0/0
  6159 ;; Data sizes:     COMRAM   BANK0   BANK1   BANK2   BANK3   BANK4   BANK5
  6160 ;;      Params:         3       0       0       0       0       0       0
  6161 ;;      Locals:         3       0       0       0       0       0       0
  6162 ;;      Temps:          0       0       0       0       0       0       0
  6163 ;;      Totals:         6       0       0       0       0       0       0
  6164 ;;Total ram usage:        6 bytes
  6165 ;; Hardware stack levels used: 1
  6166 ;; Hardware stack levels required when called: 4
  6167 ;; This function calls:
  6168 ;;		_fputc
  6169 ;; This function is called by:
  6170 ;;		_pad
  6171 ;; This function uses a non-reentrant model
  6172 ;;
  6173                           
  6174                           	psect	text15
  6175   003522                     __ptext15:
  6176                           	callstack 0
  6177   003522                     _fputs:
  6178                           	callstack 21
  6179   003522  0E00               	movlw	0
  6180   003524  6E0E               	movwf	(fputs@i+1)^0,c
  6181   003526  0E00               	movlw	0
  6182   003528  6E0D               	movwf	fputs@i^0,c
  6183   00352A  EFA0  F01A         	goto	l3143
  6184   00352E                     l3139:
  6185   00352E  C00C  F001         	movff	fputs@c,fputc@c
  6186   003532  6A02               	clrf	(fputc@c+1)^0,c
  6187   003534  C00B  F003         	movff	fputs@fp,fputc@fp
  6188   003538  EC79  F017         	call	_fputc	;wreg free
  6189   00353C  4A0D               	infsnz	fputs@i^0,f,c
  6190   00353E  2A0E               	incf	(fputs@i+1)^0,f,c
  6191   003540                     l3143:
  6192   003540  500D               	movf	fputs@i^0,w,c
  6193   003542  2409               	addwf	fputs@s^0,w,c
  6194   003544  6ED9               	movwf	fsr2l,c
  6195   003546  500E               	movf	(fputs@i+1)^0,w,c
  6196   003548  200A               	addwfc	(fputs@s+1)^0,w,c
  6197   00354A  6EDA               	movwf	fsr2h,c
  6198   00354C  50DF               	movf	indf2,w,c
  6199   00354E  6E0C               	movwf	fputs@c^0,c
  6200   003550  500C               	movf	fputs@c^0,w,c
  6201   003552  A4D8               	btfss	status,2,c
  6202   003554  EFAE  F01A         	goto	u2831
  6203   003558  EFB0  F01A         	goto	u2830
  6204   00355C                     u2831:
  6205   00355C  EF97  F01A         	goto	l3139
  6206   003560                     u2830:
  6207   003560  0012               	return		;funcret
  6208   003562                     __end_of_fputs:
  6209                           	callstack 0
  6210                           
  6211 ;; *************** function _fputc *****************
  6212 ;; Defined at:
  6213 ;;		line 8 in file "C:\Program Files\Microchip\xc8\v3.00\pic\sources\c99\common\nf_fputc.c"
  6214 ;; Parameters:    Size  Location     Type
  6215 ;;  c               2    0[COMRAM] int 
  6216 ;;  fp              1    2[COMRAM] PTR struct _IO_FILE
  6217 ;;		 -> sprintf@f(11), 
  6218 ;; Auto vars:     Size  Location     Type
  6219 ;;		None
  6220 ;; Return value:  Size  Location     Type
  6221 ;;                  2    0[COMRAM] int 
  6222 ;; Registers used:
  6223 ;;		wreg, fsr1l, fsr1h, fsr2l, fsr2h, status,2, status,0, cstack
  6224 ;; Tracked objects:
  6225 ;;		On entry : 0/0
  6226 ;;		On exit  : 0/0
  6227 ;;		Unchanged: 0/0
  6228 ;; Data sizes:     COMRAM   BANK0   BANK1   BANK2   BANK3   BANK4   BANK5
  6229 ;;      Params:         3       0       0       0       0       0       0
  6230 ;;      Locals:         0       0       0       0       0       0       0
  6231 ;;      Temps:          5       0       0       0       0       0       0
  6232 ;;      Totals:         8       0       0       0       0       0       0
  6233 ;;Total ram usage:        8 bytes
  6234 ;; Hardware stack levels used: 1
  6235 ;; Hardware stack levels required when called: 3
  6236 ;; This function calls:
  6237 ;;		_putch
  6238 ;; This function is called by:
  6239 ;;		_pad
  6240 ;;		_vfpfcnvrt
  6241 ;;		_fputs
  6242 ;; This function uses a non-reentrant model
  6243 ;;
  6244                           
  6245                           	psect	text16
  6246   002EF2                     __ptext16:
  6247                           	callstack 0
  6248   002EF2                     _fputc:
  6249                           	callstack 24
  6250   002EF2  5003               	movf	fputc@fp^0,w,c
  6251   002EF4  B4D8               	btfsc	status,2,c
  6252   002EF6  EF7F  F017         	goto	u2401
  6253   002EFA  EF81  F017         	goto	u2400
  6254   002EFE                     u2401:
  6255   002EFE  EF89  F017         	goto	l2933
  6256   002F02                     u2400:
  6257   002F02  5003               	movf	fputc@fp^0,w,c
  6258   002F04  A4D8               	btfss	status,2,c
  6259   002F06  EF87  F017         	goto	u2411
  6260   002F0A  EF89  F017         	goto	u2410
  6261   002F0E                     u2411:
  6262   002F0E  EF8E  F017         	goto	l2935
  6263   002F12                     u2410:
  6264   002F12                     l2933:
  6265   002F12  5001               	movf	fputc@c^0,w,c
  6266   002F14  ECF2  F01B         	call	_putch
  6267   002F18  EFCD  F017         	goto	l1166
  6268   002F1C                     l2935:
  6269   002F1C  5003               	movf	fputc@fp^0,w,c
  6270   002F1E  6ED9               	movwf	fsr2l,c
  6271   002F20  6ADA               	clrf	fsr2h,c
  6272   002F22  0E09               	movlw	9
  6273   002F24  26D9               	addwf	fsr2l,f,c
  6274   002F26  50DE               	movf	postinc2,w,c
  6275   002F28  10DE               	iorwf	postinc2,w,c
  6276   002F2A  B4D8               	btfsc	status,2,c
  6277   002F2C  EF9A  F017         	goto	u2421
  6278   002F30  EF9C  F017         	goto	u2420
  6279   002F34                     u2421:
  6280   002F34  EFB5  F017         	goto	l2939
  6281   002F38                     u2420:
  6282   002F38  5003               	movf	fputc@fp^0,w,c
  6283   002F3A  6ED9               	movwf	fsr2l,c
  6284   002F3C  6ADA               	clrf	fsr2h,c
  6285   002F3E  0E09               	movlw	9
  6286   002F40  26D9               	addwf	fsr2l,f,c
  6287   002F42  5003               	movf	fputc@fp^0,w,c
  6288   002F44  6EE1               	movwf	fsr1l,c
  6289   002F46  6AE2               	clrf	fsr1h,c
  6290   002F48  0E02               	movlw	2
  6291   002F4A  26E1               	addwf	fsr1l,f,c
  6292   002F4C  50DE               	movf	postinc2,w,c
  6293   002F4E  5CE6               	subwf	postinc1,w,c
  6294   002F50  50E6               	movf	postinc1,w,c
  6295   002F52  0A80               	xorlw	128
  6296   002F54  6E08               	movwf	(??_fputc+4)^0,c
  6297   002F56  50DE               	movf	postinc2,w,c
  6298   002F58  0A80               	xorlw	128
  6299   002F5A  5808               	subwfb	(??_fputc+4)^0,w,c
  6300   002F5C  B0D8               	btfsc	status,0,c
  6301   002F5E  EFB3  F017         	goto	u2431
  6302   002F62  EFB5  F017         	goto	u2430
  6303   002F66                     u2431:
  6304   002F66  EFCD  F017         	goto	l1166
  6305   002F6A                     u2430:
  6306   002F6A                     l2939:
  6307   002F6A  5003               	movf	fputc@fp^0,w,c
  6308   002F6C  6ED9               	movwf	fsr2l,c
  6309   002F6E  6ADA               	clrf	fsr2h,c
  6310   002F70  0E02               	movlw	2
  6311   002F72  26D9               	addwf	fsr2l,f,c
  6312   002F74  50DF               	movf	indf2,w,c
  6313   002F76  6E04               	movwf	??_fputc^0,c
  6314   002F78  5003               	movf	fputc@fp^0,w,c
  6315   002F7A  6ED9               	movwf	fsr2l,c
  6316   002F7C  6ADA               	clrf	fsr2h,c
  6317   002F7E  50DF               	movf	indf2,w,c
  6318   002F80  2404               	addwf	??_fputc^0,w,c
  6319   002F82  6ED9               	movwf	fsr2l,c
  6320   002F84  6ADA               	clrf	fsr2h,c
  6321   002F86  C001  FFDF         	movff	fputc@c,indf2
  6322   002F8A  5003               	movf	fputc@fp^0,w,c
  6323   002F8C  6ED9               	movwf	fsr2l,c
  6324   002F8E  6ADA               	clrf	fsr2h,c
  6325   002F90  0E02               	movlw	2
  6326   002F92  26D9               	addwf	fsr2l,f,c
  6327   002F94  2ADE               	incf	postinc2,f,c
  6328   002F96  0E00               	movlw	0
  6329   002F98  22DD               	addwfc	postdec2,f,c
  6330   002F9A                     l1166:
  6331   002F9A  0012               	return		;funcret
  6332   002F9C                     __end_of_fputc:
  6333                           	callstack 0
  6334                           
  6335 ;; *************** function _putch *****************
  6336 ;; Defined at:
  6337 ;;		line 7 in file "C:\Program Files\Microchip\xc8\v3.00\pic\sources\c99\common\putch.c"
  6338 ;; Parameters:    Size  Location     Type
  6339 ;;  c               1    wreg     unsigned char 
  6340 ;; Auto vars:     Size  Location     Type
  6341 ;;  c               1    0[COMRAM] unsigned char 
  6342 ;; Return value:  Size  Location     Type
  6343 ;;                  1    wreg      void 
  6344 ;; Registers used:
  6345 ;;		wreg
  6346 ;; Tracked objects:
  6347 ;;		On entry : 0/0
  6348 ;;		On exit  : 0/0
  6349 ;;		Unchanged: 0/0
  6350 ;; Data sizes:     COMRAM   BANK0   BANK1   BANK2   BANK3   BANK4   BANK5
  6351 ;;      Params:         0       0       0       0       0       0       0
  6352 ;;      Locals:         0       0       0       0       0       0       0
  6353 ;;      Temps:          0       0       0       0       0       0       0
  6354 ;;      Totals:         0       0       0       0       0       0       0
  6355 ;;Total ram usage:        0 bytes
  6356 ;; Hardware stack levels used: 1
  6357 ;; Hardware stack levels required when called: 2
  6358 ;; This function calls:
  6359 ;;		Nothing
  6360 ;; This function is called by:
  6361 ;;		_fputc
  6362 ;; This function uses a non-reentrant model
  6363 ;;
  6364                           
  6365                           	psect	text17
  6366   0037E4                     __ptext17:
  6367                           	callstack 0
  6368   0037E4                     _putch:
  6369                           	callstack 24
  6370   0037E4  0012               	return		;funcret
  6371   0037E6                     __end_of_putch:
  6372                           	callstack 0
  6373                           
  6374 ;; *************** function _labs *****************
  6375 ;; Defined at:
  6376 ;;		line 1 in file "C:\Program Files\Microchip\xc8\v3.00\pic\sources\c99\common\labs.c"
  6377 ;; Parameters:    Size  Location     Type
  6378 ;;  a               4    0[COMRAM] long 
  6379 ;; Auto vars:     Size  Location     Type
  6380 ;;		None
  6381 ;; Return value:  Size  Location     Type
  6382 ;;                  4    0[COMRAM] long 
  6383 ;; Registers used:
  6384 ;;		wreg, status,2, status,0
  6385 ;; Tracked objects:
  6386 ;;		On entry : 0/0
  6387 ;;		On exit  : 0/0
  6388 ;;		Unchanged: 0/0
  6389 ;; Data sizes:     COMRAM   BANK0   BANK1   BANK2   BANK3   BANK4   BANK5
  6390 ;;      Params:         4       0       0       0       0       0       0
  6391 ;;      Locals:         0       0       0       0       0       0       0
  6392 ;;      Temps:          4       0       0       0       0       0       0
  6393 ;;      Totals:         8       0       0       0       0       0       0
  6394 ;;Total ram usage:        8 bytes
  6395 ;; Hardware stack levels used: 1
  6396 ;; Hardware stack levels required when called: 2
  6397 ;; This function calls:
  6398 ;;		Nothing
  6399 ;; This function is called by:
  6400 ;;		_efgtoa
  6401 ;; This function uses a non-reentrant model
  6402 ;;
  6403                           
  6404                           	psect	text18
  6405   003364                     __ptext18:
  6406                           	callstack 0
  6407   003364                     _labs:
  6408                           	callstack 24
  6409   003364  BE04               	btfsc	(labs@a+3)^0,7,c
  6410   003366  EFB7  F019         	goto	u3541
  6411   00336A  EFB9  F019         	goto	u3540
  6412   00336E                     u3541:
  6413   00336E  EFC3  F019         	goto	l3559
  6414   003372                     u3540:
  6415   003372  C001  F001         	movff	labs@a,?_labs
  6416   003376  C002  F002         	movff	labs@a+1,?_labs+1
  6417   00337A  C003  F003         	movff	labs@a+2,?_labs+2
  6418   00337E  C004  F004         	movff	labs@a+3,?_labs+3
  6419   003382  EFDC  F019         	goto	l1154
  6420   003386                     l3559:
  6421   003386  C001  F005         	movff	labs@a,??_labs
  6422   00338A  C002  F006         	movff	labs@a+1,??_labs+1
  6423   00338E  C003  F007         	movff	labs@a+2,??_labs+2
  6424   003392  C004  F008         	movff	labs@a+3,??_labs+3
  6425   003396  1E05               	comf	??_labs^0,f,c
  6426   003398  1E06               	comf	(??_labs+1)^0,f,c
  6427   00339A  1E07               	comf	(??_labs+2)^0,f,c
  6428   00339C  1E08               	comf	(??_labs+3)^0,f,c
  6429   00339E  2A05               	incf	??_labs^0,f,c
  6430   0033A0  0E00               	movlw	0
  6431   0033A2  2206               	addwfc	(??_labs+1)^0,f,c
  6432   0033A4  2207               	addwfc	(??_labs+2)^0,f,c
  6433   0033A6  2208               	addwfc	(??_labs+3)^0,f,c
  6434   0033A8  C005  F001         	movff	??_labs,?_labs
  6435   0033AC  C006  F002         	movff	??_labs+1,?_labs+1
  6436   0033B0  C007  F003         	movff	??_labs+2,?_labs+2
  6437   0033B4  C008  F004         	movff	??_labs+3,?_labs+3
  6438   0033B8                     l1154:
  6439   0033B8  0012               	return		;funcret
  6440   0033BA                     __end_of_labs:
  6441                           	callstack 0
  6442                           
  6443 ;; *************** function _floorf *****************
  6444 ;; Defined at:
  6445 ;;		line 3 in file "C:\Program Files\Microchip\xc8\v3.00\pic\sources\c99\common\floorf.c"
  6446 ;; Parameters:    Size  Location     Type
  6447 ;;  x               4   39[COMRAM] float 
  6448 ;; Auto vars:     Size  Location     Type
  6449 ;;  u               4   55[COMRAM] struct .
  6450 ;;  m               4   49[COMRAM] unsigned long 
  6451 ;;  e               2   53[COMRAM] int 
  6452 ;; Return value:  Size  Location     Type
  6453 ;;                  4   39[COMRAM] float 
  6454 ;; Registers used:
  6455 ;;		wreg, status,2, status,0
  6456 ;; Tracked objects:
  6457 ;;		On entry : 0/0
  6458 ;;		On exit  : 0/0
  6459 ;;		Unchanged: 0/0
  6460 ;; Data sizes:     COMRAM   BANK0   BANK1   BANK2   BANK3   BANK4   BANK5
  6461 ;;      Params:         4       0       0       0       0       0       0
  6462 ;;      Locals:        10       0       0       0       0       0       0
  6463 ;;      Temps:          6       0       0       0       0       0       0
  6464 ;;      Totals:        20       0       0       0       0       0       0
  6465 ;;Total ram usage:       20 bytes
  6466 ;; Hardware stack levels used: 1
  6467 ;; Hardware stack levels required when called: 2
  6468 ;; This function calls:
  6469 ;;		Nothing
  6470 ;; This function is called by:
  6471 ;;		_efgtoa
  6472 ;; This function uses a non-reentrant model
  6473 ;;
  6474                           
  6475                           	psect	text19
  6476   001E98                     __ptext19:
  6477                           	callstack 0
  6478   001E98                     _floorf:
  6479                           	callstack 24
  6480   001E98  C0BB  F038         	movff	floorf@F521,floorf@u
  6481   001E9C  C0BC  F039         	movff	floorf@F521+1,floorf@u+1
  6482   001EA0  C0BD  F03A         	movff	floorf@F521+2,floorf@u+2
  6483   001EA4  C0BE  F03B         	movff	floorf@F521+3,floorf@u+3
  6484   001EA8  C028  F038         	movff	floorf@x,floorf@u
  6485   001EAC  C029  F039         	movff	floorf@x+1,floorf@u+1
  6486   001EB0  C02A  F03A         	movff	floorf@x+2,floorf@u+2
  6487   001EB4  C02B  F03B         	movff	floorf@x+3,floorf@u+3
  6488   001EB8  0E81               	movlw	129
  6489   001EBA  6E2C               	movwf	??_floorf^0,c
  6490   001EBC  0EFF               	movlw	255
  6491   001EBE  6E2D               	movwf	(??_floorf+1)^0,c
  6492   001EC0  C038  F02E         	movff	floorf@u,??_floorf+2
  6493   001EC4  C039  F02F         	movff	floorf@u+1,??_floorf+3
  6494   001EC8  C03A  F030         	movff	floorf@u+2,??_floorf+4
  6495   001ECC  C03B  F031         	movff	floorf@u+3,??_floorf+5
  6496   001ED0  0E18               	movlw	24
  6497   001ED2  EF70  F00F         	goto	u3550
  6498   001ED6                     u3555:
  6499   001ED6  90D8               	bcf	status,0,c
  6500   001ED8  3231               	rrcf	(??_floorf+5)^0,f,c
  6501   001EDA  3230               	rrcf	(??_floorf+4)^0,f,c
  6502   001EDC  322F               	rrcf	(??_floorf+3)^0,f,c
  6503   001EDE  322E               	rrcf	(??_floorf+2)^0,f,c
  6504   001EE0                     u3550:
  6505   001EE0  2EE8               	decfsz	wreg,f,c
  6506   001EE2  EF6B  F00F         	goto	u3555
  6507   001EE6  502E               	movf	(??_floorf+2)^0,w,c
  6508   001EE8  242C               	addwf	??_floorf^0,w,c
  6509   001EEA  6E36               	movwf	floorf@e^0,c
  6510   001EEC  0E00               	movlw	0
  6511   001EEE  202D               	addwfc	(??_floorf+1)^0,w,c
  6512   001EF0  6E37               	movwf	(floorf@e+1)^0,c
  6513   001EF2  BE37               	btfsc	(floorf@e+1)^0,7,c
  6514   001EF4  EF85  F00F         	goto	u3561
  6515   001EF8  5037               	movf	(floorf@e+1)^0,w,c
  6516   001EFA  E109               	bnz	u3560
  6517   001EFC  0E17               	movlw	23
  6518   001EFE  5C36               	subwf	floorf@e^0,w,c
  6519   001F00  A0D8               	btfss	status,0,c
  6520   001F02  EF85  F00F         	goto	u3561
  6521   001F06  EF87  F00F         	goto	u3560
  6522   001F0A                     u3561:
  6523   001F0A  EF91  F00F         	goto	l3569
  6524   001F0E                     u3560:
  6525   001F0E                     l3567:
  6526   001F0E  C028  F028         	movff	floorf@x,?_floorf
  6527   001F12  C029  F029         	movff	floorf@x+1,?_floorf+1
  6528   001F16  C02A  F02A         	movff	floorf@x+2,?_floorf+2
  6529   001F1A  C02B  F02B         	movff	floorf@x+3,?_floorf+3
  6530   001F1E  EF54  F010         	goto	l1140
  6531   001F22                     l3569:
  6532   001F22  BE37               	btfsc	(floorf@e+1)^0,7,c
  6533   001F24  EF96  F00F         	goto	u3571
  6534   001F28  EF98  F00F         	goto	u3570
  6535   001F2C                     u3571:
  6536   001F2C  EF08  F010         	goto	l3579
  6537   001F30                     u3570:
  6538   001F30  C036  F02C         	movff	floorf@e,??_floorf
  6539   001F34  0EFF               	movlw	255
  6540   001F36  6E2D               	movwf	(??_floorf+1)^0,c
  6541   001F38  0EFF               	movlw	255
  6542   001F3A  6E2E               	movwf	(??_floorf+2)^0,c
  6543   001F3C  0E7F               	movlw	127
  6544   001F3E  6E2F               	movwf	(??_floorf+3)^0,c
  6545   001F40  0E00               	movlw	0
  6546   001F42  6E30               	movwf	(??_floorf+4)^0,c
  6547   001F44                     u3585:
  6548   001F44  662C               	tstfsz	??_floorf^0,c
  6549   001F46  EFA7  F00F         	goto	u3586
  6550   001F4A  EFAF  F00F         	goto	u3587
  6551   001F4E                     u3586:
  6552   001F4E  3430               	rlcf	(??_floorf+4)^0,w,c
  6553   001F50  3230               	rrcf	(??_floorf+4)^0,f,c
  6554   001F52  322F               	rrcf	(??_floorf+3)^0,f,c
  6555   001F54  322E               	rrcf	(??_floorf+2)^0,f,c
  6556   001F56  322D               	rrcf	(??_floorf+1)^0,f,c
  6557   001F58  2E2C               	decfsz	??_floorf^0,f,c
  6558   001F5A  EFA2  F00F         	goto	u3585
  6559   001F5E                     u3587:
  6560   001F5E  C02D  F032         	movff	??_floorf+1,floorf@m
  6561   001F62  C02E  F033         	movff	??_floorf+2,floorf@m+1
  6562   001F66  C02F  F034         	movff	??_floorf+3,floorf@m+2
  6563   001F6A  C030  F035         	movff	??_floorf+4,floorf@m+3
  6564   001F6E  5032               	movf	floorf@m^0,w,c
  6565   001F70  1438               	andwf	floorf@u^0,w,c
  6566   001F72  6E2C               	movwf	??_floorf^0,c
  6567   001F74  5033               	movf	(floorf@m+1)^0,w,c
  6568   001F76  1439               	andwf	(floorf@u+1)^0,w,c
  6569   001F78  6E2D               	movwf	(??_floorf+1)^0,c
  6570   001F7A  5034               	movf	(floorf@m+2)^0,w,c
  6571   001F7C  143A               	andwf	(floorf@u+2)^0,w,c
  6572   001F7E  6E2E               	movwf	(??_floorf+2)^0,c
  6573   001F80  5035               	movf	(floorf@m+3)^0,w,c
  6574   001F82  143B               	andwf	(floorf@u+3)^0,w,c
  6575   001F84  6E2F               	movwf	(??_floorf+3)^0,c
  6576   001F86  502C               	movf	??_floorf^0,w,c
  6577   001F88  102D               	iorwf	(??_floorf+1)^0,w,c
  6578   001F8A  102E               	iorwf	(??_floorf+2)^0,w,c
  6579   001F8C  102F               	iorwf	(??_floorf+3)^0,w,c
  6580   001F8E  A4D8               	btfss	status,2,c
  6581   001F90  EFCC  F00F         	goto	u3591
  6582   001F94  EFCE  F00F         	goto	u3590
  6583   001F98                     u3591:
  6584   001F98  EFD0  F00F         	goto	l3575
  6585   001F9C                     u3590:
  6586   001F9C  EF87  F00F         	goto	l3567
  6587   001FA0                     l3575:
  6588   001FA0  C038  F02C         	movff	floorf@u,??_floorf
  6589   001FA4  C039  F02D         	movff	floorf@u+1,??_floorf+1
  6590   001FA8  C03A  F02E         	movff	floorf@u+2,??_floorf+2
  6591   001FAC  C03B  F02F         	movff	floorf@u+3,??_floorf+3
  6592   001FB0  0E20               	movlw	32
  6593   001FB2  EFE0  F00F         	goto	u3600
  6594   001FB6                     u3605:
  6595   001FB6  90D8               	bcf	status,0,c
  6596   001FB8  322F               	rrcf	(??_floorf+3)^0,f,c
  6597   001FBA  322E               	rrcf	(??_floorf+2)^0,f,c
  6598   001FBC  322D               	rrcf	(??_floorf+1)^0,f,c
  6599   001FBE  322C               	rrcf	??_floorf^0,f,c
  6600   001FC0                     u3600:
  6601   001FC0  2EE8               	decfsz	wreg,f,c
  6602   001FC2  EFDB  F00F         	goto	u3605
  6603   001FC6  502C               	movf	??_floorf^0,w,c
  6604   001FC8  102D               	iorwf	(??_floorf+1)^0,w,c
  6605   001FCA  102E               	iorwf	(??_floorf+2)^0,w,c
  6606   001FCC  102F               	iorwf	(??_floorf+3)^0,w,c
  6607   001FCE  B4D8               	btfsc	status,2,c
  6608   001FD0  EFEC  F00F         	goto	u3611
  6609   001FD4  EFEE  F00F         	goto	u3610
  6610   001FD8                     u3611:
  6611   001FD8  EFF6  F00F         	goto	l1143
  6612   001FDC                     u3610:
  6613   001FDC  5032               	movf	floorf@m^0,w,c
  6614   001FDE  2638               	addwf	floorf@u^0,f,c
  6615   001FE0  5033               	movf	(floorf@m+1)^0,w,c
  6616   001FE2  2239               	addwfc	(floorf@u+1)^0,f,c
  6617   001FE4  5034               	movf	(floorf@m+2)^0,w,c
  6618   001FE6  223A               	addwfc	(floorf@u+2)^0,f,c
  6619   001FE8  5035               	movf	(floorf@m+3)^0,w,c
  6620   001FEA  223B               	addwfc	(floorf@u+3)^0,f,c
  6621   001FEC                     l1143:
  6622   001FEC  1C32               	comf	floorf@m^0,w,c
  6623   001FEE  6E2C               	movwf	??_floorf^0,c
  6624   001FF0  1C33               	comf	(floorf@m+1)^0,w,c
  6625   001FF2  6E2D               	movwf	(??_floorf+1)^0,c
  6626   001FF4  1C34               	comf	(floorf@m+2)^0,w,c
  6627   001FF6  6E2E               	movwf	(??_floorf+2)^0,c
  6628   001FF8  1C35               	comf	(floorf@m+3)^0,w,c
  6629   001FFA  6E2F               	movwf	(??_floorf+3)^0,c
  6630   001FFC  502C               	movf	??_floorf^0,w,c
  6631   001FFE  1638               	andwf	floorf@u^0,f,c
  6632   002000  502D               	movf	(??_floorf+1)^0,w,c
  6633   002002  1639               	andwf	(floorf@u+1)^0,f,c
  6634   002004  502E               	movf	(??_floorf+2)^0,w,c
  6635   002006  163A               	andwf	(floorf@u+2)^0,f,c
  6636   002008  502F               	movf	(??_floorf+3)^0,w,c
  6637   00200A  163B               	andwf	(floorf@u+3)^0,f,c
  6638   00200C  EF4C  F010         	goto	l3587
  6639   002010                     l3579:
  6640   002010  C038  F02C         	movff	floorf@u,??_floorf
  6641   002014  C039  F02D         	movff	floorf@u+1,??_floorf+1
  6642   002018  C03A  F02E         	movff	floorf@u+2,??_floorf+2
  6643   00201C  C03B  F02F         	movff	floorf@u+3,??_floorf+3
  6644   002020  0E20               	movlw	32
  6645   002022  EF18  F010         	goto	u3620
  6646   002026                     u3625:
  6647   002026  90D8               	bcf	status,0,c
  6648   002028  322F               	rrcf	(??_floorf+3)^0,f,c
  6649   00202A  322E               	rrcf	(??_floorf+2)^0,f,c
  6650   00202C  322D               	rrcf	(??_floorf+1)^0,f,c
  6651   00202E  322C               	rrcf	??_floorf^0,f,c
  6652   002030                     u3620:
  6653   002030  2EE8               	decfsz	wreg,f,c
  6654   002032  EF13  F010         	goto	u3625
  6655   002036  502C               	movf	??_floorf^0,w,c
  6656   002038  102D               	iorwf	(??_floorf+1)^0,w,c
  6657   00203A  102E               	iorwf	(??_floorf+2)^0,w,c
  6658   00203C  102F               	iorwf	(??_floorf+3)^0,w,c
  6659   00203E  A4D8               	btfss	status,2,c
  6660   002040  EF24  F010         	goto	u3631
  6661   002044  EF26  F010         	goto	u3630
  6662   002048                     u3631:
  6663   002048  EF30  F010         	goto	l3583
  6664   00204C                     u3630:
  6665   00204C  0E00               	movlw	0
  6666   00204E  6E38               	movwf	floorf@u^0,c
  6667   002050  0E00               	movlw	0
  6668   002052  6E39               	movwf	(floorf@u+1)^0,c
  6669   002054  0E00               	movlw	0
  6670   002056  6E3A               	movwf	(floorf@u+2)^0,c
  6671   002058  0E00               	movlw	0
  6672   00205A  6E3B               	movwf	(floorf@u+3)^0,c
  6673   00205C  EF4C  F010         	goto	l3587
  6674   002060                     l3583:
  6675   002060  90D8               	bcf	status,0,c
  6676   002062  3438               	rlcf	floorf@u^0,w,c
  6677   002064  6E2C               	movwf	??_floorf^0,c
  6678   002066  3439               	rlcf	(floorf@u+1)^0,w,c
  6679   002068  6E2D               	movwf	(??_floorf+1)^0,c
  6680   00206A  343A               	rlcf	(floorf@u+2)^0,w,c
  6681   00206C  6E2E               	movwf	(??_floorf+2)^0,c
  6682   00206E  343B               	rlcf	(floorf@u+3)^0,w,c
  6683   002070  6E2F               	movwf	(??_floorf+3)^0,c
  6684   002072  502C               	movf	??_floorf^0,w,c
  6685   002074  102D               	iorwf	(??_floorf+1)^0,w,c
  6686   002076  102E               	iorwf	(??_floorf+2)^0,w,c
  6687   002078  102F               	iorwf	(??_floorf+3)^0,w,c
  6688   00207A  B4D8               	btfsc	status,2,c
  6689   00207C  EF42  F010         	goto	u3641
  6690   002080  EF44  F010         	goto	u3640
  6691   002084                     u3641:
  6692   002084  EF4C  F010         	goto	l3587
  6693   002088                     u3640:
  6694   002088  0E00               	movlw	0
  6695   00208A  6E38               	movwf	floorf@u^0,c
  6696   00208C  0E00               	movlw	0
  6697   00208E  6E39               	movwf	(floorf@u+1)^0,c
  6698   002090  0E80               	movlw	128
  6699   002092  6E3A               	movwf	(floorf@u+2)^0,c
  6700   002094  0EBF               	movlw	191
  6701   002096  6E3B               	movwf	(floorf@u+3)^0,c
  6702   002098                     l3587:
  6703   002098  C038  F028         	movff	floorf@u,?_floorf
  6704   00209C  C039  F029         	movff	floorf@u+1,?_floorf+1
  6705   0020A0  C03A  F02A         	movff	floorf@u+2,?_floorf+2
  6706   0020A4  C03B  F02B         	movff	floorf@u+3,?_floorf+3
  6707   0020A8                     l1140:
  6708   0020A8  0012               	return		;funcret
  6709   0020AA                     __end_of_floorf:
  6710                           	callstack 0
  6711                           
  6712 ;; *************** function ___fpclassifyf *****************
  6713 ;; Defined at:
  6714 ;;		line 4 in file "C:\Program Files\Microchip\xc8\v3.00\pic\sources\c99\common\__fpclassifyf.c"
  6715 ;; Parameters:    Size  Location     Type
  6716 ;;  x               4    0[COMRAM] float 
  6717 ;; Auto vars:     Size  Location     Type
  6718 ;;  u               4   10[COMRAM] struct .
  6719 ;;  e               2    8[COMRAM] int 
  6720 ;; Return value:  Size  Location     Type
  6721 ;;                  2    0[COMRAM] int 
  6722 ;; Registers used:
  6723 ;;		wreg, status,2, status,0
  6724 ;; Tracked objects:
  6725 ;;		On entry : 0/0
  6726 ;;		On exit  : 0/0
  6727 ;;		Unchanged: 0/0
  6728 ;; Data sizes:     COMRAM   BANK0   BANK1   BANK2   BANK3   BANK4   BANK5
  6729 ;;      Params:         4       0       0       0       0       0       0
  6730 ;;      Locals:         6       0       0       0       0       0       0
  6731 ;;      Temps:          4       0       0       0       0       0       0
  6732 ;;      Totals:        14       0       0       0       0       0       0
  6733 ;;Total ram usage:       14 bytes
  6734 ;; Hardware stack levels used: 1
  6735 ;; Hardware stack levels required when called: 2
  6736 ;; This function calls:
  6737 ;;		Nothing
  6738 ;; This function is called by:
  6739 ;;		_efgtoa
  6740 ;; This function uses a non-reentrant model
  6741 ;;
  6742                           
  6743                           	psect	text20
  6744   0029CA                     __ptext20:
  6745                           	callstack 0
  6746   0029CA                     ___fpclassifyf:
  6747                           	callstack 24
  6748   0029CA  C0BF  F00B         	movff	___fpclassifyf@F465,___fpclassifyf@u
  6749   0029CE  C0C0  F00C         	movff	___fpclassifyf@F465+1,___fpclassifyf@u+1
  6750   0029D2  C0C1  F00D         	movff	___fpclassifyf@F465+2,___fpclassifyf@u+2
  6751   0029D6  C0C2  F00E         	movff	___fpclassifyf@F465+3,___fpclassifyf@u+3
  6752   0029DA  C001  F00B         	movff	___fpclassifyf@x,___fpclassifyf@u
  6753   0029DE  C002  F00C         	movff	___fpclassifyf@x+1,___fpclassifyf@u+1
  6754   0029E2  C003  F00D         	movff	___fpclassifyf@x+2,___fpclassifyf@u+2
  6755   0029E6  C004  F00E         	movff	___fpclassifyf@x+3,___fpclassifyf@u+3
  6756   0029EA  C00B  F005         	movff	___fpclassifyf@u,??___fpclassifyf
  6757   0029EE  C00C  F006         	movff	___fpclassifyf@u+1,??___fpclassifyf+1
  6758   0029F2  C00D  F007         	movff	___fpclassifyf@u+2,??___fpclassifyf+2
  6759   0029F6  C00E  F008         	movff	___fpclassifyf@u+3,??___fpclassifyf+3
  6760   0029FA  0E18               	movlw	24
  6761   0029FC  EF05  F015         	goto	u3460
  6762   002A00                     u3465:
  6763   002A00  90D8               	bcf	status,0,c
  6764   002A02  3208               	rrcf	(??___fpclassifyf+3)^0,f,c
  6765   002A04  3207               	rrcf	(??___fpclassifyf+2)^0,f,c
  6766   002A06  3206               	rrcf	(??___fpclassifyf+1)^0,f,c
  6767   002A08  3205               	rrcf	??___fpclassifyf^0,f,c
  6768   002A0A                     u3460:
  6769   002A0A  2EE8               	decfsz	wreg,f,c
  6770   002A0C  EF00  F015         	goto	u3465
  6771   002A10  5005               	movf	??___fpclassifyf^0,w,c
  6772   002A12  6E09               	movwf	___fpclassifyf@e^0,c
  6773   002A14  6A0A               	clrf	(___fpclassifyf@e+1)^0,c
  6774   002A16  5009               	movf	___fpclassifyf@e^0,w,c
  6775   002A18  100A               	iorwf	(___fpclassifyf@e+1)^0,w,c
  6776   002A1A  A4D8               	btfss	status,2,c
  6777   002A1C  EF12  F015         	goto	u3471
  6778   002A20  EF14  F015         	goto	u3470
  6779   002A24                     u3471:
  6780   002A24  EF34  F015         	goto	l3541
  6781   002A28                     u3470:
  6782   002A28  90D8               	bcf	status,0,c
  6783   002A2A  340B               	rlcf	___fpclassifyf@u^0,w,c
  6784   002A2C  6E05               	movwf	??___fpclassifyf^0,c
  6785   002A2E  340C               	rlcf	(___fpclassifyf@u+1)^0,w,c
  6786   002A30  6E06               	movwf	(??___fpclassifyf+1)^0,c
  6787   002A32  340D               	rlcf	(___fpclassifyf@u+2)^0,w,c
  6788   002A34  6E07               	movwf	(??___fpclassifyf+2)^0,c
  6789   002A36  340E               	rlcf	(___fpclassifyf@u+3)^0,w,c
  6790   002A38  6E08               	movwf	(??___fpclassifyf+3)^0,c
  6791   002A3A  5005               	movf	??___fpclassifyf^0,w,c
  6792   002A3C  1006               	iorwf	(??___fpclassifyf+1)^0,w,c
  6793   002A3E  1007               	iorwf	(??___fpclassifyf+2)^0,w,c
  6794   002A40  1008               	iorwf	(??___fpclassifyf+3)^0,w,c
  6795   002A42  A4D8               	btfss	status,2,c
  6796   002A44  EF26  F015         	goto	u3481
  6797   002A48  EF28  F015         	goto	u3480
  6798   002A4C                     u3481:
  6799   002A4C  EF2E  F015         	goto	l3537
  6800   002A50                     u3480:
  6801   002A50  0E00               	movlw	0
  6802   002A52  6E02               	movwf	(?___fpclassifyf+1)^0,c
  6803   002A54  0E02               	movlw	2
  6804   002A56  6E01               	movwf	?___fpclassifyf^0,c
  6805   002A58  EF63  F015         	goto	l1133
  6806   002A5C                     l3537:
  6807   002A5C  0E00               	movlw	0
  6808   002A5E  6E02               	movwf	(?___fpclassifyf+1)^0,c
  6809   002A60  0E03               	movlw	3
  6810   002A62  6E01               	movwf	?___fpclassifyf^0,c
  6811   002A64  EF63  F015         	goto	l1133
  6812   002A68                     l3541:
  6813   002A68  2809               	incf	___fpclassifyf@e^0,w,c
  6814   002A6A  100A               	iorwf	(___fpclassifyf@e+1)^0,w,c
  6815   002A6C  A4D8               	btfss	status,2,c
  6816   002A6E  EF3B  F015         	goto	u3491
  6817   002A72  EF3D  F015         	goto	u3490
  6818   002A76                     u3491:
  6819   002A76  EF5F  F015         	goto	l3547
  6820   002A7A                     u3490:
  6821   002A7A  C00B  F005         	movff	___fpclassifyf@u,??___fpclassifyf
  6822   002A7E  C00C  F006         	movff	___fpclassifyf@u+1,??___fpclassifyf+1
  6823   002A82  C00D  F007         	movff	___fpclassifyf@u+2,??___fpclassifyf+2
  6824   002A86  C00E  F008         	movff	___fpclassifyf@u+3,??___fpclassifyf+3
  6825   002A8A  0E09               	movlw	9
  6826   002A8C                     u3505:
  6827   002A8C  90D8               	bcf	status,0,c
  6828   002A8E  3605               	rlcf	??___fpclassifyf^0,f,c
  6829   002A90  3606               	rlcf	(??___fpclassifyf+1)^0,f,c
  6830   002A92  3607               	rlcf	(??___fpclassifyf+2)^0,f,c
  6831   002A94  3608               	rlcf	(??___fpclassifyf+3)^0,f,c
  6832   002A96  2EE8               	decfsz	wreg,f,c
  6833   002A98  EF46  F015         	goto	u3505
  6834   002A9C  5005               	movf	??___fpclassifyf^0,w,c
  6835   002A9E  1006               	iorwf	(??___fpclassifyf+1)^0,w,c
  6836   002AA0  1007               	iorwf	(??___fpclassifyf+2)^0,w,c
  6837   002AA2  1008               	iorwf	(??___fpclassifyf+3)^0,w,c
  6838   002AA4  B4D8               	btfsc	status,2,c
  6839   002AA6  EF57  F015         	goto	u3511
  6840   002AAA  EF5A  F015         	goto	u3510
  6841   002AAE                     u3511:
  6842   002AAE  0E01               	movlw	1
  6843   002AB0  EF5B  F015         	goto	u3520
  6844   002AB4                     u3510:
  6845   002AB4  0E00               	movlw	0
  6846   002AB6                     u3520:
  6847   002AB6  6E01               	movwf	?___fpclassifyf^0,c
  6848   002AB8  6A02               	clrf	(?___fpclassifyf+1)^0,c
  6849   002ABA  EF63  F015         	goto	l1133
  6850   002ABE                     l3547:
  6851   002ABE  0E00               	movlw	0
  6852   002AC0  6E02               	movwf	(?___fpclassifyf+1)^0,c
  6853   002AC2  0E04               	movlw	4
  6854   002AC4  6E01               	movwf	?___fpclassifyf^0,c
  6855   002AC6                     l1133:
  6856   002AC6  0012               	return		;funcret
  6857   002AC8                     __end_of___fpclassifyf:
  6858                           	callstack 0
  6859                           
  6860 ;; *************** function ___flsub *****************
  6861 ;; Defined at:
  6862 ;;		line 245 in file "C:\Program Files\Microchip\xc8\v3.00\pic\sources\c99\common\sprcadd.c"
  6863 ;; Parameters:    Size  Location     Type
  6864 ;;  b               4   55[COMRAM] int 
  6865 ;;  a               4   59[COMRAM] int 
  6866 ;; Auto vars:     Size  Location     Type
  6867 ;;		None
  6868 ;; Return value:  Size  Location     Type
  6869 ;;                  4   55[COMRAM] int 
  6870 ;; Registers used:
  6871 ;;		wreg, status,2, status,0, cstack
  6872 ;; Tracked objects:
  6873 ;;		On entry : 0/0
  6874 ;;		On exit  : 0/0
  6875 ;;		Unchanged: 0/0
  6876 ;; Data sizes:     COMRAM   BANK0   BANK1   BANK2   BANK3   BANK4   BANK5
  6877 ;;      Params:         8       0       0       0       0       0       0
  6878 ;;      Locals:         0       0       0       0       0       0       0
  6879 ;;      Temps:          0       0       0       0       0       0       0
  6880 ;;      Totals:         8       0       0       0       0       0       0
  6881 ;;Total ram usage:        8 bytes
  6882 ;; Hardware stack levels used: 1
  6883 ;; Hardware stack levels required when called: 3
  6884 ;; This function calls:
  6885 ;;		___fladd
  6886 ;; This function is called by:
  6887 ;;		_updateYaw
  6888 ;;		_efgtoa
  6889 ;; This function uses a non-reentrant model
  6890 ;;
  6891                           
  6892                           	psect	text21
  6893   00340E                     __ptext21:
  6894                           	callstack 0
  6895   00340E                     ___flsub:
  6896                           	callstack 26
  6897   00340E  0E00               	movlw	0
  6898   003410  1A3C               	xorwf	___flsub@a^0,f,c
  6899   003412  0E00               	movlw	0
  6900   003414  1A3D               	xorwf	(___flsub@a+1)^0,f,c
  6901   003416  0E00               	movlw	0
  6902   003418  1A3E               	xorwf	(___flsub@a+2)^0,f,c
  6903   00341A  0E80               	movlw	128
  6904   00341C  1A3F               	xorwf	(___flsub@a+3)^0,f,c
  6905   00341E  C038  F028         	movff	___flsub@b,___fladd@b
  6906   003422  C039  F029         	movff	___flsub@b+1,___fladd@b+1
  6907   003426  C03A  F02A         	movff	___flsub@b+2,___fladd@b+2
  6908   00342A  C03B  F02B         	movff	___flsub@b+3,___fladd@b+3
  6909   00342E  C03C  F02C         	movff	___flsub@a,___fladd@a
  6910   003432  C03D  F02D         	movff	___flsub@a+1,___fladd@a+1
  6911   003436  C03E  F02E         	movff	___flsub@a+2,___fladd@a+2
  6912   00343A  C03F  F02F         	movff	___flsub@a+3,___fladd@a+3
  6913   00343E  ECFF  F004         	call	___fladd	;wreg free
  6914   003442  C028  F038         	movff	?___fladd,?___flsub
  6915   003446  C029  F039         	movff	?___fladd+1,?___flsub+1
  6916   00344A  C02A  F03A         	movff	?___fladd+2,?___flsub+2
  6917   00344E  C02B  F03B         	movff	?___fladd+3,?___flsub+3
  6918   003452  0012               	return		;funcret
  6919   003454                     __end_of___flsub:
  6920                           	callstack 0
  6921                           
  6922 ;; *************** function ___fladd *****************
  6923 ;; Defined at:
  6924 ;;		line 10 in file "C:\Program Files\Microchip\xc8\v3.00\pic\sources\c99\common\sprcadd.c"
  6925 ;; Parameters:    Size  Location     Type
  6926 ;;  b               4   39[COMRAM] int 
  6927 ;;  a               4   43[COMRAM] int 
  6928 ;; Auto vars:     Size  Location     Type
  6929 ;;  grs             1   54[COMRAM] unsigned char 
  6930 ;;  bexp            1   53[COMRAM] unsigned char 
  6931 ;;  aexp            1   52[COMRAM] unsigned char 
  6932 ;;  signs           1   51[COMRAM] unsigned char 
  6933 ;; Return value:  Size  Location     Type
  6934 ;;                  4   39[COMRAM] unsigned char 
  6935 ;; Registers used:
  6936 ;;		wreg, status,2, status,0
  6937 ;; Tracked objects:
  6938 ;;		On entry : 0/0
  6939 ;;		On exit  : 0/0
  6940 ;;		Unchanged: 0/0
  6941 ;; Data sizes:     COMRAM   BANK0   BANK1   BANK2   BANK3   BANK4   BANK5
  6942 ;;      Params:         8       0       0       0       0       0       0
  6943 ;;      Locals:         4       0       0       0       0       0       0
  6944 ;;      Temps:          4       0       0       0       0       0       0
  6945 ;;      Totals:        16       0       0       0       0       0       0
  6946 ;;Total ram usage:       16 bytes
  6947 ;; Hardware stack levels used: 1
  6948 ;; Hardware stack levels required when called: 2
  6949 ;; This function calls:
  6950 ;;		Nothing
  6951 ;; This function is called by:
  6952 ;;		_updateYaw
  6953 ;;		___flsub
  6954 ;;		_efgtoa
  6955 ;; This function uses a non-reentrant model
  6956 ;;
  6957                           
  6958                           	psect	text22
  6959   0009FE                     __ptext22:
  6960                           	callstack 0
  6961   0009FE                     ___fladd:
  6962                           	callstack 26
  6963   0009FE  502B               	movf	(___fladd@b+3)^0,w,c
  6964   000A00  0B80               	andlw	128
  6965   000A02  6E34               	movwf	___fladd@signs^0,c
  6966   000A04  502B               	movf	(___fladd@b+3)^0,w,c
  6967   000A06  242B               	addwf	(___fladd@b+3)^0,w,c
  6968   000A08  6E36               	movwf	___fladd@bexp^0,c
  6969   000A0A  AE2A               	btfss	(___fladd@b+2)^0,7,c
  6970   000A0C  EF0A  F005         	goto	u2441
  6971   000A10  EF0C  F005         	goto	u2440
  6972   000A14                     u2441:
  6973   000A14  EF0D  F005         	goto	l2949
  6974   000A18                     u2440:
  6975   000A18  8036               	bsf	___fladd@bexp^0,0,c
  6976   000A1A                     l2949:
  6977   000A1A  5036               	movf	___fladd@bexp^0,w,c
  6978   000A1C  B4D8               	btfsc	status,2,c
  6979   000A1E  EF13  F005         	goto	u2451
  6980   000A22  EF15  F005         	goto	u2450
  6981   000A26                     u2451:
  6982   000A26  EF29  F005         	goto	l2959
  6983   000A2A                     u2450:
  6984   000A2A  2836               	incf	___fladd@bexp^0,w,c
  6985   000A2C  A4D8               	btfss	status,2,c
  6986   000A2E  EF1B  F005         	goto	u2461
  6987   000A32  EF1D  F005         	goto	u2460
  6988   000A36                     u2461:
  6989   000A36  EF25  F005         	goto	l2955
  6990   000A3A                     u2460:
  6991   000A3A  0E00               	movlw	0
  6992   000A3C  6E28               	movwf	___fladd@b^0,c
  6993   000A3E  0E00               	movlw	0
  6994   000A40  6E29               	movwf	(___fladd@b+1)^0,c
  6995   000A42  0E00               	movlw	0
  6996   000A44  6E2A               	movwf	(___fladd@b+2)^0,c
  6997   000A46  0E00               	movlw	0
  6998   000A48  6E2B               	movwf	(___fladd@b+3)^0,c
  6999   000A4A                     l2955:
  7000   000A4A  8E2A               	bsf	(___fladd@b+2)^0,7,c
  7001   000A4C  6A2B               	clrf	(___fladd@b+3)^0,c
  7002   000A4E  EF31  F005         	goto	l2961
  7003   000A52                     l2959:
  7004   000A52  0E00               	movlw	0
  7005   000A54  6E28               	movwf	___fladd@b^0,c
  7006   000A56  0E00               	movlw	0
  7007   000A58  6E29               	movwf	(___fladd@b+1)^0,c
  7008   000A5A  0E00               	movlw	0
  7009   000A5C  6E2A               	movwf	(___fladd@b+2)^0,c
  7010   000A5E  0E00               	movlw	0
  7011   000A60  6E2B               	movwf	(___fladd@b+3)^0,c
  7012   000A62                     l2961:
  7013   000A62  502F               	movf	(___fladd@a+3)^0,w,c
  7014   000A64  0B80               	andlw	128
  7015   000A66  6E35               	movwf	___fladd@aexp^0,c
  7016   000A68  5034               	movf	___fladd@signs^0,w,c
  7017   000A6A  1835               	xorwf	___fladd@aexp^0,w,c
  7018   000A6C  B4D8               	btfsc	status,2,c
  7019   000A6E  EF3B  F005         	goto	u2471
  7020   000A72  EF3D  F005         	goto	u2470
  7021   000A76                     u2471:
  7022   000A76  EF3E  F005         	goto	l2967
  7023   000A7A                     u2470:
  7024   000A7A  8C34               	bsf	___fladd@signs^0,6,c
  7025   000A7C                     l2967:
  7026   000A7C  502F               	movf	(___fladd@a+3)^0,w,c
  7027   000A7E  242F               	addwf	(___fladd@a+3)^0,w,c
  7028   000A80  6E35               	movwf	___fladd@aexp^0,c
  7029   000A82  AE2E               	btfss	(___fladd@a+2)^0,7,c
  7030   000A84  EF46  F005         	goto	u2481
  7031   000A88  EF48  F005         	goto	u2480
  7032   000A8C                     u2481:
  7033   000A8C  EF49  F005         	goto	l2973
  7034   000A90                     u2480:
  7035   000A90  8035               	bsf	___fladd@aexp^0,0,c
  7036   000A92                     l2973:
  7037   000A92  5035               	movf	___fladd@aexp^0,w,c
  7038   000A94  B4D8               	btfsc	status,2,c
  7039   000A96  EF4F  F005         	goto	u2491
  7040   000A9A  EF51  F005         	goto	u2490
  7041   000A9E                     u2491:
  7042   000A9E  EF65  F005         	goto	l2983
  7043   000AA2                     u2490:
  7044   000AA2  2835               	incf	___fladd@aexp^0,w,c
  7045   000AA4  A4D8               	btfss	status,2,c
  7046   000AA6  EF57  F005         	goto	u2501
  7047   000AAA  EF59  F005         	goto	u2500
  7048   000AAE                     u2501:
  7049   000AAE  EF61  F005         	goto	l2979
  7050   000AB2                     u2500:
  7051   000AB2  0E00               	movlw	0
  7052   000AB4  6E2C               	movwf	___fladd@a^0,c
  7053   000AB6  0E00               	movlw	0
  7054   000AB8  6E2D               	movwf	(___fladd@a+1)^0,c
  7055   000ABA  0E00               	movlw	0
  7056   000ABC  6E2E               	movwf	(___fladd@a+2)^0,c
  7057   000ABE  0E00               	movlw	0
  7058   000AC0  6E2F               	movwf	(___fladd@a+3)^0,c
  7059   000AC2                     l2979:
  7060   000AC2  8E2E               	bsf	(___fladd@a+2)^0,7,c
  7061   000AC4  6A2F               	clrf	(___fladd@a+3)^0,c
  7062   000AC6  EF6D  F005         	goto	l2985
  7063   000ACA                     l2983:
  7064   000ACA  0E00               	movlw	0
  7065   000ACC  6E2C               	movwf	___fladd@a^0,c
  7066   000ACE  0E00               	movlw	0
  7067   000AD0  6E2D               	movwf	(___fladd@a+1)^0,c
  7068   000AD2  0E00               	movlw	0
  7069   000AD4  6E2E               	movwf	(___fladd@a+2)^0,c
  7070   000AD6  0E00               	movlw	0
  7071   000AD8  6E2F               	movwf	(___fladd@a+3)^0,c
  7072   000ADA                     l2985:
  7073   000ADA  5036               	movf	___fladd@bexp^0,w,c
  7074   000ADC  5C35               	subwf	___fladd@aexp^0,w,c
  7075   000ADE  B0D8               	btfsc	status,0,c
  7076   000AE0  EF74  F005         	goto	u2511
  7077   000AE4  EF76  F005         	goto	u2510
  7078   000AE8                     u2511:
  7079   000AE8  EF9D  F005         	goto	l3021
  7080   000AEC                     u2510:
  7081   000AEC  AC34               	btfss	___fladd@signs^0,6,c
  7082   000AEE  EF7B  F005         	goto	u2521
  7083   000AF2  EF7D  F005         	goto	u2520
  7084   000AF6                     u2521:
  7085   000AF6  EF7F  F005         	goto	l2991
  7086   000AFA                     u2520:
  7087   000AFA  0E80               	movlw	128
  7088   000AFC  1A34               	xorwf	___fladd@signs^0,f,c
  7089   000AFE                     l2991:
  7090   000AFE  C036  F037         	movff	___fladd@bexp,___fladd@grs
  7091   000B02  C035  F036         	movff	___fladd@aexp,___fladd@bexp
  7092   000B06  C037  F035         	movff	___fladd@grs,___fladd@aexp
  7093   000B0A  C028  F037         	movff	___fladd@b,___fladd@grs
  7094   000B0E  C02C  F028         	movff	___fladd@a,___fladd@b
  7095   000B12  C037  F02C         	movff	___fladd@grs,___fladd@a
  7096   000B16  C029  F037         	movff	___fladd@b+1,___fladd@grs
  7097   000B1A  C02D  F029         	movff	___fladd@a+1,___fladd@b+1
  7098   000B1E  C037  F02D         	movff	___fladd@grs,___fladd@a+1
  7099   000B22  C02A  F037         	movff	___fladd@b+2,___fladd@grs
  7100   000B26  C02E  F02A         	movff	___fladd@a+2,___fladd@b+2
  7101   000B2A  C037  F02E         	movff	___fladd@grs,___fladd@a+2
  7102   000B2E  C02B  F037         	movff	___fladd@b+3,___fladd@grs
  7103   000B32  C02F  F02B         	movff	___fladd@a+3,___fladd@b+3
  7104   000B36  C037  F02F         	movff	___fladd@grs,___fladd@a+3
  7105   000B3A                     l3021:
  7106   000B3A  6A37               	clrf	___fladd@grs^0,c
  7107   000B3C  5036               	movf	___fladd@bexp^0,w,c
  7108   000B3E  C035  F030         	movff	___fladd@aexp,??___fladd
  7109   000B42  6A31               	clrf	(??___fladd+1)^0,c
  7110   000B44  5E30               	subwf	??___fladd^0,f,c
  7111   000B46  0E00               	movlw	0
  7112   000B48  5A31               	subwfb	(??___fladd+1)^0,f,c
  7113   000B4A  BE31               	btfsc	(??___fladd+1)^0,7,c
  7114   000B4C  EFB1  F005         	goto	u2531
  7115   000B50  5031               	movf	(??___fladd+1)^0,w,c
  7116   000B52  E109               	bnz	u2530
  7117   000B54  0E1A               	movlw	26
  7118   000B56  5C30               	subwf	??___fladd^0,w,c
  7119   000B58  A0D8               	btfss	status,0,c
  7120   000B5A  EFB1  F005         	goto	u2531
  7121   000B5E  EFB3  F005         	goto	u2530
  7122   000B62                     u2531:
  7123   000B62  EFEA  F005         	goto	l846
  7124   000B66                     u2530:
  7125   000B66  5028               	movf	___fladd@b^0,w,c
  7126   000B68  1029               	iorwf	(___fladd@b+1)^0,w,c
  7127   000B6A  102A               	iorwf	(___fladd@b+2)^0,w,c
  7128   000B6C  102B               	iorwf	(___fladd@b+3)^0,w,c
  7129   000B6E  A4D8               	btfss	status,2,c
  7130   000B70  EFBC  F005         	goto	u2541
  7131   000B74  EFBF  F005         	goto	u2540
  7132   000B78                     u2541:
  7133   000B78  0E01               	movlw	1
  7134   000B7A  EFC0  F005         	goto	u2550
  7135   000B7E                     u2540:
  7136   000B7E  0E00               	movlw	0
  7137   000B80                     u2550:
  7138   000B80  6E37               	movwf	___fladd@grs^0,c
  7139   000B82  0E00               	movlw	0
  7140   000B84  6E28               	movwf	___fladd@b^0,c
  7141   000B86  0E00               	movlw	0
  7142   000B88  6E29               	movwf	(___fladd@b+1)^0,c
  7143   000B8A  0E00               	movlw	0
  7144   000B8C  6E2A               	movwf	(___fladd@b+2)^0,c
  7145   000B8E  0E00               	movlw	0
  7146   000B90  6E2B               	movwf	(___fladd@b+3)^0,c
  7147   000B92  C035  F036         	movff	___fladd@aexp,___fladd@bexp
  7148   000B96  EFF3  F005         	goto	l845
  7149   000B9A                     l847:
  7150   000B9A  A037               	btfss	___fladd@grs^0,0,c
  7151   000B9C  EFD2  F005         	goto	u2561
  7152   000BA0  EFD4  F005         	goto	u2560
  7153   000BA4                     u2561:
  7154   000BA4  EFDA  F005         	goto	l3031
  7155   000BA8                     u2560:
  7156   000BA8  90D8               	bcf	status,0,c
  7157   000BAA  3037               	rrcf	___fladd@grs^0,w,c
  7158   000BAC  0901               	iorlw	1
  7159   000BAE  6E37               	movwf	___fladd@grs^0,c
  7160   000BB0  EFDC  F005         	goto	l3033
  7161   000BB4                     l3031:
  7162   000BB4  90D8               	bcf	status,0,c
  7163   000BB6  3237               	rrcf	___fladd@grs^0,f,c
  7164   000BB8                     l3033:
  7165   000BB8  A028               	btfss	___fladd@b^0,0,c
  7166   000BBA  EFE1  F005         	goto	u2571
  7167   000BBE  EFE3  F005         	goto	u2570
  7168   000BC2                     u2571:
  7169   000BC2  EFE4  F005         	goto	l3037
  7170   000BC6                     u2570:
  7171   000BC6  8E37               	bsf	___fladd@grs^0,7,c
  7172   000BC8                     l3037:
  7173   000BC8  342B               	rlcf	(___fladd@b+3)^0,w,c
  7174   000BCA  322B               	rrcf	(___fladd@b+3)^0,f,c
  7175   000BCC  322A               	rrcf	(___fladd@b+2)^0,f,c
  7176   000BCE  3229               	rrcf	(___fladd@b+1)^0,f,c
  7177   000BD0  3228               	rrcf	___fladd@b^0,f,c
  7178   000BD2  2A36               	incf	___fladd@bexp^0,f,c
  7179   000BD4                     l846:
  7180   000BD4  5035               	movf	___fladd@aexp^0,w,c
  7181   000BD6  5C36               	subwf	___fladd@bexp^0,w,c
  7182   000BD8  A0D8               	btfss	status,0,c
  7183   000BDA  EFF1  F005         	goto	u2581
  7184   000BDE  EFF3  F005         	goto	u2580
  7185   000BE2                     u2581:
  7186   000BE2  EFCD  F005         	goto	l847
  7187   000BE6                     u2580:
  7188   000BE6                     l845:
  7189   000BE6  BC34               	btfsc	___fladd@signs^0,6,c
  7190   000BE8  EFF8  F005         	goto	u2591
  7191   000BEC  EFFA  F005         	goto	u2590
  7192   000BF0                     u2591:
  7193   000BF0  EF3A  F006         	goto	l3065
  7194   000BF4                     u2590:
  7195   000BF4  5036               	movf	___fladd@bexp^0,w,c
  7196   000BF6  A4D8               	btfss	status,2,c
  7197   000BF8  EF00  F006         	goto	u2601
  7198   000BFC  EF02  F006         	goto	u2600
  7199   000C00                     u2601:
  7200   000C00  EF0C  F006         	goto	l3047
  7201   000C04                     u2600:
  7202   000C04  0E00               	movlw	0
  7203   000C06  6E28               	movwf	?___fladd^0,c
  7204   000C08  0E00               	movlw	0
  7205   000C0A  6E29               	movwf	(?___fladd+1)^0,c
  7206   000C0C  0E00               	movlw	0
  7207   000C0E  6E2A               	movwf	(?___fladd+2)^0,c
  7208   000C10  0E00               	movlw	0
  7209   000C12  6E2B               	movwf	(?___fladd+3)^0,c
  7210   000C14  EF59  F007         	goto	l854
  7211   000C18                     l3047:
  7212   000C18  502C               	movf	___fladd@a^0,w,c
  7213   000C1A  2628               	addwf	___fladd@b^0,f,c
  7214   000C1C  502D               	movf	(___fladd@a+1)^0,w,c
  7215   000C1E  2229               	addwfc	(___fladd@b+1)^0,f,c
  7216   000C20  502E               	movf	(___fladd@a+2)^0,w,c
  7217   000C22  222A               	addwfc	(___fladd@b+2)^0,f,c
  7218   000C24  502F               	movf	(___fladd@a+3)^0,w,c
  7219   000C26  222B               	addwfc	(___fladd@b+3)^0,f,c
  7220   000C28  A02B               	btfss	(___fladd@b+3)^0,0,c
  7221   000C2A  EF19  F006         	goto	u2611
  7222   000C2E  EF1B  F006         	goto	u2610
  7223   000C32                     u2611:
  7224   000C32  EFC7  F006         	goto	l859
  7225   000C36                     u2610:
  7226   000C36  A037               	btfss	___fladd@grs^0,0,c
  7227   000C38  EF20  F006         	goto	u2621
  7228   000C3C  EF22  F006         	goto	u2620
  7229   000C40                     u2621:
  7230   000C40  EF28  F006         	goto	l3055
  7231   000C44                     u2620:
  7232   000C44  90D8               	bcf	status,0,c
  7233   000C46  3037               	rrcf	___fladd@grs^0,w,c
  7234   000C48  0901               	iorlw	1
  7235   000C4A  6E37               	movwf	___fladd@grs^0,c
  7236   000C4C  EF2A  F006         	goto	l3057
  7237   000C50                     l3055:
  7238   000C50  90D8               	bcf	status,0,c
  7239   000C52  3237               	rrcf	___fladd@grs^0,f,c
  7240   000C54                     l3057:
  7241   000C54  A028               	btfss	___fladd@b^0,0,c
  7242   000C56  EF2F  F006         	goto	u2631
  7243   000C5A  EF31  F006         	goto	u2630
  7244   000C5E                     u2631:
  7245   000C5E  EF32  F006         	goto	l3061
  7246   000C62                     u2630:
  7247   000C62  8E37               	bsf	___fladd@grs^0,7,c
  7248   000C64                     l3061:
  7249   000C64  342B               	rlcf	(___fladd@b+3)^0,w,c
  7250   000C66  322B               	rrcf	(___fladd@b+3)^0,f,c
  7251   000C68  322A               	rrcf	(___fladd@b+2)^0,f,c
  7252   000C6A  3229               	rrcf	(___fladd@b+1)^0,f,c
  7253   000C6C  3228               	rrcf	___fladd@b^0,f,c
  7254   000C6E  2A36               	incf	___fladd@bexp^0,f,c
  7255   000C70  EFC7  F006         	goto	l859
  7256   000C74                     l3065:
  7257   000C74  502C               	movf	___fladd@a^0,w,c
  7258   000C76  5C28               	subwf	___fladd@b^0,w,c
  7259   000C78  502D               	movf	(___fladd@a+1)^0,w,c
  7260   000C7A  5829               	subwfb	(___fladd@b+1)^0,w,c
  7261   000C7C  502E               	movf	(___fladd@a+2)^0,w,c
  7262   000C7E  582A               	subwfb	(___fladd@b+2)^0,w,c
  7263   000C80  502B               	movf	(___fladd@b+3)^0,w,c
  7264   000C82  0A80               	xorlw	128
  7265   000C84  6E30               	movwf	??___fladd^0,c
  7266   000C86  502F               	movf	(___fladd@a+3)^0,w,c
  7267   000C88  0A80               	xorlw	128
  7268   000C8A  5830               	subwfb	??___fladd^0,w,c
  7269   000C8C  B0D8               	btfsc	status,0,c
  7270   000C8E  EF4B  F006         	goto	u2641
  7271   000C92  EF4D  F006         	goto	u2640
  7272   000C96                     u2641:
  7273   000C96  EF78  F006         	goto	l3075
  7274   000C9A                     u2640:
  7275   000C9A  5028               	movf	___fladd@b^0,w,c
  7276   000C9C  5C2C               	subwf	___fladd@a^0,w,c
  7277   000C9E  6E30               	movwf	??___fladd^0,c
  7278   000CA0  5029               	movf	(___fladd@b+1)^0,w,c
  7279   000CA2  582D               	subwfb	(___fladd@a+1)^0,w,c
  7280   000CA4  6E31               	movwf	(??___fladd+1)^0,c
  7281   000CA6  502A               	movf	(___fladd@b+2)^0,w,c
  7282   000CA8  582E               	subwfb	(___fladd@a+2)^0,w,c
  7283   000CAA  6E32               	movwf	(??___fladd+2)^0,c
  7284   000CAC  502B               	movf	(___fladd@b+3)^0,w,c
  7285   000CAE  582F               	subwfb	(___fladd@a+3)^0,w,c
  7286   000CB0  6E33               	movwf	(??___fladd+3)^0,c
  7287   000CB2  0EFF               	movlw	255
  7288   000CB4  2430               	addwf	??___fladd^0,w,c
  7289   000CB6  6E28               	movwf	___fladd@b^0,c
  7290   000CB8  0EFF               	movlw	255
  7291   000CBA  2031               	addwfc	(??___fladd+1)^0,w,c
  7292   000CBC  6E29               	movwf	(___fladd@b+1)^0,c
  7293   000CBE  0EFF               	movlw	255
  7294   000CC0  2032               	addwfc	(??___fladd+2)^0,w,c
  7295   000CC2  6E2A               	movwf	(___fladd@b+2)^0,c
  7296   000CC4  0EFF               	movlw	255
  7297   000CC6  2033               	addwfc	(??___fladd+3)^0,w,c
  7298   000CC8  6E2B               	movwf	(___fladd@b+3)^0,c
  7299   000CCA  0E80               	movlw	128
  7300   000CCC  1A34               	xorwf	___fladd@signs^0,f,c
  7301   000CCE  6C37               	negf	___fladd@grs^0,c
  7302   000CD0  5037               	movf	___fladd@grs^0,w,c
  7303   000CD2  A4D8               	btfss	status,2,c
  7304   000CD4  EF6E  F006         	goto	u2651
  7305   000CD8  EF70  F006         	goto	u2650
  7306   000CDC                     u2651:
  7307   000CDC  EF80  F006         	goto	l862
  7308   000CE0                     u2650:
  7309   000CE0  0E01               	movlw	1
  7310   000CE2  2628               	addwf	___fladd@b^0,f,c
  7311   000CE4  0E00               	movlw	0
  7312   000CE6  2229               	addwfc	(___fladd@b+1)^0,f,c
  7313   000CE8  222A               	addwfc	(___fladd@b+2)^0,f,c
  7314   000CEA  222B               	addwfc	(___fladd@b+3)^0,f,c
  7315   000CEC  EF80  F006         	goto	l862
  7316   000CF0                     l3075:
  7317   000CF0  502C               	movf	___fladd@a^0,w,c
  7318   000CF2  5E28               	subwf	___fladd@b^0,f,c
  7319   000CF4  502D               	movf	(___fladd@a+1)^0,w,c
  7320   000CF6  5A29               	subwfb	(___fladd@b+1)^0,f,c
  7321   000CF8  502E               	movf	(___fladd@a+2)^0,w,c
  7322   000CFA  5A2A               	subwfb	(___fladd@b+2)^0,f,c
  7323   000CFC  502F               	movf	(___fladd@a+3)^0,w,c
  7324   000CFE  5A2B               	subwfb	(___fladd@b+3)^0,f,c
  7325   000D00                     l862:
  7326   000D00  5028               	movf	___fladd@b^0,w,c
  7327   000D02  1029               	iorwf	(___fladd@b+1)^0,w,c
  7328   000D04  102A               	iorwf	(___fladd@b+2)^0,w,c
  7329   000D06  102B               	iorwf	(___fladd@b+3)^0,w,c
  7330   000D08  A4D8               	btfss	status,2,c
  7331   000D0A  EF89  F006         	goto	u2661
  7332   000D0E  EF8B  F006         	goto	u2660
  7333   000D12                     u2661:
  7334   000D12  EFC0  F006         	goto	l3099
  7335   000D16                     u2660:
  7336   000D16  5037               	movf	___fladd@grs^0,w,c
  7337   000D18  A4D8               	btfss	status,2,c
  7338   000D1A  EF91  F006         	goto	u2671
  7339   000D1E  EF93  F006         	goto	u2670
  7340   000D22                     u2671:
  7341   000D22  EFC0  F006         	goto	l3099
  7342   000D26                     u2670:
  7343   000D26  0E00               	movlw	0
  7344   000D28  6E28               	movwf	?___fladd^0,c
  7345   000D2A  0E00               	movlw	0
  7346   000D2C  6E29               	movwf	(?___fladd+1)^0,c
  7347   000D2E  0E00               	movlw	0
  7348   000D30  6E2A               	movwf	(?___fladd+2)^0,c
  7349   000D32  0E00               	movlw	0
  7350   000D34  6E2B               	movwf	(?___fladd+3)^0,c
  7351   000D36  EF59  F007         	goto	l854
  7352   000D3A                     l3083:
  7353   000D3A  90D8               	bcf	status,0,c
  7354   000D3C  3628               	rlcf	___fladd@b^0,f,c
  7355   000D3E  3629               	rlcf	(___fladd@b+1)^0,f,c
  7356   000D40  362A               	rlcf	(___fladd@b+2)^0,f,c
  7357   000D42  362B               	rlcf	(___fladd@b+3)^0,f,c
  7358   000D44  AE37               	btfss	___fladd@grs^0,7,c
  7359   000D46  EFA7  F006         	goto	u2681
  7360   000D4A  EFA9  F006         	goto	u2680
  7361   000D4E                     u2681:
  7362   000D4E  EFAA  F006         	goto	l3089
  7363   000D52                     u2680:
  7364   000D52  8028               	bsf	___fladd@b^0,0,c
  7365   000D54                     l3089:
  7366   000D54  A037               	btfss	___fladd@grs^0,0,c
  7367   000D56  EFAF  F006         	goto	u2691
  7368   000D5A  EFB1  F006         	goto	u2690
  7369   000D5E                     u2691:
  7370   000D5E  EFB5  F006         	goto	l3093
  7371   000D62                     u2690:
  7372   000D62  80D8               	bsf	status,0,c
  7373   000D64  3637               	rlcf	___fladd@grs^0,f,c
  7374   000D66  EFB7  F006         	goto	l3095
  7375   000D6A                     l3093:
  7376   000D6A  90D8               	bcf	status,0,c
  7377   000D6C  3637               	rlcf	___fladd@grs^0,f,c
  7378   000D6E                     l3095:
  7379   000D6E  5036               	movf	___fladd@bexp^0,w,c
  7380   000D70  B4D8               	btfsc	status,2,c
  7381   000D72  EFBD  F006         	goto	u2701
  7382   000D76  EFBF  F006         	goto	u2700
  7383   000D7A                     u2701:
  7384   000D7A  EFC0  F006         	goto	l3099
  7385   000D7E                     u2700:
  7386   000D7E  0636               	decf	___fladd@bexp^0,f,c
  7387   000D80                     l3099:
  7388   000D80  AE2A               	btfss	(___fladd@b+2)^0,7,c
  7389   000D82  EFC5  F006         	goto	u2711
  7390   000D86  EFC7  F006         	goto	u2710
  7391   000D8A                     u2711:
  7392   000D8A  EF9D  F006         	goto	l3083
  7393   000D8E                     u2710:
  7394   000D8E                     l859:
  7395   000D8E  6A35               	clrf	___fladd@aexp^0,c
  7396   000D90  AE37               	btfss	___fladd@grs^0,7,c
  7397   000D92  EFCD  F006         	goto	u2721
  7398   000D96  EFCF  F006         	goto	u2720
  7399   000D9A                     u2721:
  7400   000D9A  EFE7  F006         	goto	l871
  7401   000D9E                     u2720:
  7402   000D9E  C037  F030         	movff	___fladd@grs,??___fladd
  7403   000DA2  0E7F               	movlw	127
  7404   000DA4  1630               	andwf	??___fladd^0,f,c
  7405   000DA6  B4D8               	btfsc	status,2,c
  7406   000DA8  EFD8  F006         	goto	u2731
  7407   000DAC  EFDA  F006         	goto	u2730
  7408   000DB0                     u2731:
  7409   000DB0  EFDE  F006         	goto	l872
  7410   000DB4                     u2730:
  7411   000DB4                     l3103:
  7412   000DB4  0E01               	movlw	1
  7413   000DB6  6E35               	movwf	___fladd@aexp^0,c
  7414   000DB8  EFE7  F006         	goto	l871
  7415   000DBC                     l872:
  7416   000DBC  A028               	btfss	___fladd@b^0,0,c
  7417   000DBE  EFE3  F006         	goto	u2741
  7418   000DC2  EFE5  F006         	goto	u2740
  7419   000DC6                     u2741:
  7420   000DC6  EFE7  F006         	goto	l871
  7421   000DCA                     u2740:
  7422   000DCA  EFDA  F006         	goto	l3103
  7423   000DCE                     l871:
  7424   000DCE  5035               	movf	___fladd@aexp^0,w,c
  7425   000DD0  B4D8               	btfsc	status,2,c
  7426   000DD2  EFED  F006         	goto	u2751
  7427   000DD6  EFEF  F006         	goto	u2750
  7428   000DDA                     u2751:
  7429   000DDA  EF1A  F007         	goto	l3115
  7430   000DDE                     u2750:
  7431   000DDE  0E01               	movlw	1
  7432   000DE0  2628               	addwf	___fladd@b^0,f,c
  7433   000DE2  0E00               	movlw	0
  7434   000DE4  2229               	addwfc	(___fladd@b+1)^0,f,c
  7435   000DE6  222A               	addwfc	(___fladd@b+2)^0,f,c
  7436   000DE8  222B               	addwfc	(___fladd@b+3)^0,f,c
  7437   000DEA  A02B               	btfss	(___fladd@b+3)^0,0,c
  7438   000DEC  EFFA  F006         	goto	u2761
  7439   000DF0  EFFC  F006         	goto	u2760
  7440   000DF4                     u2761:
  7441   000DF4  EF1A  F007         	goto	l3115
  7442   000DF8                     u2760:
  7443   000DF8  C028  F030         	movff	___fladd@b,??___fladd
  7444   000DFC  C029  F031         	movff	___fladd@b+1,??___fladd+1
  7445   000E00  C02A  F032         	movff	___fladd@b+2,??___fladd+2
  7446   000E04  C02B  F033         	movff	___fladd@b+3,??___fladd+3
  7447   000E08  3433               	rlcf	(??___fladd+3)^0,w,c
  7448   000E0A  3233               	rrcf	(??___fladd+3)^0,f,c
  7449   000E0C  3232               	rrcf	(??___fladd+2)^0,f,c
  7450   000E0E  3231               	rrcf	(??___fladd+1)^0,f,c
  7451   000E10  3230               	rrcf	??___fladd^0,f,c
  7452   000E12  C030  F028         	movff	??___fladd,___fladd@b
  7453   000E16  C031  F029         	movff	??___fladd+1,___fladd@b+1
  7454   000E1A  C032  F02A         	movff	??___fladd+2,___fladd@b+2
  7455   000E1E  C033  F02B         	movff	??___fladd+3,___fladd@b+3
  7456   000E22  2836               	incf	___fladd@bexp^0,w,c
  7457   000E24  B4D8               	btfsc	status,2,c
  7458   000E26  EF17  F007         	goto	u2771
  7459   000E2A  EF19  F007         	goto	u2770
  7460   000E2E                     u2771:
  7461   000E2E  EF1A  F007         	goto	l3115
  7462   000E32                     u2770:
  7463   000E32  2A36               	incf	___fladd@bexp^0,f,c
  7464   000E34                     l3115:
  7465   000E34  2836               	incf	___fladd@bexp^0,w,c
  7466   000E36  B4D8               	btfsc	status,2,c
  7467   000E38  EF20  F007         	goto	u2781
  7468   000E3C  EF22  F007         	goto	u2780
  7469   000E40                     u2781:
  7470   000E40  EF2A  F007         	goto	l3119
  7471   000E44                     u2780:
  7472   000E44  5036               	movf	___fladd@bexp^0,w,c
  7473   000E46  A4D8               	btfss	status,2,c
  7474   000E48  EF28  F007         	goto	u2791
  7475   000E4C  EF2A  F007         	goto	u2790
  7476   000E50                     u2791:
  7477   000E50  EF3B  F007         	goto	l878
  7478   000E54                     u2790:
  7479   000E54                     l3119:
  7480   000E54  0E00               	movlw	0
  7481   000E56  6E28               	movwf	___fladd@b^0,c
  7482   000E58  0E00               	movlw	0
  7483   000E5A  6E29               	movwf	(___fladd@b+1)^0,c
  7484   000E5C  0E00               	movlw	0
  7485   000E5E  6E2A               	movwf	(___fladd@b+2)^0,c
  7486   000E60  0E00               	movlw	0
  7487   000E62  6E2B               	movwf	(___fladd@b+3)^0,c
  7488   000E64  5036               	movf	___fladd@bexp^0,w,c
  7489   000E66  A4D8               	btfss	status,2,c
  7490   000E68  EF38  F007         	goto	u2801
  7491   000E6C  EF3A  F007         	goto	u2800
  7492   000E70                     u2801:
  7493   000E70  EF3B  F007         	goto	l878
  7494   000E74                     u2800:
  7495   000E74  6A34               	clrf	___fladd@signs^0,c
  7496   000E76                     l878:
  7497   000E76  A036               	btfss	___fladd@bexp^0,0,c
  7498   000E78  EF40  F007         	goto	u2811
  7499   000E7C  EF42  F007         	goto	u2810
  7500   000E80                     u2811:
  7501   000E80  EF45  F007         	goto	l3125
  7502   000E84                     u2810:
  7503   000E84  8E2A               	bsf	(___fladd@b+2)^0,7,c
  7504   000E86  EF46  F007         	goto	l3127
  7505   000E8A                     l3125:
  7506   000E8A  9E2A               	bcf	(___fladd@b+2)^0,7,c
  7507   000E8C                     l3127:
  7508   000E8C  90D8               	bcf	status,0,c
  7509   000E8E  3036               	rrcf	___fladd@bexp^0,w,c
  7510   000E90  6E2B               	movwf	(___fladd@b+3)^0,c
  7511   000E92  AE34               	btfss	___fladd@signs^0,7,c
  7512   000E94  EF4E  F007         	goto	u2821
  7513   000E98  EF50  F007         	goto	u2820
  7514   000E9C                     u2821:
  7515   000E9C  EF51  F007         	goto	l3133
  7516   000EA0                     u2820:
  7517   000EA0  8E2B               	bsf	(___fladd@b+3)^0,7,c
  7518   000EA2                     l3133:
  7519   000EA2  C028  F028         	movff	___fladd@b,?___fladd
  7520   000EA6  C029  F029         	movff	___fladd@b+1,?___fladd+1
  7521   000EAA  C02A  F02A         	movff	___fladd@b+2,?___fladd+2
  7522   000EAE  C02B  F02B         	movff	___fladd@b+3,?___fladd+3
  7523   000EB2                     l854:
  7524   000EB2  0012               	return		;funcret
  7525   000EB4                     __end_of___fladd:
  7526                           	callstack 0
  7527                           
  7528 ;; *************** function ___flneg *****************
  7529 ;; Defined at:
  7530 ;;		line 15 in file "C:\Program Files\Microchip\xc8\v3.00\pic\sources\c99\common\flneg.c"
  7531 ;; Parameters:    Size  Location     Type
  7532 ;;  f1              4    0[COMRAM] unsigned char 
  7533 ;; Auto vars:     Size  Location     Type
  7534 ;;		None
  7535 ;; Return value:  Size  Location     Type
  7536 ;;                  4    0[COMRAM] unsigned char 
  7537 ;; Registers used:
  7538 ;;		wreg, status,2, status,0
  7539 ;; Tracked objects:
  7540 ;;		On entry : 0/0
  7541 ;;		On exit  : 0/0
  7542 ;;		Unchanged: 0/0
  7543 ;; Data sizes:     COMRAM   BANK0   BANK1   BANK2   BANK3   BANK4   BANK5
  7544 ;;      Params:         4       0       0       0       0       0       0
  7545 ;;      Locals:         0       0       0       0       0       0       0
  7546 ;;      Temps:          0       0       0       0       0       0       0
  7547 ;;      Totals:         4       0       0       0       0       0       0
  7548 ;;Total ram usage:        4 bytes
  7549 ;; Hardware stack levels used: 1
  7550 ;; Hardware stack levels required when called: 2
  7551 ;; This function calls:
  7552 ;;		Nothing
  7553 ;; This function is called by:
  7554 ;;		_efgtoa
  7555 ;; This function uses a non-reentrant model
  7556 ;;
  7557                           
  7558                           	psect	text23
  7559   003610                     __ptext23:
  7560                           	callstack 0
  7561   003610                     ___flneg:
  7562                           	callstack 24
  7563   003610  5001               	movf	___flneg@f1^0,w,c
  7564   003612  1002               	iorwf	(___flneg@f1+1)^0,w,c
  7565   003614  1003               	iorwf	(___flneg@f1+2)^0,w,c
  7566   003616  1004               	iorwf	(___flneg@f1+3)^0,w,c
  7567   003618  B4D8               	btfsc	status,2,c
  7568   00361A  EF11  F01B         	goto	u3361
  7569   00361E  EF13  F01B         	goto	u3360
  7570   003622                     u3361:
  7571   003622  EF1B  F01B         	goto	l3469
  7572   003626                     u3360:
  7573   003626  0E00               	movlw	0
  7574   003628  1A01               	xorwf	___flneg@f1^0,f,c
  7575   00362A  0E00               	movlw	0
  7576   00362C  1A02               	xorwf	(___flneg@f1+1)^0,f,c
  7577   00362E  0E00               	movlw	0
  7578   003630  1A03               	xorwf	(___flneg@f1+2)^0,f,c
  7579   003632  0E80               	movlw	128
  7580   003634  1A04               	xorwf	(___flneg@f1+3)^0,f,c
  7581   003636                     l3469:
  7582   003636  C001  F001         	movff	___flneg@f1,?___flneg
  7583   00363A  C002  F002         	movff	___flneg@f1+1,?___flneg+1
  7584   00363E  C003  F003         	movff	___flneg@f1+2,?___flneg+2
  7585   003642  C004  F004         	movff	___flneg@f1+3,?___flneg+3
  7586   003646  0012               	return		;funcret
  7587   003648                     __end_of___flneg:
  7588                           	callstack 0
  7589                           
  7590 ;; *************** function ___flge *****************
  7591 ;; Defined at:
  7592 ;;		line 4 in file "C:\Program Files\Microchip\xc8\v3.00\pic\sources\c99\common\flge.c"
  7593 ;; Parameters:    Size  Location     Type
  7594 ;;  ff1             4   39[COMRAM] unsigned char 
  7595 ;;  ff2             4   43[COMRAM] unsigned char 
  7596 ;; Auto vars:     Size  Location     Type
  7597 ;;		None
  7598 ;; Return value:  Size  Location     Type
  7599 ;;		None               void
  7600 ;; Registers used:
  7601 ;;		wreg, status,2, status,0
  7602 ;; Tracked objects:
  7603 ;;		On entry : 0/0
  7604 ;;		On exit  : 0/0
  7605 ;;		Unchanged: 0/0
  7606 ;; Data sizes:     COMRAM   BANK0   BANK1   BANK2   BANK3   BANK4   BANK5
  7607 ;;      Params:         8       0       0       0       0       0       0
  7608 ;;      Locals:         0       0       0       0       0       0       0
  7609 ;;      Temps:          4       0       0       0       0       0       0
  7610 ;;      Totals:        12       0       0       0       0       0       0
  7611 ;;Total ram usage:       12 bytes
  7612 ;; Hardware stack levels used: 1
  7613 ;; Hardware stack levels required when called: 2
  7614 ;; This function calls:
  7615 ;;		Nothing
  7616 ;; This function is called by:
  7617 ;;		_updateYaw
  7618 ;;		_efgtoa
  7619 ;; This function uses a non-reentrant model
  7620 ;;
  7621                           
  7622                           	psect	text24
  7623   0028C6                     __ptext24:
  7624                           	callstack 0
  7625   0028C6                     ___flge:
  7626                           	callstack 27
  7627   0028C6  0E00               	movlw	0
  7628   0028C8  1428               	andwf	___flge@ff1^0,w,c
  7629   0028CA  6E30               	movwf	??___flge^0,c
  7630   0028CC  0E00               	movlw	0
  7631   0028CE  1429               	andwf	(___flge@ff1+1)^0,w,c
  7632   0028D0  6E31               	movwf	(??___flge+1)^0,c
  7633   0028D2  0E80               	movlw	128
  7634   0028D4  142A               	andwf	(___flge@ff1+2)^0,w,c
  7635   0028D6  6E32               	movwf	(??___flge+2)^0,c
  7636   0028D8  0E7F               	movlw	127
  7637   0028DA  142B               	andwf	(___flge@ff1+3)^0,w,c
  7638   0028DC  6E33               	movwf	(??___flge+3)^0,c
  7639   0028DE  5030               	movf	??___flge^0,w,c
  7640   0028E0  1031               	iorwf	(??___flge+1)^0,w,c
  7641   0028E2  1032               	iorwf	(??___flge+2)^0,w,c
  7642   0028E4  1033               	iorwf	(??___flge+3)^0,w,c
  7643   0028E6  A4D8               	btfss	status,2,c
  7644   0028E8  EF78  F014         	goto	u3311
  7645   0028EC  EF7A  F014         	goto	u3310
  7646   0028F0                     u3311:
  7647   0028F0  EF82  F014         	goto	l3447
  7648   0028F4                     u3310:
  7649   0028F4  0E00               	movlw	0
  7650   0028F6  6E28               	movwf	___flge@ff1^0,c
  7651   0028F8  0E00               	movlw	0
  7652   0028FA  6E29               	movwf	(___flge@ff1+1)^0,c
  7653   0028FC  0E00               	movlw	0
  7654   0028FE  6E2A               	movwf	(___flge@ff1+2)^0,c
  7655   002900  0E00               	movlw	0
  7656   002902  6E2B               	movwf	(___flge@ff1+3)^0,c
  7657   002904                     l3447:
  7658   002904  0E00               	movlw	0
  7659   002906  142C               	andwf	___flge@ff2^0,w,c
  7660   002908  6E30               	movwf	??___flge^0,c
  7661   00290A  0E00               	movlw	0
  7662   00290C  142D               	andwf	(___flge@ff2+1)^0,w,c
  7663   00290E  6E31               	movwf	(??___flge+1)^0,c
  7664   002910  0E80               	movlw	128
  7665   002912  142E               	andwf	(___flge@ff2+2)^0,w,c
  7666   002914  6E32               	movwf	(??___flge+2)^0,c
  7667   002916  0E7F               	movlw	127
  7668   002918  142F               	andwf	(___flge@ff2+3)^0,w,c
  7669   00291A  6E33               	movwf	(??___flge+3)^0,c
  7670   00291C  5030               	movf	??___flge^0,w,c
  7671   00291E  1031               	iorwf	(??___flge+1)^0,w,c
  7672   002920  1032               	iorwf	(??___flge+2)^0,w,c
  7673   002922  1033               	iorwf	(??___flge+3)^0,w,c
  7674   002924  A4D8               	btfss	status,2,c
  7675   002926  EF97  F014         	goto	u3321
  7676   00292A  EF99  F014         	goto	u3320
  7677   00292E                     u3321:
  7678   00292E  EFA1  F014         	goto	l3451
  7679   002932                     u3320:
  7680   002932  0E00               	movlw	0
  7681   002934  6E2C               	movwf	___flge@ff2^0,c
  7682   002936  0E00               	movlw	0
  7683   002938  6E2D               	movwf	(___flge@ff2+1)^0,c
  7684   00293A  0E00               	movlw	0
  7685   00293C  6E2E               	movwf	(___flge@ff2+2)^0,c
  7686   00293E  0E00               	movlw	0
  7687   002940  6E2F               	movwf	(___flge@ff2+3)^0,c
  7688   002942                     l3451:
  7689   002942  AE2B               	btfss	(___flge@ff1+3)^0,7,c
  7690   002944  EFA6  F014         	goto	u3331
  7691   002948  EFA8  F014         	goto	u3330
  7692   00294C                     u3331:
  7693   00294C  EFB1  F014         	goto	l3455
  7694   002950                     u3330:
  7695   002950  6C28               	negf	___flge@ff1^0,c
  7696   002952  1E29               	comf	(___flge@ff1+1)^0,f,c
  7697   002954  B0D8               	btfsc	status,0,c
  7698   002956  2A29               	incf	(___flge@ff1+1)^0,f,c
  7699   002958  1E2A               	comf	(___flge@ff1+2)^0,f,c
  7700   00295A  B0D8               	btfsc	status,0,c
  7701   00295C  2A2A               	incf	(___flge@ff1+2)^0,f,c
  7702   00295E  0E80               	movlw	128
  7703   002960  562B               	subfwb	(___flge@ff1+3)^0,f,c
  7704   002962                     l3455:
  7705   002962  AE2F               	btfss	(___flge@ff2+3)^0,7,c
  7706   002964  EFB6  F014         	goto	u3341
  7707   002968  EFB8  F014         	goto	u3340
  7708   00296C                     u3341:
  7709   00296C  EFC1  F014         	goto	l582
  7710   002970                     u3340:
  7711   002970  6C2C               	negf	___flge@ff2^0,c
  7712   002972  1E2D               	comf	(___flge@ff2+1)^0,f,c
  7713   002974  B0D8               	btfsc	status,0,c
  7714   002976  2A2D               	incf	(___flge@ff2+1)^0,f,c
  7715   002978  1E2E               	comf	(___flge@ff2+2)^0,f,c
  7716   00297A  B0D8               	btfsc	status,0,c
  7717   00297C  2A2E               	incf	(___flge@ff2+2)^0,f,c
  7718   00297E  0E80               	movlw	128
  7719   002980  562F               	subfwb	(___flge@ff2+3)^0,f,c
  7720   002982                     l582:
  7721   002982  0E00               	movlw	0
  7722   002984  1A28               	xorwf	___flge@ff1^0,f,c
  7723   002986  0E00               	movlw	0
  7724   002988  1A29               	xorwf	(___flge@ff1+1)^0,f,c
  7725   00298A  0E00               	movlw	0
  7726   00298C  1A2A               	xorwf	(___flge@ff1+2)^0,f,c
  7727   00298E  0E80               	movlw	128
  7728   002990  1A2B               	xorwf	(___flge@ff1+3)^0,f,c
  7729   002992  0E00               	movlw	0
  7730   002994  1A2C               	xorwf	___flge@ff2^0,f,c
  7731   002996  0E00               	movlw	0
  7732   002998  1A2D               	xorwf	(___flge@ff2+1)^0,f,c
  7733   00299A  0E00               	movlw	0
  7734   00299C  1A2E               	xorwf	(___flge@ff2+2)^0,f,c
  7735   00299E  0E80               	movlw	128
  7736   0029A0  1A2F               	xorwf	(___flge@ff2+3)^0,f,c
  7737   0029A2  502C               	movf	___flge@ff2^0,w,c
  7738   0029A4  5C28               	subwf	___flge@ff1^0,w,c
  7739   0029A6  502D               	movf	(___flge@ff2+1)^0,w,c
  7740   0029A8  5829               	subwfb	(___flge@ff1+1)^0,w,c
  7741   0029AA  502E               	movf	(___flge@ff2+2)^0,w,c
  7742   0029AC  582A               	subwfb	(___flge@ff1+2)^0,w,c
  7743   0029AE  502F               	movf	(___flge@ff2+3)^0,w,c
  7744   0029B0  582B               	subwfb	(___flge@ff1+3)^0,w,c
  7745   0029B2  B0D8               	btfsc	status,0,c
  7746   0029B4  EFDE  F014         	goto	u3351
  7747   0029B8  EFE0  F014         	goto	u3350
  7748   0029BC                     u3351:
  7749   0029BC  EFE3  F014         	goto	l3461
  7750   0029C0                     u3350:
  7751   0029C0  90D8               	bcf	status,0,c
  7752   0029C2  EFE4  F014         	goto	l587
  7753   0029C6                     l3461:
  7754   0029C6  80D8               	bsf	status,0,c
  7755   0029C8                     l587:
  7756   0029C8  0012               	return		;funcret
  7757   0029CA                     __end_of___flge:
  7758                           	callstack 0
  7759                           
  7760 ;; *************** function ___fleq *****************
  7761 ;; Defined at:
  7762 ;;		line 4 in file "C:\Program Files\Microchip\xc8\v3.00\pic\sources\c99\common\fleq.c"
  7763 ;; Parameters:    Size  Location     Type
  7764 ;;  ff1             4    0[COMRAM] unsigned char 
  7765 ;;  ff2             4    4[COMRAM] unsigned char 
  7766 ;; Auto vars:     Size  Location     Type
  7767 ;;		None
  7768 ;; Return value:  Size  Location     Type
  7769 ;;		None               void
  7770 ;; Registers used:
  7771 ;;		wreg, status,2, status,0
  7772 ;; Tracked objects:
  7773 ;;		On entry : 0/0
  7774 ;;		On exit  : 0/0
  7775 ;;		Unchanged: 0/0
  7776 ;; Data sizes:     COMRAM   BANK0   BANK1   BANK2   BANK3   BANK4   BANK5
  7777 ;;      Params:         8       0       0       0       0       0       0
  7778 ;;      Locals:         0       0       0       0       0       0       0
  7779 ;;      Temps:          4       0       0       0       0       0       0
  7780 ;;      Totals:        12       0       0       0       0       0       0
  7781 ;;Total ram usage:       12 bytes
  7782 ;; Hardware stack levels used: 1
  7783 ;; Hardware stack levels required when called: 2
  7784 ;; This function calls:
  7785 ;;		Nothing
  7786 ;; This function is called by:
  7787 ;;		_efgtoa
  7788 ;; This function uses a non-reentrant model
  7789 ;;
  7790                           
  7791                           	psect	text25
  7792   002F9C                     __ptext25:
  7793                           	callstack 0
  7794   002F9C                     ___fleq:
  7795                           	callstack 24
  7796   002F9C  0E00               	movlw	0
  7797   002F9E  1401               	andwf	___fleq@ff1^0,w,c
  7798   002FA0  6E09               	movwf	??___fleq^0,c
  7799   002FA2  0E00               	movlw	0
  7800   002FA4  1402               	andwf	(___fleq@ff1+1)^0,w,c
  7801   002FA6  6E0A               	movwf	(??___fleq+1)^0,c
  7802   002FA8  0E80               	movlw	128
  7803   002FAA  1403               	andwf	(___fleq@ff1+2)^0,w,c
  7804   002FAC  6E0B               	movwf	(??___fleq+2)^0,c
  7805   002FAE  0E7F               	movlw	127
  7806   002FB0  1404               	andwf	(___fleq@ff1+3)^0,w,c
  7807   002FB2  6E0C               	movwf	(??___fleq+3)^0,c
  7808   002FB4  5009               	movf	??___fleq^0,w,c
  7809   002FB6  100A               	iorwf	(??___fleq+1)^0,w,c
  7810   002FB8  100B               	iorwf	(??___fleq+2)^0,w,c
  7811   002FBA  100C               	iorwf	(??___fleq+3)^0,w,c
  7812   002FBC  A4D8               	btfss	status,2,c
  7813   002FBE  EFE3  F017         	goto	u3281
  7814   002FC2  EFE5  F017         	goto	u3280
  7815   002FC6                     u3281:
  7816   002FC6  EFED  F017         	goto	l3431
  7817   002FCA                     u3280:
  7818   002FCA  0E00               	movlw	0
  7819   002FCC  6E01               	movwf	___fleq@ff1^0,c
  7820   002FCE  0E00               	movlw	0
  7821   002FD0  6E02               	movwf	(___fleq@ff1+1)^0,c
  7822   002FD2  0E00               	movlw	0
  7823   002FD4  6E03               	movwf	(___fleq@ff1+2)^0,c
  7824   002FD6  0E00               	movlw	0
  7825   002FD8  6E04               	movwf	(___fleq@ff1+3)^0,c
  7826   002FDA                     l3431:
  7827   002FDA  0E00               	movlw	0
  7828   002FDC  1405               	andwf	___fleq@ff2^0,w,c
  7829   002FDE  6E09               	movwf	??___fleq^0,c
  7830   002FE0  0E00               	movlw	0
  7831   002FE2  1406               	andwf	(___fleq@ff2+1)^0,w,c
  7832   002FE4  6E0A               	movwf	(??___fleq+1)^0,c
  7833   002FE6  0E80               	movlw	128
  7834   002FE8  1407               	andwf	(___fleq@ff2+2)^0,w,c
  7835   002FEA  6E0B               	movwf	(??___fleq+2)^0,c
  7836   002FEC  0E7F               	movlw	127
  7837   002FEE  1408               	andwf	(___fleq@ff2+3)^0,w,c
  7838   002FF0  6E0C               	movwf	(??___fleq+3)^0,c
  7839   002FF2  5009               	movf	??___fleq^0,w,c
  7840   002FF4  100A               	iorwf	(??___fleq+1)^0,w,c
  7841   002FF6  100B               	iorwf	(??___fleq+2)^0,w,c
  7842   002FF8  100C               	iorwf	(??___fleq+3)^0,w,c
  7843   002FFA  A4D8               	btfss	status,2,c
  7844   002FFC  EF02  F018         	goto	u3291
  7845   003000  EF04  F018         	goto	u3290
  7846   003004                     u3291:
  7847   003004  EF0C  F018         	goto	l3435
  7848   003008                     u3290:
  7849   003008  0E00               	movlw	0
  7850   00300A  6E05               	movwf	___fleq@ff2^0,c
  7851   00300C  0E00               	movlw	0
  7852   00300E  6E06               	movwf	(___fleq@ff2+1)^0,c
  7853   003010  0E00               	movlw	0
  7854   003012  6E07               	movwf	(___fleq@ff2+2)^0,c
  7855   003014  0E00               	movlw	0
  7856   003016  6E08               	movwf	(___fleq@ff2+3)^0,c
  7857   003018                     l3435:
  7858   003018  5005               	movf	___fleq@ff2^0,w,c
  7859   00301A  1801               	xorwf	___fleq@ff1^0,w,c
  7860   00301C  E10F               	bnz	u3300
  7861   00301E  5006               	movf	(___fleq@ff2+1)^0,w,c
  7862   003020  1802               	xorwf	(___fleq@ff1+1)^0,w,c
  7863   003022  E10C               	bnz	u3300
  7864   003024  5007               	movf	(___fleq@ff2+2)^0,w,c
  7865   003026  1803               	xorwf	(___fleq@ff1+2)^0,w,c
  7866   003028  E109               	bnz	u3300
  7867   00302A  5008               	movf	(___fleq@ff2+3)^0,w,c
  7868   00302C  1804               	xorwf	(___fleq@ff1+3)^0,w,c
  7869   00302E  B4D8               	btfsc	status,2,c
  7870   003030  EF1C  F018         	goto	u3301
  7871   003034  EF1E  F018         	goto	u3300
  7872   003038                     u3301:
  7873   003038  EF21  F018         	goto	l3439
  7874   00303C                     u3300:
  7875   00303C  90D8               	bcf	status,0,c
  7876   00303E  EF22  F018         	goto	l576
  7877   003042                     l3439:
  7878   003042  80D8               	bsf	status,0,c
  7879   003044                     l576:
  7880   003044  0012               	return		;funcret
  7881   003046                     __end_of___fleq:
  7882                           	callstack 0
  7883                           
  7884 ;; *************** function ___fldiv *****************
  7885 ;; Defined at:
  7886 ;;		line 11 in file "C:\Program Files\Microchip\xc8\v3.00\pic\sources\c99\common\sprcdiv.c"
  7887 ;; Parameters:    Size  Location     Type
  7888 ;;  b               4   14[COMRAM] unsigned char 
  7889 ;;  a               4   18[COMRAM] unsigned char 
  7890 ;; Auto vars:     Size  Location     Type
  7891 ;;  grs             4   33[COMRAM] unsigned long 
  7892 ;;  rem             4   26[COMRAM] unsigned long 
  7893 ;;  new_exp         2   31[COMRAM] short 
  7894 ;;  aexp            1   38[COMRAM] unsigned char 
  7895 ;;  bexp            1   37[COMRAM] unsigned char 
  7896 ;;  sign            1   30[COMRAM] unsigned char 
  7897 ;; Return value:  Size  Location     Type
  7898 ;;                  4   14[COMRAM] unsigned char 
  7899 ;; Registers used:
  7900 ;;		wreg, status,2, status,0
  7901 ;; Tracked objects:
  7902 ;;		On entry : 0/0
  7903 ;;		On exit  : 0/0
  7904 ;;		Unchanged: 0/0
  7905 ;; Data sizes:     COMRAM   BANK0   BANK1   BANK2   BANK3   BANK4   BANK5
  7906 ;;      Params:         8       0       0       0       0       0       0
  7907 ;;      Locals:        13       0       0       0       0       0       0
  7908 ;;      Temps:          4       0       0       0       0       0       0
  7909 ;;      Totals:        25       0       0       0       0       0       0
  7910 ;;Total ram usage:       25 bytes
  7911 ;; Hardware stack levels used: 1
  7912 ;; Hardware stack levels required when called: 2
  7913 ;; This function calls:
  7914 ;;		Nothing
  7915 ;; This function is called by:
  7916 ;;		_updateYaw
  7917 ;;		_efgtoa
  7918 ;; This function uses a non-reentrant model
  7919 ;;
  7920                           
  7921                           	psect	text26
  7922   0012DA                     __ptext26:
  7923                           	callstack 0
  7924   0012DA                     ___fldiv:
  7925                           	callstack 27
  7926   0012DA  5012               	movf	(___fldiv@b+3)^0,w,c
  7927   0012DC  0B80               	andlw	128
  7928   0012DE  6E1F               	movwf	___fldiv@sign^0,c
  7929   0012E0  5012               	movf	(___fldiv@b+3)^0,w,c
  7930   0012E2  2412               	addwf	(___fldiv@b+3)^0,w,c
  7931   0012E4  6E26               	movwf	___fldiv@bexp^0,c
  7932   0012E6  AE11               	btfss	(___fldiv@b+2)^0,7,c
  7933   0012E8  EF78  F009         	goto	u2861
  7934   0012EC  EF7A  F009         	goto	u2860
  7935   0012F0                     u2861:
  7936   0012F0  EF7B  F009         	goto	l3163
  7937   0012F4                     u2860:
  7938   0012F4  8026               	bsf	___fldiv@bexp^0,0,c
  7939   0012F6                     l3163:
  7940   0012F6  5026               	movf	___fldiv@bexp^0,w,c
  7941   0012F8  B4D8               	btfsc	status,2,c
  7942   0012FA  EF81  F009         	goto	u2871
  7943   0012FE  EF83  F009         	goto	u2870
  7944   001302                     u2871:
  7945   001302  EF97  F009         	goto	l3173
  7946   001306                     u2870:
  7947   001306  2826               	incf	___fldiv@bexp^0,w,c
  7948   001308  A4D8               	btfss	status,2,c
  7949   00130A  EF89  F009         	goto	u2881
  7950   00130E  EF8B  F009         	goto	u2880
  7951   001312                     u2881:
  7952   001312  EF93  F009         	goto	l3169
  7953   001316                     u2880:
  7954   001316  0E00               	movlw	0
  7955   001318  6E0F               	movwf	___fldiv@b^0,c
  7956   00131A  0E00               	movlw	0
  7957   00131C  6E10               	movwf	(___fldiv@b+1)^0,c
  7958   00131E  0E00               	movlw	0
  7959   001320  6E11               	movwf	(___fldiv@b+2)^0,c
  7960   001322  0E00               	movlw	0
  7961   001324  6E12               	movwf	(___fldiv@b+3)^0,c
  7962   001326                     l3169:
  7963   001326  8E11               	bsf	(___fldiv@b+2)^0,7,c
  7964   001328  6A12               	clrf	(___fldiv@b+3)^0,c
  7965   00132A  EF9F  F009         	goto	l3175
  7966   00132E                     l3173:
  7967   00132E  0E00               	movlw	0
  7968   001330  6E0F               	movwf	___fldiv@b^0,c
  7969   001332  0E00               	movlw	0
  7970   001334  6E10               	movwf	(___fldiv@b+1)^0,c
  7971   001336  0E00               	movlw	0
  7972   001338  6E11               	movwf	(___fldiv@b+2)^0,c
  7973   00133A  0E00               	movlw	0
  7974   00133C  6E12               	movwf	(___fldiv@b+3)^0,c
  7975   00133E                     l3175:
  7976   00133E  5016               	movf	(___fldiv@a+3)^0,w,c
  7977   001340  0B80               	andlw	128
  7978   001342  1A1F               	xorwf	___fldiv@sign^0,f,c
  7979   001344  5016               	movf	(___fldiv@a+3)^0,w,c
  7980   001346  2416               	addwf	(___fldiv@a+3)^0,w,c
  7981   001348  6E27               	movwf	___fldiv@aexp^0,c
  7982   00134A  AE15               	btfss	(___fldiv@a+2)^0,7,c
  7983   00134C  EFAA  F009         	goto	u2891
  7984   001350  EFAC  F009         	goto	u2890
  7985   001354                     u2891:
  7986   001354  EFAD  F009         	goto	l3183
  7987   001358                     u2890:
  7988   001358  8027               	bsf	___fldiv@aexp^0,0,c
  7989   00135A                     l3183:
  7990   00135A  5027               	movf	___fldiv@aexp^0,w,c
  7991   00135C  B4D8               	btfsc	status,2,c
  7992   00135E  EFB3  F009         	goto	u2901
  7993   001362  EFB5  F009         	goto	u2900
  7994   001366                     u2901:
  7995   001366  EFC9  F009         	goto	l3193
  7996   00136A                     u2900:
  7997   00136A  2827               	incf	___fldiv@aexp^0,w,c
  7998   00136C  A4D8               	btfss	status,2,c
  7999   00136E  EFBB  F009         	goto	u2911
  8000   001372  EFBD  F009         	goto	u2910
  8001   001376                     u2911:
  8002   001376  EFC5  F009         	goto	l3189
  8003   00137A                     u2910:
  8004   00137A  0E00               	movlw	0
  8005   00137C  6E13               	movwf	___fldiv@a^0,c
  8006   00137E  0E00               	movlw	0
  8007   001380  6E14               	movwf	(___fldiv@a+1)^0,c
  8008   001382  0E00               	movlw	0
  8009   001384  6E15               	movwf	(___fldiv@a+2)^0,c
  8010   001386  0E00               	movlw	0
  8011   001388  6E16               	movwf	(___fldiv@a+3)^0,c
  8012   00138A                     l3189:
  8013   00138A  8E15               	bsf	(___fldiv@a+2)^0,7,c
  8014   00138C  6A16               	clrf	(___fldiv@a+3)^0,c
  8015   00138E  EFD1  F009         	goto	l3195
  8016   001392                     l3193:
  8017   001392  0E00               	movlw	0
  8018   001394  6E13               	movwf	___fldiv@a^0,c
  8019   001396  0E00               	movlw	0
  8020   001398  6E14               	movwf	(___fldiv@a+1)^0,c
  8021   00139A  0E00               	movlw	0
  8022   00139C  6E15               	movwf	(___fldiv@a+2)^0,c
  8023   00139E  0E00               	movlw	0
  8024   0013A0  6E16               	movwf	(___fldiv@a+3)^0,c
  8025   0013A2                     l3195:
  8026   0013A2  5013               	movf	___fldiv@a^0,w,c
  8027   0013A4  1014               	iorwf	(___fldiv@a+1)^0,w,c
  8028   0013A6  1015               	iorwf	(___fldiv@a+2)^0,w,c
  8029   0013A8  1016               	iorwf	(___fldiv@a+3)^0,w,c
  8030   0013AA  A4D8               	btfss	status,2,c
  8031   0013AC  EFDA  F009         	goto	u2921
  8032   0013B0  EFDC  F009         	goto	u2920
  8033   0013B4                     u2921:
  8034   0013B4  EFF4  F009         	goto	l3207
  8035   0013B8                     u2920:
  8036   0013B8  0E00               	movlw	0
  8037   0013BA  6E0F               	movwf	___fldiv@b^0,c
  8038   0013BC  0E00               	movlw	0
  8039   0013BE  6E10               	movwf	(___fldiv@b+1)^0,c
  8040   0013C0  0E00               	movlw	0
  8041   0013C2  6E11               	movwf	(___fldiv@b+2)^0,c
  8042   0013C4  0E00               	movlw	0
  8043   0013C6  6E12               	movwf	(___fldiv@b+3)^0,c
  8044   0013C8  0E80               	movlw	128
  8045   0013CA  1211               	iorwf	(___fldiv@b+2)^0,f,c
  8046   0013CC  0E7F               	movlw	127
  8047   0013CE  1212               	iorwf	(___fldiv@b+3)^0,f,c
  8048   0013D0                     l3201:
  8049   0013D0  501F               	movf	___fldiv@sign^0,w,c
  8050   0013D2  1212               	iorwf	(___fldiv@b+3)^0,f,c
  8051   0013D4  C00F  F00F         	movff	___fldiv@b,?___fldiv
  8052   0013D8  C010  F010         	movff	___fldiv@b+1,?___fldiv+1
  8053   0013DC  C011  F011         	movff	___fldiv@b+2,?___fldiv+2
  8054   0013E0  C012  F012         	movff	___fldiv@b+3,?___fldiv+3
  8055   0013E4  EF34  F00B         	goto	l899
  8056   0013E8                     l3207:
  8057   0013E8  5026               	movf	___fldiv@bexp^0,w,c
  8058   0013EA  A4D8               	btfss	status,2,c
  8059   0013EC  EFFA  F009         	goto	u2931
  8060   0013F0  EFFC  F009         	goto	u2930
  8061   0013F4                     u2931:
  8062   0013F4  EF06  F00A         	goto	l3215
  8063   0013F8                     u2930:
  8064   0013F8  0E00               	movlw	0
  8065   0013FA  6E0F               	movwf	?___fldiv^0,c
  8066   0013FC  0E00               	movlw	0
  8067   0013FE  6E10               	movwf	(?___fldiv+1)^0,c
  8068   001400  0E00               	movlw	0
  8069   001402  6E11               	movwf	(?___fldiv+2)^0,c
  8070   001404  0E00               	movlw	0
  8071   001406  6E12               	movwf	(?___fldiv+3)^0,c
  8072   001408  EF34  F00B         	goto	l899
  8073   00140C                     l3215:
  8074   00140C  5027               	movf	___fldiv@aexp^0,w,c
  8075   00140E  C026  F017         	movff	___fldiv@bexp,??___fldiv
  8076   001412  6A18               	clrf	(??___fldiv+1)^0,c
  8077   001414  5E17               	subwf	??___fldiv^0,f,c
  8078   001416  0E00               	movlw	0
  8079   001418  5A18               	subwfb	(??___fldiv+1)^0,f,c
  8080   00141A  0E7F               	movlw	127
  8081   00141C  2417               	addwf	??___fldiv^0,w,c
  8082   00141E  6E20               	movwf	___fldiv@new_exp^0,c
  8083   001420  0E00               	movlw	0
  8084   001422  2018               	addwfc	(??___fldiv+1)^0,w,c
  8085   001424  6E21               	movwf	(___fldiv@new_exp+1)^0,c
  8086   001426  C00F  F01B         	movff	___fldiv@b,___fldiv@rem
  8087   00142A  C010  F01C         	movff	___fldiv@b+1,___fldiv@rem+1
  8088   00142E  C011  F01D         	movff	___fldiv@b+2,___fldiv@rem+2
  8089   001432  C012  F01E         	movff	___fldiv@b+3,___fldiv@rem+3
  8090   001436  0E00               	movlw	0
  8091   001438  6E0F               	movwf	___fldiv@b^0,c
  8092   00143A  0E00               	movlw	0
  8093   00143C  6E10               	movwf	(___fldiv@b+1)^0,c
  8094   00143E  0E00               	movlw	0
  8095   001440  6E11               	movwf	(___fldiv@b+2)^0,c
  8096   001442  0E00               	movlw	0
  8097   001444  6E12               	movwf	(___fldiv@b+3)^0,c
  8098   001446  0E00               	movlw	0
  8099   001448  6E22               	movwf	___fldiv@grs^0,c
  8100   00144A  0E00               	movlw	0
  8101   00144C  6E23               	movwf	(___fldiv@grs+1)^0,c
  8102   00144E  0E00               	movlw	0
  8103   001450  6E24               	movwf	(___fldiv@grs+2)^0,c
  8104   001452  0E00               	movlw	0
  8105   001454  6E25               	movwf	(___fldiv@grs+3)^0,c
  8106   001456  6A27               	clrf	___fldiv@aexp^0,c
  8107   001458  EF66  F00A         	goto	l901
  8108   00145C                     l3225:
  8109   00145C  5027               	movf	___fldiv@aexp^0,w,c
  8110   00145E  B4D8               	btfsc	status,2,c
  8111   001460  EF34  F00A         	goto	u2941
  8112   001464  EF36  F00A         	goto	u2940
  8113   001468                     u2941:
  8114   001468  EF4D  F00A         	goto	l3233
  8115   00146C                     u2940:
  8116   00146C  90D8               	bcf	status,0,c
  8117   00146E  361B               	rlcf	___fldiv@rem^0,f,c
  8118   001470  361C               	rlcf	(___fldiv@rem+1)^0,f,c
  8119   001472  361D               	rlcf	(___fldiv@rem+2)^0,f,c
  8120   001474  361E               	rlcf	(___fldiv@rem+3)^0,f,c
  8121   001476  90D8               	bcf	status,0,c
  8122   001478  360F               	rlcf	___fldiv@b^0,f,c
  8123   00147A  3610               	rlcf	(___fldiv@b+1)^0,f,c
  8124   00147C  3611               	rlcf	(___fldiv@b+2)^0,f,c
  8125   00147E  3612               	rlcf	(___fldiv@b+3)^0,f,c
  8126   001480  AE25               	btfss	(___fldiv@grs+3)^0,7,c
  8127   001482  EF45  F00A         	goto	u2951
  8128   001486  EF47  F00A         	goto	u2950
  8129   00148A                     u2951:
  8130   00148A  EF48  F00A         	goto	l904
  8131   00148E                     u2950:
  8132   00148E  800F               	bsf	___fldiv@b^0,0,c
  8133   001490                     l904:
  8134   001490  90D8               	bcf	status,0,c
  8135   001492  3622               	rlcf	___fldiv@grs^0,f,c
  8136   001494  3623               	rlcf	(___fldiv@grs+1)^0,f,c
  8137   001496  3624               	rlcf	(___fldiv@grs+2)^0,f,c
  8138   001498  3625               	rlcf	(___fldiv@grs+3)^0,f,c
  8139   00149A                     l3233:
  8140   00149A  5013               	movf	___fldiv@a^0,w,c
  8141   00149C  5C1B               	subwf	___fldiv@rem^0,w,c
  8142   00149E  5014               	movf	(___fldiv@a+1)^0,w,c
  8143   0014A0  581C               	subwfb	(___fldiv@rem+1)^0,w,c
  8144   0014A2  5015               	movf	(___fldiv@a+2)^0,w,c
  8145   0014A4  581D               	subwfb	(___fldiv@rem+2)^0,w,c
  8146   0014A6  5016               	movf	(___fldiv@a+3)^0,w,c
  8147   0014A8  581E               	subwfb	(___fldiv@rem+3)^0,w,c
  8148   0014AA  A0D8               	btfss	status,0,c
  8149   0014AC  EF5A  F00A         	goto	u2961
  8150   0014B0  EF5C  F00A         	goto	u2960
  8151   0014B4                     u2961:
  8152   0014B4  EF65  F00A         	goto	l3239
  8153   0014B8                     u2960:
  8154   0014B8  8C25               	bsf	(___fldiv@grs+3)^0,6,c
  8155   0014BA  5013               	movf	___fldiv@a^0,w,c
  8156   0014BC  5E1B               	subwf	___fldiv@rem^0,f,c
  8157   0014BE  5014               	movf	(___fldiv@a+1)^0,w,c
  8158   0014C0  5A1C               	subwfb	(___fldiv@rem+1)^0,f,c
  8159   0014C2  5015               	movf	(___fldiv@a+2)^0,w,c
  8160   0014C4  5A1D               	subwfb	(___fldiv@rem+2)^0,f,c
  8161   0014C6  5016               	movf	(___fldiv@a+3)^0,w,c
  8162   0014C8  5A1E               	subwfb	(___fldiv@rem+3)^0,f,c
  8163   0014CA                     l3239:
  8164   0014CA  2A27               	incf	___fldiv@aexp^0,f,c
  8165   0014CC                     l901:
  8166   0014CC  0E19               	movlw	25
  8167   0014CE  6427               	cpfsgt	___fldiv@aexp^0,c
  8168   0014D0  EF6C  F00A         	goto	u2971
  8169   0014D4  EF6E  F00A         	goto	u2970
  8170   0014D8                     u2971:
  8171   0014D8  EF2E  F00A         	goto	l3225
  8172   0014DC                     u2970:
  8173   0014DC  501B               	movf	___fldiv@rem^0,w,c
  8174   0014DE  101C               	iorwf	(___fldiv@rem+1)^0,w,c
  8175   0014E0  101D               	iorwf	(___fldiv@rem+2)^0,w,c
  8176   0014E2  101E               	iorwf	(___fldiv@rem+3)^0,w,c
  8177   0014E4  B4D8               	btfsc	status,2,c
  8178   0014E6  EF77  F00A         	goto	u2981
  8179   0014EA  EF79  F00A         	goto	u2980
  8180   0014EE                     u2981:
  8181   0014EE  EF91  F00A         	goto	l3251
  8182   0014F2                     u2980:
  8183   0014F2  8022               	bsf	___fldiv@grs^0,0,c
  8184   0014F4  EF91  F00A         	goto	l3251
  8185   0014F8                     l3245:
  8186   0014F8  90D8               	bcf	status,0,c
  8187   0014FA  360F               	rlcf	___fldiv@b^0,f,c
  8188   0014FC  3610               	rlcf	(___fldiv@b+1)^0,f,c
  8189   0014FE  3611               	rlcf	(___fldiv@b+2)^0,f,c
  8190   001500  3612               	rlcf	(___fldiv@b+3)^0,f,c
  8191   001502  AE25               	btfss	(___fldiv@grs+3)^0,7,c
  8192   001504  EF86  F00A         	goto	u2991
  8193   001508  EF88  F00A         	goto	u2990
  8194   00150C                     u2991:
  8195   00150C  EF89  F00A         	goto	l910
  8196   001510                     u2990:
  8197   001510  800F               	bsf	___fldiv@b^0,0,c
  8198   001512                     l910:
  8199   001512  90D8               	bcf	status,0,c
  8200   001514  3622               	rlcf	___fldiv@grs^0,f,c
  8201   001516  3623               	rlcf	(___fldiv@grs+1)^0,f,c
  8202   001518  3624               	rlcf	(___fldiv@grs+2)^0,f,c
  8203   00151A  3625               	rlcf	(___fldiv@grs+3)^0,f,c
  8204   00151C  0620               	decf	___fldiv@new_exp^0,f,c
  8205   00151E  A0D8               	btfss	status,0,c
  8206   001520  0621               	decf	(___fldiv@new_exp+1)^0,f,c
  8207   001522                     l3251:
  8208   001522  AE11               	btfss	(___fldiv@b+2)^0,7,c
  8209   001524  EF96  F00A         	goto	u3001
  8210   001528  EF98  F00A         	goto	u3000
  8211   00152C                     u3001:
  8212   00152C  EF7C  F00A         	goto	l3245
  8213   001530                     u3000:
  8214   001530  6A27               	clrf	___fldiv@aexp^0,c
  8215   001532  AE25               	btfss	(___fldiv@grs+3)^0,7,c
  8216   001534  EF9E  F00A         	goto	u3011
  8217   001538  EFA0  F00A         	goto	u3010
  8218   00153C                     u3011:
  8219   00153C  EFC4  F00A         	goto	l912
  8220   001540                     u3010:
  8221   001540  0EFF               	movlw	255
  8222   001542  1422               	andwf	___fldiv@grs^0,w,c
  8223   001544  6E17               	movwf	??___fldiv^0,c
  8224   001546  0EFF               	movlw	255
  8225   001548  1423               	andwf	(___fldiv@grs+1)^0,w,c
  8226   00154A  6E18               	movwf	(??___fldiv+1)^0,c
  8227   00154C  0EFF               	movlw	255
  8228   00154E  1424               	andwf	(___fldiv@grs+2)^0,w,c
  8229   001550  6E19               	movwf	(??___fldiv+2)^0,c
  8230   001552  0E7F               	movlw	127
  8231   001554  1425               	andwf	(___fldiv@grs+3)^0,w,c
  8232   001556  6E1A               	movwf	(??___fldiv+3)^0,c
  8233   001558  5017               	movf	??___fldiv^0,w,c
  8234   00155A  1018               	iorwf	(??___fldiv+1)^0,w,c
  8235   00155C  1019               	iorwf	(??___fldiv+2)^0,w,c
  8236   00155E  101A               	iorwf	(??___fldiv+3)^0,w,c
  8237   001560  B4D8               	btfsc	status,2,c
  8238   001562  EFB5  F00A         	goto	u3021
  8239   001566  EFB7  F00A         	goto	u3020
  8240   00156A                     u3021:
  8241   00156A  EFBB  F00A         	goto	l913
  8242   00156E                     u3020:
  8243   00156E                     l3255:
  8244   00156E  0E01               	movlw	1
  8245   001570  6E27               	movwf	___fldiv@aexp^0,c
  8246   001572  EFC4  F00A         	goto	l912
  8247   001576                     l913:
  8248   001576  A00F               	btfss	___fldiv@b^0,0,c
  8249   001578  EFC0  F00A         	goto	u3031
  8250   00157C  EFC2  F00A         	goto	u3030
  8251   001580                     u3031:
  8252   001580  EFC4  F00A         	goto	l912
  8253   001584                     u3030:
  8254   001584  EFB7  F00A         	goto	l3255
  8255   001588                     l912:
  8256   001588  5027               	movf	___fldiv@aexp^0,w,c
  8257   00158A  B4D8               	btfsc	status,2,c
  8258   00158C  EFCA  F00A         	goto	u3041
  8259   001590  EFCC  F00A         	goto	u3040
  8260   001594                     u3041:
  8261   001594  EFF0  F00A         	goto	l3267
  8262   001598                     u3040:
  8263   001598  0E01               	movlw	1
  8264   00159A  260F               	addwf	___fldiv@b^0,f,c
  8265   00159C  0E00               	movlw	0
  8266   00159E  2210               	addwfc	(___fldiv@b+1)^0,f,c
  8267   0015A0  2211               	addwfc	(___fldiv@b+2)^0,f,c
  8268   0015A2  2212               	addwfc	(___fldiv@b+3)^0,f,c
  8269   0015A4  A012               	btfss	(___fldiv@b+3)^0,0,c
  8270   0015A6  EFD7  F00A         	goto	u3051
  8271   0015AA  EFD9  F00A         	goto	u3050
  8272   0015AE                     u3051:
  8273   0015AE  EFF0  F00A         	goto	l3267
  8274   0015B2                     u3050:
  8275   0015B2  C00F  F017         	movff	___fldiv@b,??___fldiv
  8276   0015B6  C010  F018         	movff	___fldiv@b+1,??___fldiv+1
  8277   0015BA  C011  F019         	movff	___fldiv@b+2,??___fldiv+2
  8278   0015BE  C012  F01A         	movff	___fldiv@b+3,??___fldiv+3
  8279   0015C2  341A               	rlcf	(??___fldiv+3)^0,w,c
  8280   0015C4  321A               	rrcf	(??___fldiv+3)^0,f,c
  8281   0015C6  3219               	rrcf	(??___fldiv+2)^0,f,c
  8282   0015C8  3218               	rrcf	(??___fldiv+1)^0,f,c
  8283   0015CA  3217               	rrcf	??___fldiv^0,f,c
  8284   0015CC  C017  F00F         	movff	??___fldiv,___fldiv@b
  8285   0015D0  C018  F010         	movff	??___fldiv+1,___fldiv@b+1
  8286   0015D4  C019  F011         	movff	??___fldiv+2,___fldiv@b+2
  8287   0015D8  C01A  F012         	movff	??___fldiv+3,___fldiv@b+3
  8288   0015DC  4A20               	infsnz	___fldiv@new_exp^0,f,c
  8289   0015DE  2A21               	incf	(___fldiv@new_exp+1)^0,f,c
  8290   0015E0                     l3267:
  8291   0015E0  BE21               	btfsc	(___fldiv@new_exp+1)^0,7,c
  8292   0015E2  EFFB  F00A         	goto	u3061
  8293   0015E6  5021               	movf	(___fldiv@new_exp+1)^0,w,c
  8294   0015E8  E108               	bnz	u3060
  8295   0015EA  2820               	incf	___fldiv@new_exp^0,w,c
  8296   0015EC  A0D8               	btfss	status,0,c
  8297   0015EE  EFFB  F00A         	goto	u3061
  8298   0015F2  EFFD  F00A         	goto	u3060
  8299   0015F6                     u3061:
  8300   0015F6  EF08  F00B         	goto	l3271
  8301   0015FA                     u3060:
  8302   0015FA  0E00               	movlw	0
  8303   0015FC  6E21               	movwf	(___fldiv@new_exp+1)^0,c
  8304   0015FE  6820               	setf	___fldiv@new_exp^0,c
  8305   001600  0E00               	movlw	0
  8306   001602  6E0F               	movwf	___fldiv@b^0,c
  8307   001604  0E00               	movlw	0
  8308   001606  6E10               	movwf	(___fldiv@b+1)^0,c
  8309   001608  0E00               	movlw	0
  8310   00160A  6E11               	movwf	(___fldiv@b+2)^0,c
  8311   00160C  0E00               	movlw	0
  8312   00160E  6E12               	movwf	(___fldiv@b+3)^0,c
  8313   001610                     l3271:
  8314   001610  BE21               	btfsc	(___fldiv@new_exp+1)^0,7,c
  8315   001612  EF15  F00B         	goto	u3070
  8316   001616  5021               	movf	(___fldiv@new_exp+1)^0,w,c
  8317   001618  E106               	bnz	u3071
  8318   00161A  0420               	decf	___fldiv@new_exp^0,w,c
  8319   00161C  B0D8               	btfsc	status,0,c
  8320   00161E  EF13  F00B         	goto	u3071
  8321   001622  EF15  F00B         	goto	u3070
  8322   001626                     u3071:
  8323   001626  EF22  F00B         	goto	l3277
  8324   00162A                     u3070:
  8325   00162A  0E00               	movlw	0
  8326   00162C  6E21               	movwf	(___fldiv@new_exp+1)^0,c
  8327   00162E  0E00               	movlw	0
  8328   001630  6E20               	movwf	___fldiv@new_exp^0,c
  8329   001632  0E00               	movlw	0
  8330   001634  6E0F               	movwf	___fldiv@b^0,c
  8331   001636  0E00               	movlw	0
  8332   001638  6E10               	movwf	(___fldiv@b+1)^0,c
  8333   00163A  0E00               	movlw	0
  8334   00163C  6E11               	movwf	(___fldiv@b+2)^0,c
  8335   00163E  0E00               	movlw	0
  8336   001640  6E12               	movwf	(___fldiv@b+3)^0,c
  8337   001642  6A1F               	clrf	___fldiv@sign^0,c
  8338   001644                     l3277:
  8339   001644  C020  F026         	movff	___fldiv@new_exp,___fldiv@bexp
  8340   001648  A026               	btfss	___fldiv@bexp^0,0,c
  8341   00164A  EF29  F00B         	goto	u3081
  8342   00164E  EF2B  F00B         	goto	u3080
  8343   001652                     u3081:
  8344   001652  EF2E  F00B         	goto	l3283
  8345   001656                     u3080:
  8346   001656  8E11               	bsf	(___fldiv@b+2)^0,7,c
  8347   001658  EF2F  F00B         	goto	l3285
  8348   00165C                     l3283:
  8349   00165C  9E11               	bcf	(___fldiv@b+2)^0,7,c
  8350   00165E                     l3285:
  8351   00165E  90D8               	bcf	status,0,c
  8352   001660  3026               	rrcf	___fldiv@bexp^0,w,c
  8353   001662  6E12               	movwf	(___fldiv@b+3)^0,c
  8354   001664  EFE8  F009         	goto	l3201
  8355   001668                     l899:
  8356   001668  0012               	return		;funcret
  8357   00166A                     __end_of___fldiv:
  8358                           	callstack 0
  8359                           
  8360 ;; *************** function ___lwmod *****************
  8361 ;; Defined at:
  8362 ;;		line 7 in file "C:\Program Files\Microchip\xc8\v3.00\pic\sources\c99\common\lwmod.c"
  8363 ;; Parameters:    Size  Location     Type
  8364 ;;  dividend        2    0[COMRAM] unsigned int 
  8365 ;;  divisor         2    2[COMRAM] unsigned int 
  8366 ;; Auto vars:     Size  Location     Type
  8367 ;;  counter         1    4[COMRAM] unsigned char 
  8368 ;; Return value:  Size  Location     Type
  8369 ;;                  2    0[COMRAM] unsigned int 
  8370 ;; Registers used:
  8371 ;;		wreg, status,2, status,0
  8372 ;; Tracked objects:
  8373 ;;		On entry : 0/0
  8374 ;;		On exit  : 0/0
  8375 ;;		Unchanged: 0/0
  8376 ;; Data sizes:     COMRAM   BANK0   BANK1   BANK2   BANK3   BANK4   BANK5
  8377 ;;      Params:         4       0       0       0       0       0       0
  8378 ;;      Locals:         1       0       0       0       0       0       0
  8379 ;;      Temps:          0       0       0       0       0       0       0
  8380 ;;      Totals:         5       0       0       0       0       0       0
  8381 ;;Total ram usage:        5 bytes
  8382 ;; Hardware stack levels used: 1
  8383 ;; Hardware stack levels required when called: 2
  8384 ;; This function calls:
  8385 ;;		Nothing
  8386 ;; This function is called by:
  8387 ;;		_vfpfcnvrt
  8388 ;; This function uses a non-reentrant model
  8389 ;;
  8390                           
  8391                           	psect	text27
  8392   003300                     __ptext27:
  8393                           	callstack 0
  8394   003300                     ___lwmod:
  8395                           	callstack 25
  8396   003300  5003               	movf	___lwmod@divisor^0,w,c
  8397   003302  1004               	iorwf	(___lwmod@divisor+1)^0,w,c
  8398   003304  B4D8               	btfsc	status,2,c
  8399   003306  EF87  F019         	goto	u3701
  8400   00330A  EF89  F019         	goto	u3700
  8401   00330E                     u3701:
  8402   00330E  EFAD  F019         	goto	l818
  8403   003312                     u3700:
  8404   003312  0E01               	movlw	1
  8405   003314  6E05               	movwf	___lwmod@counter^0,c
  8406   003316  EF91  F019         	goto	l3625
  8407   00331A                     l3623:
  8408   00331A  90D8               	bcf	status,0,c
  8409   00331C  3603               	rlcf	___lwmod@divisor^0,f,c
  8410   00331E  3604               	rlcf	(___lwmod@divisor+1)^0,f,c
  8411   003320  2A05               	incf	___lwmod@counter^0,f,c
  8412   003322                     l3625:
  8413   003322  AE04               	btfss	(___lwmod@divisor+1)^0,7,c
  8414   003324  EF96  F019         	goto	u3711
  8415   003328  EF98  F019         	goto	u3710
  8416   00332C                     u3711:
  8417   00332C  EF8D  F019         	goto	l3623
  8418   003330                     u3710:
  8419   003330                     l3627:
  8420   003330  5003               	movf	___lwmod@divisor^0,w,c
  8421   003332  5C01               	subwf	___lwmod@dividend^0,w,c
  8422   003334  5004               	movf	(___lwmod@divisor+1)^0,w,c
  8423   003336  5802               	subwfb	(___lwmod@dividend+1)^0,w,c
  8424   003338  A0D8               	btfss	status,0,c
  8425   00333A  EFA1  F019         	goto	u3721
  8426   00333E  EFA3  F019         	goto	u3720
  8427   003342                     u3721:
  8428   003342  EFA7  F019         	goto	l3631
  8429   003346                     u3720:
  8430   003346  5003               	movf	___lwmod@divisor^0,w,c
  8431   003348  5E01               	subwf	___lwmod@dividend^0,f,c
  8432   00334A  5004               	movf	(___lwmod@divisor+1)^0,w,c
  8433   00334C  5A02               	subwfb	(___lwmod@dividend+1)^0,f,c
  8434   00334E                     l3631:
  8435   00334E  90D8               	bcf	status,0,c
  8436   003350  3204               	rrcf	(___lwmod@divisor+1)^0,f,c
  8437   003352  3203               	rrcf	___lwmod@divisor^0,f,c
  8438   003354  2E05               	decfsz	___lwmod@counter^0,f,c
  8439   003356  EF98  F019         	goto	l3627
  8440   00335A                     l818:
  8441   00335A  C001  F001         	movff	___lwmod@dividend,?___lwmod
  8442   00335E  C002  F002         	movff	___lwmod@dividend+1,?___lwmod+1
  8443   003362  0012               	return		;funcret
  8444   003364                     __end_of___lwmod:
  8445                           	callstack 0
  8446                           
  8447 ;; *************** function ___lwdiv *****************
  8448 ;; Defined at:
  8449 ;;		line 7 in file "C:\Program Files\Microchip\xc8\v3.00\pic\sources\c99\common\lwdiv.c"
  8450 ;; Parameters:    Size  Location     Type
  8451 ;;  dividend        2    0[COMRAM] unsigned int 
  8452 ;;  divisor         2    2[COMRAM] unsigned int 
  8453 ;; Auto vars:     Size  Location     Type
  8454 ;;  quotient        2    4[COMRAM] unsigned int 
  8455 ;;  counter         1    6[COMRAM] unsigned char 
  8456 ;; Return value:  Size  Location     Type
  8457 ;;                  2    0[COMRAM] unsigned int 
  8458 ;; Registers used:
  8459 ;;		wreg, status,2, status,0
  8460 ;; Tracked objects:
  8461 ;;		On entry : 0/0
  8462 ;;		On exit  : 0/0
  8463 ;;		Unchanged: 0/0
  8464 ;; Data sizes:     COMRAM   BANK0   BANK1   BANK2   BANK3   BANK4   BANK5
  8465 ;;      Params:         4       0       0       0       0       0       0
  8466 ;;      Locals:         3       0       0       0       0       0       0
  8467 ;;      Temps:          0       0       0       0       0       0       0
  8468 ;;      Totals:         7       0       0       0       0       0       0
  8469 ;;Total ram usage:        7 bytes
  8470 ;; Hardware stack levels used: 1
  8471 ;; Hardware stack levels required when called: 2
  8472 ;; This function calls:
  8473 ;;		Nothing
  8474 ;; This function is called by:
  8475 ;;		_vfpfcnvrt
  8476 ;; This function uses a non-reentrant model
  8477 ;;
  8478                           
  8479                           	psect	text28
  8480   0030EA                     __ptext28:
  8481                           	callstack 0
  8482   0030EA                     ___lwdiv:
  8483                           	callstack 25
  8484   0030EA  0E00               	movlw	0
  8485   0030EC  6E06               	movwf	(___lwdiv@quotient+1)^0,c
  8486   0030EE  0E00               	movlw	0
  8487   0030F0  6E05               	movwf	___lwdiv@quotient^0,c
  8488   0030F2  5003               	movf	___lwdiv@divisor^0,w,c
  8489   0030F4  1004               	iorwf	(___lwdiv@divisor+1)^0,w,c
  8490   0030F6  B4D8               	btfsc	status,2,c
  8491   0030F8  EF80  F018         	goto	u3671
  8492   0030FC  EF82  F018         	goto	u3670
  8493   003100                     u3671:
  8494   003100  EFAA  F018         	goto	l808
  8495   003104                     u3670:
  8496   003104  0E01               	movlw	1
  8497   003106  6E07               	movwf	___lwdiv@counter^0,c
  8498   003108  EF8A  F018         	goto	l3605
  8499   00310C                     l3603:
  8500   00310C  90D8               	bcf	status,0,c
  8501   00310E  3603               	rlcf	___lwdiv@divisor^0,f,c
  8502   003110  3604               	rlcf	(___lwdiv@divisor+1)^0,f,c
  8503   003112  2A07               	incf	___lwdiv@counter^0,f,c
  8504   003114                     l3605:
  8505   003114  AE04               	btfss	(___lwdiv@divisor+1)^0,7,c
  8506   003116  EF8F  F018         	goto	u3681
  8507   00311A  EF91  F018         	goto	u3680
  8508   00311E                     u3681:
  8509   00311E  EF86  F018         	goto	l3603
  8510   003122                     u3680:
  8511   003122                     l3607:
  8512   003122  90D8               	bcf	status,0,c
  8513   003124  3605               	rlcf	___lwdiv@quotient^0,f,c
  8514   003126  3606               	rlcf	(___lwdiv@quotient+1)^0,f,c
  8515   003128  5003               	movf	___lwdiv@divisor^0,w,c
  8516   00312A  5C01               	subwf	___lwdiv@dividend^0,w,c
  8517   00312C  5004               	movf	(___lwdiv@divisor+1)^0,w,c
  8518   00312E  5802               	subwfb	(___lwdiv@dividend+1)^0,w,c
  8519   003130  A0D8               	btfss	status,0,c
  8520   003132  EF9D  F018         	goto	u3691
  8521   003136  EF9F  F018         	goto	u3690
  8522   00313A                     u3691:
  8523   00313A  EFA4  F018         	goto	l3615
  8524   00313E                     u3690:
  8525   00313E  5003               	movf	___lwdiv@divisor^0,w,c
  8526   003140  5E01               	subwf	___lwdiv@dividend^0,f,c
  8527   003142  5004               	movf	(___lwdiv@divisor+1)^0,w,c
  8528   003144  5A02               	subwfb	(___lwdiv@dividend+1)^0,f,c
  8529   003146  8005               	bsf	___lwdiv@quotient^0,0,c
  8530   003148                     l3615:
  8531   003148  90D8               	bcf	status,0,c
  8532   00314A  3204               	rrcf	(___lwdiv@divisor+1)^0,f,c
  8533   00314C  3203               	rrcf	___lwdiv@divisor^0,f,c
  8534   00314E  2E07               	decfsz	___lwdiv@counter^0,f,c
  8535   003150  EF91  F018         	goto	l3607
  8536   003154                     l808:
  8537   003154  C005  F001         	movff	___lwdiv@quotient,?___lwdiv
  8538   003158  C006  F002         	movff	___lwdiv@quotient+1,?___lwdiv+1
  8539   00315C  0012               	return		;funcret
  8540   00315E                     __end_of___lwdiv:
  8541                           	callstack 0
  8542                           
  8543 ;; *************** function _SendString *****************
  8544 ;; Defined at:
  8545 ;;		line 59 in file "./EUSART.h"
  8546 ;; Parameters:    Size  Location     Type
  8547 ;;  str             1    1[COMRAM] PTR unsigned char 
  8548 ;;		 -> UpdateScreen@a(7), 
  8549 ;; Auto vars:     Size  Location     Type
  8550 ;;		None
  8551 ;; Return value:  Size  Location     Type
  8552 ;;                  1    wreg      void 
  8553 ;; Registers used:
  8554 ;;		wreg, fsr2l, fsr2h, status,2, status,0, cstack
  8555 ;; Tracked objects:
  8556 ;;		On entry : 0/0
  8557 ;;		On exit  : 0/0
  8558 ;;		Unchanged: 0/0
  8559 ;; Data sizes:     COMRAM   BANK0   BANK1   BANK2   BANK3   BANK4   BANK5
  8560 ;;      Params:         1       0       0       0       0       0       0
  8561 ;;      Locals:         0       0       0       0       0       0       0
  8562 ;;      Temps:          0       0       0       0       0       0       0
  8563 ;;      Totals:         1       0       0       0       0       0       0
  8564 ;;Total ram usage:        1 bytes
  8565 ;; Hardware stack levels used: 1
  8566 ;; Hardware stack levels required when called: 3
  8567 ;; This function calls:
  8568 ;;		_SendByte
  8569 ;; This function is called by:
  8570 ;;		_UpdateScreen
  8571 ;; This function uses a non-reentrant model
  8572 ;;
  8573                           
  8574                           	psect	text29
  8575   0036AA                     __ptext29:
  8576                           	callstack 0
  8577   0036AA                     _SendString:
  8578                           	callstack 26
  8579   0036AA                     
  8580                           ;./EUSART.h: 60:     while (*str != '\0') {
  8581   0036AA  EF5E  F01B         	goto	l4149
  8582   0036AE                     l4145:
  8583                           
  8584                           ;./EUSART.h: 61:         SendByte(*str++);
  8585   0036AE  5002               	movf	SendString@str^0,w,c
  8586   0036B0  6ED9               	movwf	fsr2l,c
  8587   0036B2  6ADA               	clrf	fsr2h,c
  8588   0036B4  50DF               	movf	indf2,w,c
  8589   0036B6  ECB9  F01B         	call	_SendByte
  8590   0036BA  2A02               	incf	SendString@str^0,f,c
  8591   0036BC                     l4149:
  8592                           
  8593                           ;./EUSART.h: 60:     while (*str != '\0') {
  8594   0036BC  5002               	movf	SendString@str^0,w,c
  8595   0036BE  6ED9               	movwf	fsr2l,c
  8596   0036C0  6ADA               	clrf	fsr2h,c
  8597   0036C2  50DF               	movf	indf2,w,c
  8598   0036C4  A4D8               	btfss	status,2,c
  8599   0036C6  EF67  F01B         	goto	u4381
  8600   0036CA  EF69  F01B         	goto	u4380
  8601   0036CE                     u4381:
  8602   0036CE  EF57  F01B         	goto	l4145
  8603   0036D2                     u4380:
  8604   0036D2  0012               	return		;funcret
  8605   0036D4                     __end_of_SendString:
  8606                           	callstack 0
  8607                           
  8608 ;; *************** function _SendByte *****************
  8609 ;; Defined at:
  8610 ;;		line 53 in file "./EUSART.h"
  8611 ;; Parameters:    Size  Location     Type
  8612 ;;  ch              1    wreg     unsigned char 
  8613 ;; Auto vars:     Size  Location     Type
  8614 ;;  ch              1    0[COMRAM] unsigned char 
  8615 ;; Return value:  Size  Location     Type
  8616 ;;                  1    wreg      void 
  8617 ;; Registers used:
  8618 ;;		wreg
  8619 ;; Tracked objects:
  8620 ;;		On entry : 0/0
  8621 ;;		On exit  : 0/0
  8622 ;;		Unchanged: 0/0
  8623 ;; Data sizes:     COMRAM   BANK0   BANK1   BANK2   BANK3   BANK4   BANK5
  8624 ;;      Params:         0       0       0       0       0       0       0
  8625 ;;      Locals:         1       0       0       0       0       0       0
  8626 ;;      Temps:          0       0       0       0       0       0       0
  8627 ;;      Totals:         1       0       0       0       0       0       0
  8628 ;;Total ram usage:        1 bytes
  8629 ;; Hardware stack levels used: 1
  8630 ;; Hardware stack levels required when called: 2
  8631 ;; This function calls:
  8632 ;;		Nothing
  8633 ;; This function is called by:
  8634 ;;		_SendString
  8635 ;;		_main
  8636 ;; This function uses a non-reentrant model
  8637 ;;
  8638                           
  8639                           	psect	text30
  8640   003772                     __ptext30:
  8641                           	callstack 0
  8642   003772                     _SendByte:
  8643                           	callstack 26
  8644                           
  8645                           ;incstack = 0
  8646                           ;SendByte@ch stored from wreg
  8647   003772  6E01               	movwf	SendByte@ch^0,c
  8648   003774                     l219:
  8649   003774  A89E               	btfss	3998,4,c	;volatile
  8650   003776  EFBF  F01B         	goto	u4191
  8651   00377A  EFC1  F01B         	goto	u4190
  8652   00377E                     u4191:
  8653   00377E  EFBA  F01B         	goto	l219
  8654   003782                     u4190:
  8655   003782                     
  8656                           ;./EUSART.h: 56:     TXREG = ch;
  8657   003782  C001  FFAD         	movff	SendByte@ch,4013	;volatile
  8658   003786  0012               	return		;funcret
  8659   003788                     __end_of_SendByte:
  8660                           	callstack 0
  8661                           
  8662 ;; *************** function _SSD1306_String *****************
  8663 ;; Defined at:
  8664 ;;		line 110 in file "./SSD1306.h"
  8665 ;; Parameters:    Size  Location     Type
  8666 ;;  data            1   11[COMRAM] PTR const unsigned char 
  8667 ;;		 -> main@a(10), UpdateScreen@a(7), 
  8668 ;; Auto vars:     Size  Location     Type
  8669 ;;  i               2   24[COMRAM] int 
  8670 ;;  a               2   22[COMRAM] int 
  8671 ;;  pixData         5   17[COMRAM] unsigned char [5]
  8672 ;; Return value:  Size  Location     Type
  8673 ;;                  1    wreg      void 
  8674 ;; Registers used:
  8675 ;;		wreg, fsr1l, fsr1h, fsr2l, fsr2h, status,2, status,0, tblptrl, tblptrh, tblptru, prodl, prodh, cstack
  8676 ;; Tracked objects:
  8677 ;;		On entry : 0/0
  8678 ;;		On exit  : 0/0
  8679 ;;		Unchanged: 0/0
  8680 ;; Data sizes:     COMRAM   BANK0   BANK1   BANK2   BANK3   BANK4   BANK5
  8681 ;;      Params:         1       0       0       0       0       0       0
  8682 ;;      Locals:         9       0       0       0       0       0       0
  8683 ;;      Temps:          5       0       0       0       0       0       0
  8684 ;;      Totals:        15       0       0       0       0       0       0
  8685 ;;Total ram usage:       15 bytes
  8686 ;; Hardware stack levels used: 1
  8687 ;; Hardware stack levels required when called: 4
  8688 ;; This function calls:
  8689 ;;		_I2C_Start
  8690 ;;		_I2C_Stop
  8691 ;;		_I2C_Write
  8692 ;;		_memcpy
  8693 ;; This function is called by:
  8694 ;;		_UpdateScreen
  8695 ;;		_main
  8696 ;; This function uses a non-reentrant model
  8697 ;;
  8698                           
  8699                           	psect	text31
  8700   002BC2                     __ptext31:
  8701                           	callstack 0
  8702   002BC2                     _SSD1306_String:
  8703                           	callstack 25
  8704   002BC2                     
  8705                           ;./SSD1306.h: 112:     unsigned char pixData[5];;./SSD1306.h: 114:     for (int a=0; dat
      +                          a[a]!='\0'; a++){
  8706   002BC2  0E00               	movlw	0
  8707   002BC4  6E18               	movwf	(SSD1306_String@a+1)^0,c
  8708   002BC6  0E00               	movlw	0
  8709   002BC8  6E17               	movwf	SSD1306_String@a^0,c
  8710   002BCA  EF4A  F016         	goto	l4093
  8711   002BCE                     l4065:
  8712                           
  8713                           ;./SSD1306.h: 115:         if (data[a] <= '~'){
  8714   002BCE  500C               	movf	SSD1306_String@data^0,w,c
  8715   002BD0  2417               	addwf	SSD1306_String@a^0,w,c
  8716   002BD2  6ED9               	movwf	fsr2l,c
  8717   002BD4  6ADA               	clrf	fsr2h,c
  8718   002BD6  0E7F               	movlw	127
  8719   002BD8  60DF               	cpfslt	indf2,c
  8720   002BDA  EFF1  F015         	goto	u4321
  8721   002BDE  EFF3  F015         	goto	u4320
  8722   002BE2                     u4321:
  8723   002BE2  EF16  F016         	goto	l4069
  8724   002BE6                     u4320:
  8725   002BE6                     
  8726                           ;./SSD1306.h: 116:             memcpy(pixData, TEXT5x8[data[a]-' '], 5);
  8727   002BE6  0E12               	movlw	low SSD1306_String@pixData
  8728   002BE8  6E01               	movwf	memcpy@d1^0,c
  8729   002BEA  6A02               	clrf	(memcpy@d1+1)^0,c
  8730   002BEC  500C               	movf	SSD1306_String@data^0,w,c
  8731   002BEE  2417               	addwf	SSD1306_String@a^0,w,c
  8732   002BF0  6ED9               	movwf	fsr2l,c
  8733   002BF2  6ADA               	clrf	fsr2h,c
  8734   002BF4  50DF               	movf	indf2,w,c
  8735   002BF6  6E0D               	movwf	??_SSD1306_String^0,c
  8736   002BF8  500D               	movf	??_SSD1306_String^0,w,c
  8737   002BFA  0D05               	mullw	5
  8738   002BFC  CFF3 F00E          	movff	prodl,??_SSD1306_String+1
  8739   002C00  CFF4 F00F          	movff	prodh,??_SSD1306_String+2
  8740   002C04  0E60               	movlw	96
  8741   002C06  240E               	addwf	(??_SSD1306_String+1)^0,w,c
  8742   002C08  6E10               	movwf	(??_SSD1306_String+3)^0,c
  8743   002C0A  0EFF               	movlw	255
  8744   002C0C  200F               	addwfc	(??_SSD1306_String+2)^0,w,c
  8745   002C0E  6E11               	movwf	(??_SSD1306_String+4)^0,c
  8746   002C10  0E0F               	movlw	low _TEXT5x8
  8747   002C12  2410               	addwf	(??_SSD1306_String+3)^0,w,c
  8748   002C14  6E03               	movwf	memcpy@s1^0,c
  8749   002C16  0E7E               	movlw	high _TEXT5x8
  8750   002C18  2011               	addwfc	(??_SSD1306_String+4)^0,w,c
  8751   002C1A  6E04               	movwf	(memcpy@s1+1)^0,c
  8752   002C1C  0E00               	movlw	0
  8753   002C1E  6E06               	movwf	(memcpy@n+1)^0,c
  8754   002C20  0E05               	movlw	5
  8755   002C22  6E05               	movwf	memcpy@n^0,c
  8756   002C24  EC4D  F019         	call	_memcpy	;wreg free
  8757                           
  8758                           ;./SSD1306.h: 117:         }else{
  8759   002C28  EF23  F016         	goto	l4071
  8760   002C2C                     l4069:
  8761                           
  8762                           ;./SSD1306.h: 118:             memcpy(pixData, TEXT5x8[95], 5);
  8763   002C2C  0E12               	movlw	low SSD1306_String@pixData
  8764   002C2E  6E01               	movwf	memcpy@d1^0,c
  8765   002C30  6A02               	clrf	(memcpy@d1+1)^0,c
  8766   002C32  0EEA               	movlw	low (_TEXT5x8+475)
  8767   002C34  6E03               	movwf	memcpy@s1^0,c
  8768   002C36  0E7F               	movlw	high (_TEXT5x8+475)
  8769   002C38  6E04               	movwf	(memcpy@s1+1)^0,c
  8770   002C3A  0E00               	movlw	0
  8771   002C3C  6E06               	movwf	(memcpy@n+1)^0,c
  8772   002C3E  0E05               	movlw	5
  8773   002C40  6E05               	movwf	memcpy@n^0,c
  8774   002C42  EC4D  F019         	call	_memcpy	;wreg free
  8775   002C46                     l4071:
  8776                           
  8777                           ;./SSD1306.h: 121:         I2C_Start();
  8778   002C46  ECCF  F01B         	call	_I2C_Start	;wreg free
  8779   002C4A                     
  8780                           ;./SSD1306.h: 122:         I2C_Write(0x78);
  8781   002C4A  0E78               	movlw	120
  8782   002C4C  ECAB  F01B         	call	_I2C_Write
  8783   002C50                     
  8784                           ;./SSD1306.h: 123:         I2C_Write(0x40);
  8785   002C50  0E40               	movlw	64
  8786   002C52  ECAB  F01B         	call	_I2C_Write
  8787   002C56                     
  8788                           ;./SSD1306.h: 124:         for (int i=0; i<5; i++){
  8789   002C56  0E00               	movlw	0
  8790   002C58  6E1A               	movwf	(SSD1306_String@i+1)^0,c
  8791   002C5A  0E00               	movlw	0
  8792   002C5C  6E19               	movwf	SSD1306_String@i^0,c
  8793   002C5E                     l4083:
  8794                           
  8795                           ;./SSD1306.h: 125:             I2C_Write(pixData[i]);
  8796   002C5E  5019               	movf	SSD1306_String@i^0,w,c
  8797   002C60  0F12               	addlw	low SSD1306_String@pixData
  8798   002C62  6ED9               	movwf	fsr2l,c
  8799   002C64  6ADA               	clrf	fsr2h,c
  8800   002C66  50DF               	movf	indf2,w,c
  8801   002C68  ECAB  F01B         	call	_I2C_Write
  8802   002C6C                     
  8803                           ;./SSD1306.h: 126:         }
  8804   002C6C  4A19               	infsnz	SSD1306_String@i^0,f,c
  8805   002C6E  2A1A               	incf	(SSD1306_String@i+1)^0,f,c
  8806   002C70  BE1A               	btfsc	(SSD1306_String@i+1)^0,7,c
  8807   002C72  EF44  F016         	goto	u4331
  8808   002C76  501A               	movf	(SSD1306_String@i+1)^0,w,c
  8809   002C78  E109               	bnz	u4330
  8810   002C7A  0E05               	movlw	5
  8811   002C7C  5C19               	subwf	SSD1306_String@i^0,w,c
  8812   002C7E  A0D8               	btfss	status,0,c
  8813   002C80  EF44  F016         	goto	u4331
  8814   002C84  EF46  F016         	goto	u4330
  8815   002C88                     u4331:
  8816   002C88  EF2F  F016         	goto	l4083
  8817   002C8C                     u4330:
  8818   002C8C                     
  8819                           ;./SSD1306.h: 127:         I2C_Stop();
  8820   002C8C  ECC4  F01B         	call	_I2C_Stop	;wreg free
  8821   002C90                     
  8822                           ;./SSD1306.h: 128:     }
  8823   002C90  4A17               	infsnz	SSD1306_String@a^0,f,c
  8824   002C92  2A18               	incf	(SSD1306_String@a+1)^0,f,c
  8825   002C94                     l4093:
  8826   002C94  500C               	movf	SSD1306_String@data^0,w,c
  8827   002C96  2417               	addwf	SSD1306_String@a^0,w,c
  8828   002C98  6ED9               	movwf	fsr2l,c
  8829   002C9A  6ADA               	clrf	fsr2h,c
  8830   002C9C  50DF               	movf	indf2,w,c
  8831   002C9E  A4D8               	btfss	status,2,c
  8832   002CA0  EF54  F016         	goto	u4341
  8833   002CA4  EF56  F016         	goto	u4340
  8834   002CA8                     u4341:
  8835   002CA8  EFE7  F015         	goto	l4065
  8836   002CAC                     u4340:
  8837   002CAC  0012               	return		;funcret
  8838   002CAE                     __end_of_SSD1306_String:
  8839                           	callstack 0
  8840                           
  8841 ;; *************** function _memcpy *****************
  8842 ;; Defined at:
  8843 ;;		line 4 in file "C:\Program Files\Microchip\xc8\v3.00\pic\sources\c99\common\memcpy.c"
  8844 ;; Parameters:    Size  Location     Type
  8845 ;;  d1              2    0[COMRAM] PTR void 
  8846 ;;		 -> dbuf(80), SSD1306_String@pixData(5), 
  8847 ;;  s1              2    2[COMRAM] PTR const void 
  8848 ;;		 -> dbuf(80), TEXT5x8(480), 
  8849 ;;  n               2    4[COMRAM] unsigned int 
  8850 ;; Auto vars:     Size  Location     Type
  8851 ;;  s               2    8[COMRAM] PTR const unsigned char 
  8852 ;;		 -> dbuf(80), TEXT5x8(480), 
  8853 ;;  d               2    6[COMRAM] PTR unsigned char 
  8854 ;;		 -> dbuf(80), SSD1306_String@pixData(5), 
  8855 ;;  tmp             1   10[COMRAM] unsigned char 
  8856 ;; Return value:  Size  Location     Type
  8857 ;;                  2    0[COMRAM] PTR void 
  8858 ;; Registers used:
  8859 ;;		wreg, fsr1l, fsr1h, fsr2l, fsr2h, status,2, status,0, tblptrl, tblptrh, tblptru
  8860 ;; Tracked objects:
  8861 ;;		On entry : 0/0
  8862 ;;		On exit  : 0/0
  8863 ;;		Unchanged: 0/0
  8864 ;; Data sizes:     COMRAM   BANK0   BANK1   BANK2   BANK3   BANK4   BANK5
  8865 ;;      Params:         6       0       0       0       0       0       0
  8866 ;;      Locals:         5       0       0       0       0       0       0
  8867 ;;      Temps:          0       0       0       0       0       0       0
  8868 ;;      Totals:        11       0       0       0       0       0       0
  8869 ;;Total ram usage:       11 bytes
  8870 ;; Hardware stack levels used: 1
  8871 ;; Hardware stack levels required when called: 2
  8872 ;; This function calls:
  8873 ;;		Nothing
  8874 ;; This function is called by:
  8875 ;;		_SSD1306_String
  8876 ;;		_efgtoa
  8877 ;; This function uses a non-reentrant model
  8878 ;;
  8879                           
  8880                           	psect	text32
  8881   00329A                     __ptext32:
  8882                           	callstack 0
  8883   00329A                     _memcpy:
  8884                           	callstack 24
  8885   00329A  C003  F009         	movff	memcpy@s1,memcpy@s
  8886   00329E  C004  F00A         	movff	memcpy@s1+1,memcpy@s+1
  8887   0032A2  C001  F007         	movff	memcpy@d1,memcpy@d
  8888   0032A6  C002  F008         	movff	memcpy@d1+1,memcpy@d+1
  8889   0032AA  EF72  F019         	goto	l3155
  8890   0032AE                     l3147:
  8891   0032AE  C009  FFF6         	movff	memcpy@s,tblptrl
  8892   0032B2  C00A  FFF7         	movff	memcpy@s+1,tblptrh
  8893   0032B6  6AF8               	clrf	tblptru,c
  8894   0032B8  0E05               	movlw	(high __ramtop+-1)
  8895   0032BA  64F7               	cpfsgt	tblptrh,c
  8896   0032BC  D003               	bra	u2847
  8897   0032BE  0008               	tblrd		*
  8898   0032C0  50F5               	movf	tablat,w,c
  8899   0032C2  D005               	bra	u2840
  8900   0032C4                     u2847:
  8901   0032C4  CFF6 FFE1          	movff	tblptrl,fsr1l
  8902   0032C8  CFF7 FFE2          	movff	tblptrh,fsr1h
  8903   0032CC  50E7               	movf	indf1,w,c
  8904   0032CE                     u2840:
  8905   0032CE  6E0B               	movwf	memcpy@tmp^0,c
  8906   0032D0  4A09               	infsnz	memcpy@s^0,f,c
  8907   0032D2  2A0A               	incf	(memcpy@s+1)^0,f,c
  8908   0032D4  C007  FFD9         	movff	memcpy@d,fsr2l
  8909   0032D8  C008  FFDA         	movff	memcpy@d+1,fsr2h
  8910   0032DC  C00B  FFDF         	movff	memcpy@tmp,indf2
  8911   0032E0  4A07               	infsnz	memcpy@d^0,f,c
  8912   0032E2  2A08               	incf	(memcpy@d+1)^0,f,c
  8913   0032E4                     l3155:
  8914   0032E4  0605               	decf	memcpy@n^0,f,c
  8915   0032E6  A0D8               	btfss	status,0,c
  8916   0032E8  0606               	decf	(memcpy@n+1)^0,f,c
  8917   0032EA  2805               	incf	memcpy@n^0,w,c
  8918   0032EC  E106               	bnz	u2851
  8919   0032EE  2806               	incf	(memcpy@n+1)^0,w,c
  8920   0032F0  A4D8               	btfss	status,2,c
  8921   0032F2  EF7D  F019         	goto	u2851
  8922   0032F6  EF7F  F019         	goto	u2850
  8923   0032FA                     u2851:
  8924   0032FA  EF57  F019         	goto	l3147
  8925   0032FE                     u2850:
  8926   0032FE  0012               	return		;funcret
  8927   003300                     __end_of_memcpy:
  8928                           	callstack 0
  8929                           
  8930 ;; *************** function _SSD1306_GotoStart *****************
  8931 ;; Defined at:
  8932 ;;		line 97 in file "./SSD1306.h"
  8933 ;; Parameters:    Size  Location     Type
  8934 ;;		None
  8935 ;; Auto vars:     Size  Location     Type
  8936 ;;		None
  8937 ;; Return value:  Size  Location     Type
  8938 ;;                  1    wreg      void 
  8939 ;; Registers used:
  8940 ;;		wreg, status,2, status,0, cstack
  8941 ;; Tracked objects:
  8942 ;;		On entry : 0/0
  8943 ;;		On exit  : 0/0
  8944 ;;		Unchanged: 0/0
  8945 ;; Data sizes:     COMRAM   BANK0   BANK1   BANK2   BANK3   BANK4   BANK5
  8946 ;;      Params:         0       0       0       0       0       0       0
  8947 ;;      Locals:         0       0       0       0       0       0       0
  8948 ;;      Temps:          0       0       0       0       0       0       0
  8949 ;;      Totals:         0       0       0       0       0       0       0
  8950 ;;Total ram usage:        0 bytes
  8951 ;; Hardware stack levels used: 1
  8952 ;; Hardware stack levels required when called: 4
  8953 ;; This function calls:
  8954 ;;		_I2C_Start
  8955 ;;		_I2C_Stop
  8956 ;;		_I2C_Write
  8957 ;; This function is called by:
  8958 ;;		_UpdateScreen
  8959 ;;		_main
  8960 ;; This function uses a non-reentrant model
  8961 ;;
  8962                           
  8963                           	psect	text33
  8964   00359E                     __ptext33:
  8965                           	callstack 0
  8966   00359E                     _SSD1306_GotoStart:
  8967                           	callstack 25
  8968   00359E                     
  8969                           ;./SSD1306.h: 98:     I2C_Start();
  8970   00359E  ECCF  F01B         	call	_I2C_Start	;wreg free
  8971                           
  8972                           ;./SSD1306.h: 99:  I2C_Write(0x78);
  8973   0035A2  0E78               	movlw	120
  8974   0035A4  ECAB  F01B         	call	_I2C_Write
  8975                           
  8976                           ;./SSD1306.h: 100:  I2C_Write(0x00);
  8977   0035A8  0E00               	movlw	0
  8978   0035AA  ECAB  F01B         	call	_I2C_Write
  8979                           
  8980                           ;./SSD1306.h: 101:  I2C_Write(0x21);
  8981   0035AE  0E21               	movlw	33
  8982   0035B0  ECAB  F01B         	call	_I2C_Write
  8983                           
  8984                           ;./SSD1306.h: 102:  I2C_Write(0);
  8985   0035B4  0E00               	movlw	0
  8986   0035B6  ECAB  F01B         	call	_I2C_Write
  8987                           
  8988                           ;./SSD1306.h: 103:  I2C_Write(127);
  8989   0035BA  0E7F               	movlw	127
  8990   0035BC  ECAB  F01B         	call	_I2C_Write
  8991                           
  8992                           ;./SSD1306.h: 104:  I2C_Write(0x22);
  8993   0035C0  0E22               	movlw	34
  8994   0035C2  ECAB  F01B         	call	_I2C_Write
  8995                           
  8996                           ;./SSD1306.h: 105:  I2C_Write(0);
  8997   0035C6  0E00               	movlw	0
  8998   0035C8  ECAB  F01B         	call	_I2C_Write
  8999                           
  9000                           ;./SSD1306.h: 106:  I2C_Write(7);
  9001   0035CC  0E07               	movlw	7
  9002   0035CE  ECAB  F01B         	call	_I2C_Write
  9003                           
  9004                           ;./SSD1306.h: 107:  I2C_Stop();
  9005   0035D2  ECC4  F01B         	call	_I2C_Stop	;wreg free
  9006   0035D6  0012               	return		;funcret
  9007   0035D8                     __end_of_SSD1306_GotoStart:
  9008                           	callstack 0
  9009                           
  9010 ;; *************** function _SSD1306_ClearScreen *****************
  9011 ;; Defined at:
  9012 ;;		line 131 in file "./SSD1306.h"
  9013 ;; Parameters:    Size  Location     Type
  9014 ;;		None
  9015 ;; Auto vars:     Size  Location     Type
  9016 ;;  j               2    4[COMRAM] int 
  9017 ;;  i               2    2[COMRAM] int 
  9018 ;; Return value:  Size  Location     Type
  9019 ;;                  1    wreg      void 
  9020 ;; Registers used:
  9021 ;;		wreg, status,2, status,0, cstack
  9022 ;; Tracked objects:
  9023 ;;		On entry : 0/0
  9024 ;;		On exit  : 0/0
  9025 ;;		Unchanged: 0/0
  9026 ;; Data sizes:     COMRAM   BANK0   BANK1   BANK2   BANK3   BANK4   BANK5
  9027 ;;      Params:         0       0       0       0       0       0       0
  9028 ;;      Locals:         4       0       0       0       0       0       0
  9029 ;;      Temps:          0       0       0       0       0       0       0
  9030 ;;      Totals:         4       0       0       0       0       0       0
  9031 ;;Total ram usage:        4 bytes
  9032 ;; Hardware stack levels used: 1
  9033 ;; Hardware stack levels required when called: 4
  9034 ;; This function calls:
  9035 ;;		_I2C_Start
  9036 ;;		_I2C_Stop
  9037 ;;		_I2C_Write
  9038 ;; This function is called by:
  9039 ;;		_UpdateScreen
  9040 ;;		_main
  9041 ;; This function uses a non-reentrant model
  9042 ;;
  9043                           
  9044                           	psect	text34
  9045   00315E                     __ptext34:
  9046                           	callstack 0
  9047   00315E                     _SSD1306_ClearScreen:
  9048                           	callstack 25
  9049   00315E                     
  9050                           ;./SSD1306.h: 132:     I2C_Start();
  9051   00315E  ECCF  F01B         	call	_I2C_Start	;wreg free
  9052                           
  9053                           ;./SSD1306.h: 133:  I2C_Write(0x78);
  9054   003162  0E78               	movlw	120
  9055   003164  ECAB  F01B         	call	_I2C_Write
  9056                           
  9057                           ;./SSD1306.h: 134:  I2C_Write(0x40);
  9058   003168  0E40               	movlw	64
  9059   00316A  ECAB  F01B         	call	_I2C_Write
  9060   00316E                     
  9061                           ;./SSD1306.h: 135:  for (int i=0; i<8; i++) {
  9062   00316E  0E00               	movlw	0
  9063   003170  6E04               	movwf	(SSD1306_ClearScreen@i+1)^0,c
  9064   003172  0E00               	movlw	0
  9065   003174  6E03               	movwf	SSD1306_ClearScreen@i^0,c
  9066   003176                     l4103:
  9067                           
  9068                           ;./SSD1306.h: 136:   for (int j=0; j<128; j++) {
  9069   003176  0E00               	movlw	0
  9070   003178  6E06               	movwf	(SSD1306_ClearScreen@j+1)^0,c
  9071   00317A  0E00               	movlw	0
  9072   00317C  6E05               	movwf	SSD1306_ClearScreen@j^0,c
  9073   00317E                     l4109:
  9074                           
  9075                           ;./SSD1306.h: 137:    I2C_Write(0x00);
  9076   00317E  0E00               	movlw	0
  9077   003180  ECAB  F01B         	call	_I2C_Write
  9078   003184                     
  9079                           ;./SSD1306.h: 138:   }
  9080   003184  4A05               	infsnz	SSD1306_ClearScreen@j^0,f,c
  9081   003186  2A06               	incf	(SSD1306_ClearScreen@j+1)^0,f,c
  9082   003188  BE06               	btfsc	(SSD1306_ClearScreen@j+1)^0,7,c
  9083   00318A  EFD0  F018         	goto	u4351
  9084   00318E  5006               	movf	(SSD1306_ClearScreen@j+1)^0,w,c
  9085   003190  E109               	bnz	u4350
  9086   003192  0E80               	movlw	128
  9087   003194  5C05               	subwf	SSD1306_ClearScreen@j^0,w,c
  9088   003196  A0D8               	btfss	status,0,c
  9089   003198  EFD0  F018         	goto	u4351
  9090   00319C  EFD2  F018         	goto	u4350
  9091   0031A0                     u4351:
  9092   0031A0  EFBF  F018         	goto	l4109
  9093   0031A4                     u4350:
  9094   0031A4                     
  9095                           ;./SSD1306.h: 139:  }
  9096   0031A4  4A03               	infsnz	SSD1306_ClearScreen@i^0,f,c
  9097   0031A6  2A04               	incf	(SSD1306_ClearScreen@i+1)^0,f,c
  9098   0031A8  BE04               	btfsc	(SSD1306_ClearScreen@i+1)^0,7,c
  9099   0031AA  EFE0  F018         	goto	u4361
  9100   0031AE  5004               	movf	(SSD1306_ClearScreen@i+1)^0,w,c
  9101   0031B0  E109               	bnz	u4360
  9102   0031B2  0E08               	movlw	8
  9103   0031B4  5C03               	subwf	SSD1306_ClearScreen@i^0,w,c
  9104   0031B6  A0D8               	btfss	status,0,c
  9105   0031B8  EFE0  F018         	goto	u4361
  9106   0031BC  EFE2  F018         	goto	u4360
  9107   0031C0                     u4361:
  9108   0031C0  EFBB  F018         	goto	l4103
  9109   0031C4                     u4360:
  9110   0031C4                     
  9111                           ;./SSD1306.h: 140:     I2C_Stop();
  9112   0031C4  ECC4  F01B         	call	_I2C_Stop	;wreg free
  9113   0031C8  0012               	return		;funcret
  9114   0031CA                     __end_of_SSD1306_ClearScreen:
  9115                           	callstack 0
  9116                           
  9117 ;; *************** function _USART_Init *****************
  9118 ;; Defined at:
  9119 ;;		line 22 in file "./EUSART.h"
  9120 ;; Parameters:    Size  Location     Type
  9121 ;;		None
  9122 ;; Auto vars:     Size  Location     Type
  9123 ;;		None
  9124 ;; Return value:  Size  Location     Type
  9125 ;;                  1    wreg      void 
  9126 ;; Registers used:
  9127 ;;		wreg, status,2
  9128 ;; Tracked objects:
  9129 ;;		On entry : 0/0
  9130 ;;		On exit  : 0/0
  9131 ;;		Unchanged: 0/0
  9132 ;; Data sizes:     COMRAM   BANK0   BANK1   BANK2   BANK3   BANK4   BANK5
  9133 ;;      Params:         0       0       0       0       0       0       0
  9134 ;;      Locals:         0       0       0       0       0       0       0
  9135 ;;      Temps:          0       0       0       0       0       0       0
  9136 ;;      Totals:         0       0       0       0       0       0       0
  9137 ;;Total ram usage:        0 bytes
  9138 ;; Hardware stack levels used: 1
  9139 ;; Hardware stack levels required when called: 2
  9140 ;; This function calls:
  9141 ;;		Nothing
  9142 ;; This function is called by:
  9143 ;;		_main
  9144 ;; This function uses a non-reentrant model
  9145 ;;
  9146                           
  9147                           	psect	text35
  9148   00371A                     __ptext35:
  9149                           	callstack 0
  9150   00371A                     _USART_Init:
  9151                           	callstack 28
  9152   00371A                     
  9153                           ;./EUSART.h: 26:  SPBRG = 103;
  9154   00371A  0E67               	movlw	103
  9155   00371C  6EAF               	movwf	175,c	;volatile
  9156   00371E                     
  9157                           ;./EUSART.h: 27:     SPBRGH = 0;
  9158   00371E  6AB0               	clrf	176,c	;volatile
  9159   003720                     
  9160                           ;./EUSART.h: 28:     BRGH = 1;
  9161   003720  84AC               	bsf	4012,2,c	;volatile
  9162   003722                     
  9163                           ;./EUSART.h: 29:     BRG16 = 1;
  9164   003722  86B8               	bsf	4024,3,c	;volatile
  9165   003724                     
  9166                           ;./EUSART.h: 31:     SYNC = 0;
  9167   003724  98AC               	bcf	4012,4,c	;volatile
  9168   003726                     
  9169                           ;./EUSART.h: 32:     SPEN = 1;
  9170   003726  8EAB               	bsf	4011,7,c	;volatile
  9171   003728                     
  9172                           ;./EUSART.h: 35:     PIE1bits.RCIE = 1;
  9173   003728  8A9D               	bsf	157,5,c	;volatile
  9174   00372A                     
  9175                           ;./EUSART.h: 36:     INTCONbits.PEIE = 1;
  9176   00372A  8CF2               	bsf	242,6,c	;volatile
  9177   00372C                     
  9178                           ;./EUSART.h: 37:     INTCONbits.GIE = 1;
  9179   00372C  8EF2               	bsf	242,7,c	;volatile
  9180   00372E                     
  9181                           ;./EUSART.h: 39:     RX9 = 0;
  9182   00372E  9CAB               	bcf	4011,6,c	;volatile
  9183   003730                     
  9184                           ;./EUSART.h: 40:     CREN = 1;
  9185   003730  88AB               	bsf	4011,4,c	;volatile
  9186   003732                     
  9187                           ;./EUSART.h: 42:  TX9 = 0;
  9188   003732  9CAC               	bcf	4012,6,c	;volatile
  9189   003734                     
  9190                           ;./EUSART.h: 43:     TXEN = 1;
  9191   003734  8AAC               	bsf	4012,5,c	;volatile
  9192   003736  0012               	return		;funcret
  9193   003738                     __end_of_USART_Init:
  9194                           	callstack 0
  9195                           
  9196 ;; *************** function _SSD1306_Init *****************
  9197 ;; Defined at:
  9198 ;;		line 48 in file "./SSD1306.h"
  9199 ;; Parameters:    Size  Location     Type
  9200 ;;		None
  9201 ;; Auto vars:     Size  Location     Type
  9202 ;;		None
  9203 ;; Return value:  Size  Location     Type
  9204 ;;                  1    wreg      void 
  9205 ;; Registers used:
  9206 ;;		wreg, status,2, status,0, cstack
  9207 ;; Tracked objects:
  9208 ;;		On entry : 0/0
  9209 ;;		On exit  : 0/0
  9210 ;;		Unchanged: 0/0
  9211 ;; Data sizes:     COMRAM   BANK0   BANK1   BANK2   BANK3   BANK4   BANK5
  9212 ;;      Params:         0       0       0       0       0       0       0
  9213 ;;      Locals:         0       0       0       0       0       0       0
  9214 ;;      Temps:          2       0       0       0       0       0       0
  9215 ;;      Totals:         2       0       0       0       0       0       0
  9216 ;;Total ram usage:        2 bytes
  9217 ;; Hardware stack levels used: 1
  9218 ;; Hardware stack levels required when called: 5
  9219 ;; This function calls:
  9220 ;;		_I2C_Start
  9221 ;;		_I2C_Stop
  9222 ;;		_I2C_Write
  9223 ;;		_SSD1306_WriteCommand
  9224 ;; This function is called by:
  9225 ;;		_main
  9226 ;; This function uses a non-reentrant model
  9227 ;;
  9228                           
  9229                           	psect	text36
  9230   002AC8                     __ptext36:
  9231                           	callstack 0
  9232   002AC8                     _SSD1306_Init:
  9233                           	callstack 25
  9234   002AC8                     
  9235                           ;./SSD1306.h: 49:  I2C_Start();
  9236   002AC8  ECCF  F01B         	call	_I2C_Start	;wreg free
  9237                           
  9238                           ;./SSD1306.h: 50:  I2C_Write(0x78);
  9239   002ACC  0E78               	movlw	120
  9240   002ACE  ECAB  F01B         	call	_I2C_Write
  9241                           
  9242                           ;./SSD1306.h: 51:  I2C_Write(0x00);
  9243   002AD2  0E00               	movlw	0
  9244   002AD4  ECAB  F01B         	call	_I2C_Write
  9245                           
  9246                           ;./SSD1306.h: 53:  SSD1306_WriteCommand(0xAE);
  9247   002AD8  0EAE               	movlw	174
  9248   002ADA  EC9C  F01B         	call	_SSD1306_WriteCommand
  9249                           
  9250                           ;./SSD1306.h: 54:  SSD1306_WriteCommand(0xD5);
  9251   002ADE  0ED5               	movlw	213
  9252   002AE0  EC9C  F01B         	call	_SSD1306_WriteCommand
  9253                           
  9254                           ;./SSD1306.h: 55:  SSD1306_WriteCommand(0x80);
  9255   002AE4  0E80               	movlw	128
  9256   002AE6  EC9C  F01B         	call	_SSD1306_WriteCommand
  9257                           
  9258                           ;./SSD1306.h: 56:  SSD1306_WriteCommand(0xA8);
  9259   002AEA  0EA8               	movlw	168
  9260   002AEC  EC9C  F01B         	call	_SSD1306_WriteCommand
  9261                           
  9262                           ;./SSD1306.h: 57:  SSD1306_WriteCommand(0x3F);
  9263   002AF0  0E3F               	movlw	63
  9264   002AF2  EC9C  F01B         	call	_SSD1306_WriteCommand
  9265                           
  9266                           ;./SSD1306.h: 58:  SSD1306_WriteCommand(0xD3);
  9267   002AF6  0ED3               	movlw	211
  9268   002AF8  EC9C  F01B         	call	_SSD1306_WriteCommand
  9269                           
  9270                           ;./SSD1306.h: 59:  SSD1306_WriteCommand(0x00);
  9271   002AFC  0E00               	movlw	0
  9272   002AFE  EC9C  F01B         	call	_SSD1306_WriteCommand
  9273                           
  9274                           ;./SSD1306.h: 60:  SSD1306_WriteCommand(0x40);
  9275   002B02  0E40               	movlw	64
  9276   002B04  EC9C  F01B         	call	_SSD1306_WriteCommand
  9277                           
  9278                           ;./SSD1306.h: 61:  SSD1306_WriteCommand(0x8D);
  9279   002B08  0E8D               	movlw	141
  9280   002B0A  EC9C  F01B         	call	_SSD1306_WriteCommand
  9281                           
  9282                           ;./SSD1306.h: 62:  SSD1306_WriteCommand(0x14);
  9283   002B0E  0E14               	movlw	20
  9284   002B10  EC9C  F01B         	call	_SSD1306_WriteCommand
  9285                           
  9286                           ;./SSD1306.h: 63:  SSD1306_WriteCommand(0x20);
  9287   002B14  0E20               	movlw	32
  9288   002B16  EC9C  F01B         	call	_SSD1306_WriteCommand
  9289                           
  9290                           ;./SSD1306.h: 64:  SSD1306_WriteCommand(0x00);
  9291   002B1A  0E00               	movlw	0
  9292   002B1C  EC9C  F01B         	call	_SSD1306_WriteCommand
  9293                           
  9294                           ;./SSD1306.h: 67:  SSD1306_WriteCommand(0xA1);
  9295   002B20  0EA1               	movlw	161
  9296   002B22  EC9C  F01B         	call	_SSD1306_WriteCommand
  9297                           
  9298                           ;./SSD1306.h: 68:  SSD1306_WriteCommand(0xC8);
  9299   002B26  0EC8               	movlw	200
  9300   002B28  EC9C  F01B         	call	_SSD1306_WriteCommand
  9301                           
  9302                           ;./SSD1306.h: 69:  SSD1306_WriteCommand(0xDA);
  9303   002B2C  0EDA               	movlw	218
  9304   002B2E  EC9C  F01B         	call	_SSD1306_WriteCommand
  9305                           
  9306                           ;./SSD1306.h: 70:  SSD1306_WriteCommand(0x12);
  9307   002B32  0E12               	movlw	18
  9308   002B34  EC9C  F01B         	call	_SSD1306_WriteCommand
  9309                           
  9310                           ;./SSD1306.h: 72:  SSD1306_WriteCommand(0x81);
  9311   002B38  0E81               	movlw	129
  9312   002B3A  EC9C  F01B         	call	_SSD1306_WriteCommand
  9313                           
  9314                           ;./SSD1306.h: 73:  SSD1306_WriteCommand(0x7F);
  9315   002B3E  0E7F               	movlw	127
  9316   002B40  EC9C  F01B         	call	_SSD1306_WriteCommand
  9317                           
  9318                           ;./SSD1306.h: 74:  SSD1306_WriteCommand(0xD9);
  9319   002B44  0ED9               	movlw	217
  9320   002B46  EC9C  F01B         	call	_SSD1306_WriteCommand
  9321                           
  9322                           ;./SSD1306.h: 75:  SSD1306_WriteCommand(0xF1);
  9323   002B4A  0EF1               	movlw	241
  9324   002B4C  EC9C  F01B         	call	_SSD1306_WriteCommand
  9325                           
  9326                           ;./SSD1306.h: 76:  SSD1306_WriteCommand(0xDB);
  9327   002B50  0EDB               	movlw	219
  9328   002B52  EC9C  F01B         	call	_SSD1306_WriteCommand
  9329                           
  9330                           ;./SSD1306.h: 77:  SSD1306_WriteCommand(0x40);
  9331   002B56  0E40               	movlw	64
  9332   002B58  EC9C  F01B         	call	_SSD1306_WriteCommand
  9333                           
  9334                           ;./SSD1306.h: 78:  SSD1306_WriteCommand(0xA4);
  9335   002B5C  0EA4               	movlw	164
  9336   002B5E  EC9C  F01B         	call	_SSD1306_WriteCommand
  9337                           
  9338                           ;./SSD1306.h: 79:  SSD1306_WriteCommand(0xA6);
  9339   002B62  0EA6               	movlw	166
  9340   002B64  EC9C  F01B         	call	_SSD1306_WriteCommand
  9341                           
  9342                           ;./SSD1306.h: 80:  SSD1306_WriteCommand(0xAF);
  9343   002B68  0EAF               	movlw	175
  9344   002B6A  EC9C  F01B         	call	_SSD1306_WriteCommand
  9345                           
  9346                           ;./SSD1306.h: 82:  I2C_Stop();
  9347   002B6E  ECC4  F01B         	call	_I2C_Stop	;wreg free
  9348   002B72                     
  9349                           ;./SSD1306.h: 84:     _delay((unsigned long)((500)*(4000000/4000.0)));
  9350   002B72  0E03               	movlw	3
  9351   002B74  6E05               	movwf	(??_SSD1306_Init+1)^0,c
  9352   002B76  0E8A               	movlw	138
  9353   002B78  6E04               	movwf	??_SSD1306_Init^0,c
  9354   002B7A  0E56               	movlw	86
  9355   002B7C                     u5257:
  9356   002B7C  2EE8               	decfsz	wreg,f,c
  9357   002B7E  D7FE               	bra	u5257
  9358   002B80  2E04               	decfsz	??_SSD1306_Init^0,f,c
  9359   002B82  D7FC               	bra	u5257
  9360   002B84  2E05               	decfsz	(??_SSD1306_Init+1)^0,f,c
  9361   002B86  D7FA               	bra	u5257
  9362   002B88                     
  9363                           ;./SSD1306.h: 85:     I2C_Start();
  9364   002B88  ECCF  F01B         	call	_I2C_Start	;wreg free
  9365   002B8C                     
  9366                           ;./SSD1306.h: 86:  I2C_Write(0x78);
  9367   002B8C  0E78               	movlw	120
  9368   002B8E  ECAB  F01B         	call	_I2C_Write
  9369   002B92                     
  9370                           ;./SSD1306.h: 87:  I2C_Write(0x00);
  9371   002B92  0E00               	movlw	0
  9372   002B94  ECAB  F01B         	call	_I2C_Write
  9373   002B98                     
  9374                           ;./SSD1306.h: 88:  I2C_Write(0x21);
  9375   002B98  0E21               	movlw	33
  9376   002B9A  ECAB  F01B         	call	_I2C_Write
  9377   002B9E                     
  9378                           ;./SSD1306.h: 89:  I2C_Write(0);
  9379   002B9E  0E00               	movlw	0
  9380   002BA0  ECAB  F01B         	call	_I2C_Write
  9381   002BA4                     
  9382                           ;./SSD1306.h: 90:  I2C_Write(127);
  9383   002BA4  0E7F               	movlw	127
  9384   002BA6  ECAB  F01B         	call	_I2C_Write
  9385   002BAA                     
  9386                           ;./SSD1306.h: 91:  I2C_Write(0x22);
  9387   002BAA  0E22               	movlw	34
  9388   002BAC  ECAB  F01B         	call	_I2C_Write
  9389   002BB0                     
  9390                           ;./SSD1306.h: 92:  I2C_Write(0);
  9391   002BB0  0E00               	movlw	0
  9392   002BB2  ECAB  F01B         	call	_I2C_Write
  9393   002BB6                     
  9394                           ;./SSD1306.h: 93:  I2C_Write(7);
  9395   002BB6  0E07               	movlw	7
  9396   002BB8  ECAB  F01B         	call	_I2C_Write
  9397   002BBC                     
  9398                           ;./SSD1306.h: 94:  I2C_Stop();
  9399   002BBC  ECC4  F01B         	call	_I2C_Stop	;wreg free
  9400   002BC0  0012               	return		;funcret
  9401   002BC2                     __end_of_SSD1306_Init:
  9402                           	callstack 0
  9403                           
  9404 ;; *************** function _SSD1306_WriteCommand *****************
  9405 ;; Defined at:
  9406 ;;		line 40 in file "./SSD1306.h"
  9407 ;; Parameters:    Size  Location     Type
  9408 ;;  cmd             1    wreg     unsigned char 
  9409 ;; Auto vars:     Size  Location     Type
  9410 ;;  cmd             1    2[COMRAM] unsigned char 
  9411 ;; Return value:  Size  Location     Type
  9412 ;;                  1    wreg      void 
  9413 ;; Registers used:
  9414 ;;		wreg, status,2, status,0, cstack
  9415 ;; Tracked objects:
  9416 ;;		On entry : 0/0
  9417 ;;		On exit  : 0/0
  9418 ;;		Unchanged: 0/0
  9419 ;; Data sizes:     COMRAM   BANK0   BANK1   BANK2   BANK3   BANK4   BANK5
  9420 ;;      Params:         0       0       0       0       0       0       0
  9421 ;;      Locals:         1       0       0       0       0       0       0
  9422 ;;      Temps:          0       0       0       0       0       0       0
  9423 ;;      Totals:         1       0       0       0       0       0       0
  9424 ;;Total ram usage:        1 bytes
  9425 ;; Hardware stack levels used: 1
  9426 ;; Hardware stack levels required when called: 4
  9427 ;; This function calls:
  9428 ;;		_I2C_Start
  9429 ;;		_I2C_Stop
  9430 ;;		_I2C_Write
  9431 ;; This function is called by:
  9432 ;;		_SSD1306_Init
  9433 ;; This function uses a non-reentrant model
  9434 ;;
  9435                           
  9436                           	psect	text37
  9437   003738                     __ptext37:
  9438                           	callstack 0
  9439   003738                     _SSD1306_WriteCommand:
  9440                           	callstack 25
  9441                           
  9442                           ;incstack = 0
  9443                           ;SSD1306_WriteCommand@cmd stored from wreg
  9444   003738  6E03               	movwf	SSD1306_WriteCommand@cmd^0,c
  9445   00373A                     
  9446                           ;./SSD1306.h: 41:  I2C_Start();
  9447   00373A  ECCF  F01B         	call	_I2C_Start	;wreg free
  9448                           
  9449                           ;./SSD1306.h: 42:  I2C_Write(0x78);
  9450   00373E  0E78               	movlw	120
  9451   003740  ECAB  F01B         	call	_I2C_Write
  9452                           
  9453                           ;./SSD1306.h: 43:  I2C_Write(0x00);
  9454   003744  0E00               	movlw	0
  9455   003746  ECAB  F01B         	call	_I2C_Write
  9456                           
  9457                           ;./SSD1306.h: 44:  I2C_Write(cmd);
  9458   00374A  5003               	movf	SSD1306_WriteCommand@cmd^0,w,c
  9459   00374C  ECAB  F01B         	call	_I2C_Write
  9460                           
  9461                           ;./SSD1306.h: 45:  I2C_Stop();
  9462   003750  ECC4  F01B         	call	_I2C_Stop	;wreg free
  9463   003754  0012               	return		;funcret
  9464   003756                     __end_of_SSD1306_WriteCommand:
  9465                           	callstack 0
  9466                           
  9467 ;; *************** function _MPU6050_Init *****************
  9468 ;; Defined at:
  9469 ;;		line 25 in file "./MPU6050.h"
  9470 ;; Parameters:    Size  Location     Type
  9471 ;;		None
  9472 ;; Auto vars:     Size  Location     Type
  9473 ;;		None
  9474 ;; Return value:  Size  Location     Type
  9475 ;;                  1    wreg      void 
  9476 ;; Registers used:
  9477 ;;		wreg, status,2, status,0, cstack
  9478 ;; Tracked objects:
  9479 ;;		On entry : 0/0
  9480 ;;		On exit  : 0/0
  9481 ;;		Unchanged: 0/0
  9482 ;; Data sizes:     COMRAM   BANK0   BANK1   BANK2   BANK3   BANK4   BANK5
  9483 ;;      Params:         0       0       0       0       0       0       0
  9484 ;;      Locals:         0       0       0       0       0       0       0
  9485 ;;      Temps:          0       0       0       0       0       0       0
  9486 ;;      Totals:         0       0       0       0       0       0       0
  9487 ;;Total ram usage:        0 bytes
  9488 ;; Hardware stack levels used: 1
  9489 ;; Hardware stack levels required when called: 6
  9490 ;; This function calls:
  9491 ;;		_CalibrateGyro
  9492 ;;		_I2C_Start
  9493 ;;		_I2C_Stop
  9494 ;;		_I2C_Write
  9495 ;; This function is called by:
  9496 ;;		_main
  9497 ;; This function uses a non-reentrant model
  9498 ;;
  9499                           
  9500                           	psect	text38
  9501   0036FA                     __ptext38:
  9502                           	callstack 0
  9503   0036FA                     _MPU6050_Init:
  9504                           	callstack 24
  9505   0036FA                     
  9506                           ;./MPU6050.h: 26:     I2C_Start();
  9507   0036FA  ECCF  F01B         	call	_I2C_Start	;wreg free
  9508                           
  9509                           ;./MPU6050.h: 27:     I2C_Write(0x68 << 1);
  9510   0036FE  0ED0               	movlw	208
  9511   003700  ECAB  F01B         	call	_I2C_Write
  9512                           
  9513                           ;./MPU6050.h: 28:     I2C_Write(0x6B);
  9514   003704  0E6B               	movlw	107
  9515   003706  ECAB  F01B         	call	_I2C_Write
  9516                           
  9517                           ;./MPU6050.h: 29:     I2C_Write(0x00);
  9518   00370A  0E00               	movlw	0
  9519   00370C  ECAB  F01B         	call	_I2C_Write
  9520                           
  9521                           ;./MPU6050.h: 30:     I2C_Stop();
  9522   003710  ECC4  F01B         	call	_I2C_Stop	;wreg free
  9523                           
  9524                           ;./MPU6050.h: 32:     CalibrateGyro();
  9525   003714  ECBC  F016         	call	_CalibrateGyro	;wreg free
  9526   003718  0012               	return		;funcret
  9527   00371A                     __end_of_MPU6050_Init:
  9528                           	callstack 0
  9529                           
  9530 ;; *************** function _CalibrateGyro *****************
  9531 ;; Defined at:
  9532 ;;		line 35 in file "./MPU6050.h"
  9533 ;; Parameters:    Size  Location     Type
  9534 ;;		None
  9535 ;; Auto vars:     Size  Location     Type
  9536 ;;  i               2   22[COMRAM] int 
  9537 ;;  sum             4   18[COMRAM] long 
  9538 ;; Return value:  Size  Location     Type
  9539 ;;                  1    wreg      void 
  9540 ;; Registers used:
  9541 ;;		wreg, status,2, status,0, cstack
  9542 ;; Tracked objects:
  9543 ;;		On entry : 0/0
  9544 ;;		On exit  : 0/0
  9545 ;;		Unchanged: 0/0
  9546 ;; Data sizes:     COMRAM   BANK0   BANK1   BANK2   BANK3   BANK4   BANK5
  9547 ;;      Params:         0       0       0       0       0       0       0
  9548 ;;      Locals:         6       0       0       0       0       0       0
  9549 ;;      Temps:          4       0       0       0       0       0       0
  9550 ;;      Totals:        10       0       0       0       0       0       0
  9551 ;;Total ram usage:       10 bytes
  9552 ;; Hardware stack levels used: 1
  9553 ;; Hardware stack levels required when called: 5
  9554 ;; This function calls:
  9555 ;;		_MPU6050_ReadGyroZ
  9556 ;;		___aldiv
  9557 ;; This function is called by:
  9558 ;;		_MPU6050_Init
  9559 ;; This function uses a non-reentrant model
  9560 ;;
  9561                           
  9562                           	psect	text39
  9563   002D78                     __ptext39:
  9564                           	callstack 0
  9565   002D78                     _CalibrateGyro:
  9566                           	callstack 24
  9567   002D78                     
  9568                           ;./MPU6050.h: 36:     long sum = 0;
  9569   002D78  0E00               	movlw	0
  9570   002D7A  6E13               	movwf	CalibrateGyro@sum^0,c
  9571   002D7C  0E00               	movlw	0
  9572   002D7E  6E14               	movwf	(CalibrateGyro@sum+1)^0,c
  9573   002D80  0E00               	movlw	0
  9574   002D82  6E15               	movwf	(CalibrateGyro@sum+2)^0,c
  9575   002D84  0E00               	movlw	0
  9576   002D86  6E16               	movwf	(CalibrateGyro@sum+3)^0,c
  9577   002D88                     
  9578                           ;./MPU6050.h: 38:     _delay((unsigned long)((200)*(4000000/4000.0)));
  9579   002D88  0E02               	movlw	2
  9580   002D8A  6E10               	movwf	(??_CalibrateGyro+1)^0,c
  9581   002D8C  0E04               	movlw	4
  9582   002D8E  6E0F               	movwf	??_CalibrateGyro^0,c
  9583   002D90  0EBA               	movlw	186
  9584   002D92                     u5267:
  9585   002D92  2EE8               	decfsz	wreg,f,c
  9586   002D94  D7FE               	bra	u5267
  9587   002D96  2E0F               	decfsz	??_CalibrateGyro^0,f,c
  9588   002D98  D7FC               	bra	u5267
  9589   002D9A  2E10               	decfsz	(??_CalibrateGyro+1)^0,f,c
  9590   002D9C  D7FA               	bra	u5267
  9591   002D9E  D000               	nop2	
  9592   002DA0                     
  9593                           ;./MPU6050.h: 40:     for (int i=0; i<2000; i++) {
  9594   002DA0  0E00               	movlw	0
  9595   002DA2  6E18               	movwf	(CalibrateGyro@i+1)^0,c
  9596   002DA4  0E00               	movlw	0
  9597   002DA6  6E17               	movwf	CalibrateGyro@i^0,c
  9598   002DA8                     l4131:
  9599                           
  9600                           ;./MPU6050.h: 41:         sum += MPU6050_ReadGyroZ();
  9601   002DA8  EC2A  F01A         	call	_MPU6050_ReadGyroZ	;wreg free
  9602   002DAC  C004  F00F         	movff	?_MPU6050_ReadGyroZ,??_CalibrateGyro
  9603   002DB0  C005  F010         	movff	?_MPU6050_ReadGyroZ+1,??_CalibrateGyro+1
  9604   002DB4  0E00               	movlw	0
  9605   002DB6  BE10               	btfsc	(??_CalibrateGyro+1)^0,7,c
  9606   002DB8  0EFF               	movlw	255
  9607   002DBA  6E11               	movwf	(??_CalibrateGyro+2)^0,c
  9608   002DBC  6E12               	movwf	(??_CalibrateGyro+3)^0,c
  9609   002DBE  500F               	movf	??_CalibrateGyro^0,w,c
  9610   002DC0  2613               	addwf	CalibrateGyro@sum^0,f,c
  9611   002DC2  5010               	movf	(??_CalibrateGyro+1)^0,w,c
  9612   002DC4  2214               	addwfc	(CalibrateGyro@sum+1)^0,f,c
  9613   002DC6  5011               	movf	(??_CalibrateGyro+2)^0,w,c
  9614   002DC8  2215               	addwfc	(CalibrateGyro@sum+2)^0,f,c
  9615   002DCA  5012               	movf	(??_CalibrateGyro+3)^0,w,c
  9616   002DCC  2216               	addwfc	(CalibrateGyro@sum+3)^0,f,c
  9617   002DCE                     
  9618                           ;./MPU6050.h: 42:         _delay((unsigned long)((2)*(4000000/4000.0)));
  9619   002DCE  0E03               	movlw	3
  9620   002DD0  6E0F               	movwf	??_CalibrateGyro^0,c
  9621   002DD2  0E98               	movlw	152
  9622   002DD4                     u5277:
  9623   002DD4  2EE8               	decfsz	wreg,f,c
  9624   002DD6  D7FE               	bra	u5277
  9625   002DD8  2E0F               	decfsz	??_CalibrateGyro^0,f,c
  9626   002DDA  D7FC               	bra	u5277
  9627   002DDC                     
  9628                           ;./MPU6050.h: 43:     }
  9629   002DDC  4A17               	infsnz	CalibrateGyro@i^0,f,c
  9630   002DDE  2A18               	incf	(CalibrateGyro@i+1)^0,f,c
  9631   002DE0  BE18               	btfsc	(CalibrateGyro@i+1)^0,7,c
  9632   002DE2  EFFC  F016         	goto	u4371
  9633   002DE6  0ED0               	movlw	208
  9634   002DE8  5C17               	subwf	CalibrateGyro@i^0,w,c
  9635   002DEA  0E07               	movlw	7
  9636   002DEC  5818               	subwfb	(CalibrateGyro@i+1)^0,w,c
  9637   002DEE  A0D8               	btfss	status,0,c
  9638   002DF0  EFFC  F016         	goto	u4371
  9639   002DF4  EFFE  F016         	goto	u4370
  9640   002DF8                     u4371:
  9641   002DF8  EFD4  F016         	goto	l4131
  9642   002DFC                     u4370:
  9643   002DFC                     
  9644                           ;./MPU6050.h: 44:     gyro_z_offset = sum / 2000;
  9645   002DFC  C013  F001         	movff	CalibrateGyro@sum,___aldiv@dividend
  9646   002E00  C014  F002         	movff	CalibrateGyro@sum+1,___aldiv@dividend+1
  9647   002E04  C015  F003         	movff	CalibrateGyro@sum+2,___aldiv@dividend+2
  9648   002E08  C016  F004         	movff	CalibrateGyro@sum+3,___aldiv@dividend+3
  9649   002E0C  0ED0               	movlw	208
  9650   002E0E  6E05               	movwf	___aldiv@divisor^0,c
  9651   002E10  0E07               	movlw	7
  9652   002E12  6E06               	movwf	(___aldiv@divisor+1)^0,c
  9653   002E14  0E00               	movlw	0
  9654   002E16  6E07               	movwf	(___aldiv@divisor+2)^0,c
  9655   002E18  0E00               	movlw	0
  9656   002E1A  6E08               	movwf	(___aldiv@divisor+3)^0,c
  9657   002E1C  EC5B  F013         	call	___aldiv	;wreg free
  9658   002E20  C001  F0CB         	movff	?___aldiv,_gyro_z_offset
  9659   002E24  C002  F0CC         	movff	?___aldiv+1,_gyro_z_offset+1
  9660   002E28                     
  9661                           ;./MPU6050.h: 46:     _delay((unsigned long)((200)*(4000000/4000.0)));
  9662   002E28  0E02               	movlw	2
  9663   002E2A  6E10               	movwf	(??_CalibrateGyro+1)^0,c
  9664   002E2C  0E04               	movlw	4
  9665   002E2E  6E0F               	movwf	??_CalibrateGyro^0,c
  9666   002E30  0EBA               	movlw	186
  9667   002E32                     u5287:
  9668   002E32  2EE8               	decfsz	wreg,f,c
  9669   002E34  D7FE               	bra	u5287
  9670   002E36  2E0F               	decfsz	??_CalibrateGyro^0,f,c
  9671   002E38  D7FC               	bra	u5287
  9672   002E3A  2E10               	decfsz	(??_CalibrateGyro+1)^0,f,c
  9673   002E3C  D7FA               	bra	u5287
  9674   002E3E  D000               	nop2	
  9675   002E40  0012               	return		;funcret
  9676   002E42                     __end_of_CalibrateGyro:
  9677                           	callstack 0
  9678                           
  9679 ;; *************** function ___aldiv *****************
  9680 ;; Defined at:
  9681 ;;		line 7 in file "C:\Program Files\Microchip\xc8\v3.00\pic\sources\c99\common\aldiv.c"
  9682 ;; Parameters:    Size  Location     Type
  9683 ;;  dividend        4    0[COMRAM] long 
  9684 ;;  divisor         4    4[COMRAM] long 
  9685 ;; Auto vars:     Size  Location     Type
  9686 ;;  quotient        4   10[COMRAM] long 
  9687 ;;  sign            1    9[COMRAM] unsigned char 
  9688 ;;  counter         1    8[COMRAM] unsigned char 
  9689 ;; Return value:  Size  Location     Type
  9690 ;;                  4    0[COMRAM] long 
  9691 ;; Registers used:
  9692 ;;		wreg, status,2, status,0
  9693 ;; Tracked objects:
  9694 ;;		On entry : 0/0
  9695 ;;		On exit  : 0/0
  9696 ;;		Unchanged: 0/0
  9697 ;; Data sizes:     COMRAM   BANK0   BANK1   BANK2   BANK3   BANK4   BANK5
  9698 ;;      Params:         8       0       0       0       0       0       0
  9699 ;;      Locals:         6       0       0       0       0       0       0
  9700 ;;      Temps:          0       0       0       0       0       0       0
  9701 ;;      Totals:        14       0       0       0       0       0       0
  9702 ;;Total ram usage:       14 bytes
  9703 ;; Hardware stack levels used: 1
  9704 ;; Hardware stack levels required when called: 2
  9705 ;; This function calls:
  9706 ;;		Nothing
  9707 ;; This function is called by:
  9708 ;;		_CalibrateGyro
  9709 ;; This function uses a non-reentrant model
  9710 ;;
  9711                           
  9712                           	psect	text40
  9713   0026B6                     __ptext40:
  9714                           	callstack 0
  9715   0026B6                     ___aldiv:
  9716                           	callstack 26
  9717   0026B6  6A0A               	clrf	___aldiv@sign^0,c
  9718   0026B8  BE08               	btfsc	(___aldiv@divisor+3)^0,7,c
  9719   0026BA  EF63  F013         	goto	u4250
  9720   0026BE  EF61  F013         	goto	u4251
  9721   0026C2                     u4251:
  9722   0026C2  EF6D  F013         	goto	l4013
  9723   0026C6                     u4250:
  9724   0026C6  1E08               	comf	(___aldiv@divisor+3)^0,f,c
  9725   0026C8  1E07               	comf	(___aldiv@divisor+2)^0,f,c
  9726   0026CA  1E06               	comf	(___aldiv@divisor+1)^0,f,c
  9727   0026CC  6C05               	negf	___aldiv@divisor^0,c
  9728   0026CE  0E00               	movlw	0
  9729   0026D0  2206               	addwfc	(___aldiv@divisor+1)^0,f,c
  9730   0026D2  2207               	addwfc	(___aldiv@divisor+2)^0,f,c
  9731   0026D4  2208               	addwfc	(___aldiv@divisor+3)^0,f,c
  9732   0026D6  0E01               	movlw	1
  9733   0026D8  6E0A               	movwf	___aldiv@sign^0,c
  9734   0026DA                     l4013:
  9735   0026DA  BE04               	btfsc	(___aldiv@dividend+3)^0,7,c
  9736   0026DC  EF74  F013         	goto	u4260
  9737   0026E0  EF72  F013         	goto	u4261
  9738   0026E4                     u4261:
  9739   0026E4  EF7E  F013         	goto	l4019
  9740   0026E8                     u4260:
  9741   0026E8  1E04               	comf	(___aldiv@dividend+3)^0,f,c
  9742   0026EA  1E03               	comf	(___aldiv@dividend+2)^0,f,c
  9743   0026EC  1E02               	comf	(___aldiv@dividend+1)^0,f,c
  9744   0026EE  6C01               	negf	___aldiv@dividend^0,c
  9745   0026F0  0E00               	movlw	0
  9746   0026F2  2202               	addwfc	(___aldiv@dividend+1)^0,f,c
  9747   0026F4  2203               	addwfc	(___aldiv@dividend+2)^0,f,c
  9748   0026F6  2204               	addwfc	(___aldiv@dividend+3)^0,f,c
  9749   0026F8  0E01               	movlw	1
  9750   0026FA  1A0A               	xorwf	___aldiv@sign^0,f,c
  9751   0026FC                     l4019:
  9752   0026FC  0E00               	movlw	0
  9753   0026FE  6E0B               	movwf	___aldiv@quotient^0,c
  9754   002700  0E00               	movlw	0
  9755   002702  6E0C               	movwf	(___aldiv@quotient+1)^0,c
  9756   002704  0E00               	movlw	0
  9757   002706  6E0D               	movwf	(___aldiv@quotient+2)^0,c
  9758   002708  0E00               	movlw	0
  9759   00270A  6E0E               	movwf	(___aldiv@quotient+3)^0,c
  9760   00270C  5005               	movf	___aldiv@divisor^0,w,c
  9761   00270E  1006               	iorwf	(___aldiv@divisor+1)^0,w,c
  9762   002710  1007               	iorwf	(___aldiv@divisor+2)^0,w,c
  9763   002712  1008               	iorwf	(___aldiv@divisor+3)^0,w,c
  9764   002714  B4D8               	btfsc	status,2,c
  9765   002716  EF8F  F013         	goto	u4271
  9766   00271A  EF91  F013         	goto	u4270
  9767   00271E                     u4271:
  9768   00271E  EFC7  F013         	goto	l4041
  9769   002722                     u4270:
  9770   002722  0E01               	movlw	1
  9771   002724  6E09               	movwf	___aldiv@counter^0,c
  9772   002726  EF9B  F013         	goto	l4027
  9773   00272A                     l4025:
  9774   00272A  90D8               	bcf	status,0,c
  9775   00272C  3605               	rlcf	___aldiv@divisor^0,f,c
  9776   00272E  3606               	rlcf	(___aldiv@divisor+1)^0,f,c
  9777   002730  3607               	rlcf	(___aldiv@divisor+2)^0,f,c
  9778   002732  3608               	rlcf	(___aldiv@divisor+3)^0,f,c
  9779   002734  2A09               	incf	___aldiv@counter^0,f,c
  9780   002736                     l4027:
  9781   002736  AE08               	btfss	(___aldiv@divisor+3)^0,7,c
  9782   002738  EFA0  F013         	goto	u4281
  9783   00273C  EFA2  F013         	goto	u4280
  9784   002740                     u4281:
  9785   002740  EF95  F013         	goto	l4025
  9786   002744                     u4280:
  9787   002744                     l4029:
  9788   002744  90D8               	bcf	status,0,c
  9789   002746  360B               	rlcf	___aldiv@quotient^0,f,c
  9790   002748  360C               	rlcf	(___aldiv@quotient+1)^0,f,c
  9791   00274A  360D               	rlcf	(___aldiv@quotient+2)^0,f,c
  9792   00274C  360E               	rlcf	(___aldiv@quotient+3)^0,f,c
  9793   00274E  5005               	movf	___aldiv@divisor^0,w,c
  9794   002750  5C01               	subwf	___aldiv@dividend^0,w,c
  9795   002752  5006               	movf	(___aldiv@divisor+1)^0,w,c
  9796   002754  5802               	subwfb	(___aldiv@dividend+1)^0,w,c
  9797   002756  5007               	movf	(___aldiv@divisor+2)^0,w,c
  9798   002758  5803               	subwfb	(___aldiv@dividend+2)^0,w,c
  9799   00275A  5008               	movf	(___aldiv@divisor+3)^0,w,c
  9800   00275C  5804               	subwfb	(___aldiv@dividend+3)^0,w,c
  9801   00275E  A0D8               	btfss	status,0,c
  9802   002760  EFB4  F013         	goto	u4291
  9803   002764  EFB6  F013         	goto	u4290
  9804   002768                     u4291:
  9805   002768  EFBF  F013         	goto	l4037
  9806   00276C                     u4290:
  9807   00276C  5005               	movf	___aldiv@divisor^0,w,c
  9808   00276E  5E01               	subwf	___aldiv@dividend^0,f,c
  9809   002770  5006               	movf	(___aldiv@divisor+1)^0,w,c
  9810   002772  5A02               	subwfb	(___aldiv@dividend+1)^0,f,c
  9811   002774  5007               	movf	(___aldiv@divisor+2)^0,w,c
  9812   002776  5A03               	subwfb	(___aldiv@dividend+2)^0,f,c
  9813   002778  5008               	movf	(___aldiv@divisor+3)^0,w,c
  9814   00277A  5A04               	subwfb	(___aldiv@dividend+3)^0,f,c
  9815   00277C  800B               	bsf	___aldiv@quotient^0,0,c
  9816   00277E                     l4037:
  9817   00277E  90D8               	bcf	status,0,c
  9818   002780  3208               	rrcf	(___aldiv@divisor+3)^0,f,c
  9819   002782  3207               	rrcf	(___aldiv@divisor+2)^0,f,c
  9820   002784  3206               	rrcf	(___aldiv@divisor+1)^0,f,c
  9821   002786  3205               	rrcf	___aldiv@divisor^0,f,c
  9822   002788  2E09               	decfsz	___aldiv@counter^0,f,c
  9823   00278A  EFA2  F013         	goto	l4029
  9824   00278E                     l4041:
  9825   00278E  500A               	movf	___aldiv@sign^0,w,c
  9826   002790  B4D8               	btfsc	status,2,c
  9827   002792  EFCD  F013         	goto	u4301
  9828   002796  EFCF  F013         	goto	u4300
  9829   00279A                     u4301:
  9830   00279A  EFD7  F013         	goto	l4045
  9831   00279E                     u4300:
  9832   00279E  1E0E               	comf	(___aldiv@quotient+3)^0,f,c
  9833   0027A0  1E0D               	comf	(___aldiv@quotient+2)^0,f,c
  9834   0027A2  1E0C               	comf	(___aldiv@quotient+1)^0,f,c
  9835   0027A4  6C0B               	negf	___aldiv@quotient^0,c
  9836   0027A6  0E00               	movlw	0
  9837   0027A8  220C               	addwfc	(___aldiv@quotient+1)^0,f,c
  9838   0027AA  220D               	addwfc	(___aldiv@quotient+2)^0,f,c
  9839   0027AC  220E               	addwfc	(___aldiv@quotient+3)^0,f,c
  9840   0027AE                     l4045:
  9841   0027AE  C00B  F001         	movff	___aldiv@quotient,?___aldiv
  9842   0027B2  C00C  F002         	movff	___aldiv@quotient+1,?___aldiv+1
  9843   0027B6  C00D  F003         	movff	___aldiv@quotient+2,?___aldiv+2
  9844   0027BA  C00E  F004         	movff	___aldiv@quotient+3,?___aldiv+3
  9845   0027BE  0012               	return		;funcret
  9846   0027C0                     __end_of___aldiv:
  9847                           	callstack 0
  9848                           
  9849 ;; *************** function _MPU6050_ReadGyroZ *****************
  9850 ;; Defined at:
  9851 ;;		line 138 in file "./MPU6050.h"
  9852 ;; Parameters:    Size  Location     Type
  9853 ;;		None
  9854 ;; Auto vars:     Size  Location     Type
  9855 ;;  low             1    8[COMRAM] unsigned char 
  9856 ;;  high            1    7[COMRAM] unsigned char 
  9857 ;; Return value:  Size  Location     Type
  9858 ;;                  2    3[COMRAM] short 
  9859 ;; Registers used:
  9860 ;;		wreg, status,2, status,0, cstack
  9861 ;; Tracked objects:
  9862 ;;		On entry : 0/0
  9863 ;;		On exit  : 0/0
  9864 ;;		Unchanged: 0/0
  9865 ;; Data sizes:     COMRAM   BANK0   BANK1   BANK2   BANK3   BANK4   BANK5
  9866 ;;      Params:         2       0       0       0       0       0       0
  9867 ;;      Locals:         2       0       0       0       0       0       0
  9868 ;;      Temps:          2       0       0       0       0       0       0
  9869 ;;      Totals:         6       0       0       0       0       0       0
  9870 ;;Total ram usage:        6 bytes
  9871 ;; Hardware stack levels used: 1
  9872 ;; Hardware stack levels required when called: 4
  9873 ;; This function calls:
  9874 ;;		_I2C_Read
  9875 ;;		_I2C_RepeatedStart
  9876 ;;		_I2C_Start
  9877 ;;		_I2C_Stop
  9878 ;;		_I2C_Write
  9879 ;; This function is called by:
  9880 ;;		_CalibrateGyro
  9881 ;;		_updateYaw
  9882 ;; This function uses a non-reentrant model
  9883 ;;
  9884                           
  9885                           	psect	text41
  9886   003454                     __ptext41:
  9887                           	callstack 0
  9888   003454                     _MPU6050_ReadGyroZ:
  9889                           	callstack 25
  9890   003454                     
  9891                           ;./MPU6050.h: 139:     uint8_t high, low;;./MPU6050.h: 140:     I2C_Start();
  9892   003454  ECCF  F01B         	call	_I2C_Start	;wreg free
  9893                           
  9894                           ;./MPU6050.h: 141:     I2C_Write(0x68 << 1);
  9895   003458  0ED0               	movlw	208
  9896   00345A  ECAB  F01B         	call	_I2C_Write
  9897                           
  9898                           ;./MPU6050.h: 142:     I2C_Write(0x47);
  9899   00345E  0E47               	movlw	71
  9900   003460  ECAB  F01B         	call	_I2C_Write
  9901                           
  9902                           ;./MPU6050.h: 143:     I2C_RepeatedStart();
  9903   003464  ECDA  F01B         	call	_I2C_RepeatedStart	;wreg free
  9904                           
  9905                           ;./MPU6050.h: 144:     I2C_Write((0x68 << 1) | 1);
  9906   003468  0ED1               	movlw	209
  9907   00346A  ECAB  F01B         	call	_I2C_Write
  9908                           
  9909                           ;./MPU6050.h: 145:     high = I2C_Read(1);
  9910   00346E  0E01               	movlw	1
  9911   003470  EC4D  F01A         	call	_I2C_Read
  9912   003474  6E08               	movwf	MPU6050_ReadGyroZ@high^0,c
  9913                           
  9914                           ;./MPU6050.h: 146:     low = I2C_Read(0);
  9915   003476  0E00               	movlw	0
  9916   003478  EC4D  F01A         	call	_I2C_Read
  9917   00347C  6E09               	movwf	MPU6050_ReadGyroZ@low^0,c
  9918                           
  9919                           ;./MPU6050.h: 147:     I2C_Stop();
  9920   00347E  ECC4  F01B         	call	_I2C_Stop	;wreg free
  9921   003482                     
  9922                           ;./MPU6050.h: 148:     return (int16_t)((high << 8) | low);
  9923   003482  5009               	movf	MPU6050_ReadGyroZ@low^0,w,c
  9924   003484  C008  F006         	movff	MPU6050_ReadGyroZ@high,??_MPU6050_ReadGyroZ
  9925   003488  6A07               	clrf	(??_MPU6050_ReadGyroZ+1)^0,c
  9926   00348A  C006  F007         	movff	??_MPU6050_ReadGyroZ,??_MPU6050_ReadGyroZ+1
  9927   00348E  6A06               	clrf	??_MPU6050_ReadGyroZ^0,c
  9928   003490  1006               	iorwf	??_MPU6050_ReadGyroZ^0,w,c
  9929   003492  6E04               	movwf	?_MPU6050_ReadGyroZ^0,c
  9930   003494  5007               	movf	(??_MPU6050_ReadGyroZ+1)^0,w,c
  9931   003496  6E05               	movwf	(?_MPU6050_ReadGyroZ+1)^0,c
  9932   003498  0012               	return		;funcret
  9933   00349A                     __end_of_MPU6050_ReadGyroZ:
  9934                           	callstack 0
  9935                           
  9936 ;; *************** function _I2C_Write *****************
  9937 ;; Defined at:
  9938 ;;		line 53 in file "./I2C.h"
  9939 ;; Parameters:    Size  Location     Type
  9940 ;;  data            1    wreg     unsigned char 
  9941 ;; Auto vars:     Size  Location     Type
  9942 ;;  data            1    1[COMRAM] unsigned char 
  9943 ;; Return value:  Size  Location     Type
  9944 ;;                  1    wreg      void 
  9945 ;; Registers used:
  9946 ;;		wreg, status,2, status,0, cstack
  9947 ;; Tracked objects:
  9948 ;;		On entry : 0/0
  9949 ;;		On exit  : 0/0
  9950 ;;		Unchanged: 0/0
  9951 ;; Data sizes:     COMRAM   BANK0   BANK1   BANK2   BANK3   BANK4   BANK5
  9952 ;;      Params:         0       0       0       0       0       0       0
  9953 ;;      Locals:         1       0       0       0       0       0       0
  9954 ;;      Temps:          0       0       0       0       0       0       0
  9955 ;;      Totals:         1       0       0       0       0       0       0
  9956 ;;Total ram usage:        1 bytes
  9957 ;; Hardware stack levels used: 1
  9958 ;; Hardware stack levels required when called: 3
  9959 ;; This function calls:
  9960 ;;		_I2C_Hold
  9961 ;; This function is called by:
  9962 ;;		_SSD1306_WriteCommand
  9963 ;;		_SSD1306_Init
  9964 ;;		_SSD1306_GotoStart
  9965 ;;		_SSD1306_String
  9966 ;;		_SSD1306_ClearScreen
  9967 ;;		_MPU6050_Init
  9968 ;;		_MPU6050_ReadGyroZ
  9969 ;;		_MPU6050_ReadAccelX
  9970 ;;		_MPU6050_ReadAccelY
  9971 ;;		_MPU6050_ReadAccelZ
  9972 ;;		_MPU6050_ReadGyroX
  9973 ;;		_MPU6050_ReadGyroY
  9974 ;; This function uses a non-reentrant model
  9975 ;;
  9976                           
  9977                           	psect	text42
  9978   003756                     __ptext42:
  9979                           	callstack 0
  9980   003756                     _I2C_Write:
  9981                           	callstack 25
  9982                           
  9983                           ;incstack = 0
  9984                           ;I2C_Write@data stored from wreg
  9985   003756  6E02               	movwf	I2C_Write@data^0,c
  9986   003758                     
  9987                           ;./I2C.h: 54:  I2C_Hold();
  9988   003758  EC6A  F01B         	call	_I2C_Hold	;wreg free
  9989   00375C                     
  9990                           ;./I2C.h: 55:  SSPBUF = data;
  9991   00375C  C002  FFC9         	movff	I2C_Write@data,4041	;volatile
  9992   003760                     l136:
  9993   003760  A69E               	btfss	3998,3,c	;volatile
  9994   003762  EFB5  F01B         	goto	u4081
  9995   003766  EFB7  F01B         	goto	u4080
  9996   00376A                     u4081:
  9997   00376A  EFB0  F01B         	goto	l136
  9998   00376E                     u4080:
  9999   00376E                     
 10000                           ;./I2C.h: 57:  SSPIF = 0;
 10001   00376E  969E               	bcf	3998,3,c	;volatile
 10002   003770  0012               	return		;funcret
 10003   003772                     __end_of_I2C_Write:
 10004                           	callstack 0
 10005                           
 10006 ;; *************** function _I2C_Stop *****************
 10007 ;; Defined at:
 10008 ;;		line 47 in file "./I2C.h"
 10009 ;; Parameters:    Size  Location     Type
 10010 ;;		None
 10011 ;; Auto vars:     Size  Location     Type
 10012 ;;		None
 10013 ;; Return value:  Size  Location     Type
 10014 ;;                  1    wreg      void 
 10015 ;; Registers used:
 10016 ;;		wreg, status,2, status,0, cstack
 10017 ;; Tracked objects:
 10018 ;;		On entry : 0/0
 10019 ;;		On exit  : 0/0
 10020 ;;		Unchanged: 0/0
 10021 ;; Data sizes:     COMRAM   BANK0   BANK1   BANK2   BANK3   BANK4   BANK5
 10022 ;;      Params:         0       0       0       0       0       0       0
 10023 ;;      Locals:         0       0       0       0       0       0       0
 10024 ;;      Temps:          0       0       0       0       0       0       0
 10025 ;;      Totals:         0       0       0       0       0       0       0
 10026 ;;Total ram usage:        0 bytes
 10027 ;; Hardware stack levels used: 1
 10028 ;; Hardware stack levels required when called: 3
 10029 ;; This function calls:
 10030 ;;		_I2C_Hold
 10031 ;; This function is called by:
 10032 ;;		_SSD1306_WriteCommand
 10033 ;;		_SSD1306_Init
 10034 ;;		_SSD1306_GotoStart
 10035 ;;		_SSD1306_String
 10036 ;;		_SSD1306_ClearScreen
 10037 ;;		_MPU6050_Init
 10038 ;;		_MPU6050_ReadGyroZ
 10039 ;;		_MPU6050_ReadAccelX
 10040 ;;		_MPU6050_ReadAccelY
 10041 ;;		_MPU6050_ReadAccelZ
 10042 ;;		_MPU6050_ReadGyroX
 10043 ;;		_MPU6050_ReadGyroY
 10044 ;; This function uses a non-reentrant model
 10045 ;;
 10046                           
 10047                           	psect	text43
 10048   003788                     __ptext43:
 10049                           	callstack 0
 10050   003788                     _I2C_Stop:
 10051                           	callstack 25
 10052   003788                     
 10053                           ;./I2C.h: 48:  I2C_Hold();
 10054   003788  EC6A  F01B         	call	_I2C_Hold	;wreg free
 10055   00378C                     
 10056                           ;./I2C.h: 49:  PEN = 1;
 10057   00378C  84C5               	bsf	4037,2,c	;volatile
 10058   00378E                     l130:
 10059   00378E  B4C5               	btfsc	4037,2,c	;volatile
 10060   003790  EFCC  F01B         	goto	u4071
 10061   003794  EFCE  F01B         	goto	u4070
 10062   003798                     u4071:
 10063   003798  EFC7  F01B         	goto	l130
 10064   00379C                     u4070:
 10065   00379C  0012               	return		;funcret
 10066   00379E                     __end_of_I2C_Stop:
 10067                           	callstack 0
 10068                           
 10069 ;; *************** function _I2C_Start *****************
 10070 ;; Defined at:
 10071 ;;		line 35 in file "./I2C.h"
 10072 ;; Parameters:    Size  Location     Type
 10073 ;;		None
 10074 ;; Auto vars:     Size  Location     Type
 10075 ;;		None
 10076 ;; Return value:  Size  Location     Type
 10077 ;;                  1    wreg      void 
 10078 ;; Registers used:
 10079 ;;		wreg, status,2, status,0, cstack
 10080 ;; Tracked objects:
 10081 ;;		On entry : 0/0
 10082 ;;		On exit  : 0/0
 10083 ;;		Unchanged: 0/0
 10084 ;; Data sizes:     COMRAM   BANK0   BANK1   BANK2   BANK3   BANK4   BANK5
 10085 ;;      Params:         0       0       0       0       0       0       0
 10086 ;;      Locals:         0       0       0       0       0       0       0
 10087 ;;      Temps:          0       0       0       0       0       0       0
 10088 ;;      Totals:         0       0       0       0       0       0       0
 10089 ;;Total ram usage:        0 bytes
 10090 ;; Hardware stack levels used: 1
 10091 ;; Hardware stack levels required when called: 3
 10092 ;; This function calls:
 10093 ;;		_I2C_Hold
 10094 ;; This function is called by:
 10095 ;;		_SSD1306_WriteCommand
 10096 ;;		_SSD1306_Init
 10097 ;;		_SSD1306_GotoStart
 10098 ;;		_SSD1306_String
 10099 ;;		_SSD1306_ClearScreen
 10100 ;;		_MPU6050_Init
 10101 ;;		_MPU6050_ReadGyroZ
 10102 ;;		_MPU6050_ReadAccelX
 10103 ;;		_MPU6050_ReadAccelY
 10104 ;;		_MPU6050_ReadAccelZ
 10105 ;;		_MPU6050_ReadGyroX
 10106 ;;		_MPU6050_ReadGyroY
 10107 ;; This function uses a non-reentrant model
 10108 ;;
 10109                           
 10110                           	psect	text44
 10111   00379E                     __ptext44:
 10112                           	callstack 0
 10113   00379E                     _I2C_Start:
 10114                           	callstack 25
 10115   00379E                     
 10116                           ;./I2C.h: 36:  I2C_Hold();
 10117   00379E  EC6A  F01B         	call	_I2C_Hold	;wreg free
 10118   0037A2                     
 10119                           ;./I2C.h: 37:  SEN = 1;
 10120   0037A2  80C5               	bsf	4037,0,c	;volatile
 10121   0037A4                     l118:
 10122   0037A4  B0C5               	btfsc	4037,0,c	;volatile
 10123   0037A6  EFD7  F01B         	goto	u4051
 10124   0037AA  EFD9  F01B         	goto	u4050
 10125   0037AE                     u4051:
 10126   0037AE  EFD2  F01B         	goto	l118
 10127   0037B2                     u4050:
 10128   0037B2  0012               	return		;funcret
 10129   0037B4                     __end_of_I2C_Start:
 10130                           	callstack 0
 10131                           
 10132 ;; *************** function _I2C_RepeatedStart *****************
 10133 ;; Defined at:
 10134 ;;		line 41 in file "./I2C.h"
 10135 ;; Parameters:    Size  Location     Type
 10136 ;;		None
 10137 ;; Auto vars:     Size  Location     Type
 10138 ;;		None
 10139 ;; Return value:  Size  Location     Type
 10140 ;;                  1    wreg      void 
 10141 ;; Registers used:
 10142 ;;		wreg, status,2, status,0, cstack
 10143 ;; Tracked objects:
 10144 ;;		On entry : 0/0
 10145 ;;		On exit  : 0/0
 10146 ;;		Unchanged: 0/0
 10147 ;; Data sizes:     COMRAM   BANK0   BANK1   BANK2   BANK3   BANK4   BANK5
 10148 ;;      Params:         0       0       0       0       0       0       0
 10149 ;;      Locals:         0       0       0       0       0       0       0
 10150 ;;      Temps:          0       0       0       0       0       0       0
 10151 ;;      Totals:         0       0       0       0       0       0       0
 10152 ;;Total ram usage:        0 bytes
 10153 ;; Hardware stack levels used: 1
 10154 ;; Hardware stack levels required when called: 3
 10155 ;; This function calls:
 10156 ;;		_I2C_Hold
 10157 ;; This function is called by:
 10158 ;;		_MPU6050_ReadGyroZ
 10159 ;;		_MPU6050_ReadAccelX
 10160 ;;		_MPU6050_ReadAccelY
 10161 ;;		_MPU6050_ReadAccelZ
 10162 ;;		_MPU6050_ReadGyroX
 10163 ;;		_MPU6050_ReadGyroY
 10164 ;; This function uses a non-reentrant model
 10165 ;;
 10166                           
 10167                           	psect	text45
 10168   0037B4                     __ptext45:
 10169                           	callstack 0
 10170   0037B4                     _I2C_RepeatedStart:
 10171                           	callstack 25
 10172   0037B4                     
 10173                           ;./I2C.h: 42:     I2C_Hold();
 10174   0037B4  EC6A  F01B         	call	_I2C_Hold	;wreg free
 10175   0037B8                     
 10176                           ;./I2C.h: 43:     RSEN = 1;
 10177   0037B8  82C5               	bsf	4037,1,c	;volatile
 10178   0037BA                     l124:
 10179   0037BA  B2C5               	btfsc	4037,1,c	;volatile
 10180   0037BC  EFE2  F01B         	goto	u4061
 10181   0037C0  EFE4  F01B         	goto	u4060
 10182   0037C4                     u4061:
 10183   0037C4  EFDD  F01B         	goto	l124
 10184   0037C8                     u4060:
 10185   0037C8  0012               	return		;funcret
 10186   0037CA                     __end_of_I2C_RepeatedStart:
 10187                           	callstack 0
 10188                           
 10189 ;; *************** function _I2C_Read *****************
 10190 ;; Defined at:
 10191 ;;		line 60 in file "./I2C.h"
 10192 ;; Parameters:    Size  Location     Type
 10193 ;;  ack             1    wreg     unsigned char 
 10194 ;; Auto vars:     Size  Location     Type
 10195 ;;  ack             1    1[COMRAM] unsigned char 
 10196 ;;  data            1    2[COMRAM] unsigned char 
 10197 ;; Return value:  Size  Location     Type
 10198 ;;                  1    wreg      unsigned char 
 10199 ;; Registers used:
 10200 ;;		wreg, status,2, status,0, cstack
 10201 ;; Tracked objects:
 10202 ;;		On entry : 0/0
 10203 ;;		On exit  : 0/0
 10204 ;;		Unchanged: 0/0
 10205 ;; Data sizes:     COMRAM   BANK0   BANK1   BANK2   BANK3   BANK4   BANK5
 10206 ;;      Params:         0       0       0       0       0       0       0
 10207 ;;      Locals:         2       0       0       0       0       0       0
 10208 ;;      Temps:          0       0       0       0       0       0       0
 10209 ;;      Totals:         2       0       0       0       0       0       0
 10210 ;;Total ram usage:        2 bytes
 10211 ;; Hardware stack levels used: 1
 10212 ;; Hardware stack levels required when called: 3
 10213 ;; This function calls:
 10214 ;;		_I2C_Hold
 10215 ;; This function is called by:
 10216 ;;		_MPU6050_ReadGyroZ
 10217 ;;		_MPU6050_ReadAccelX
 10218 ;;		_MPU6050_ReadAccelY
 10219 ;;		_MPU6050_ReadAccelZ
 10220 ;;		_MPU6050_ReadGyroX
 10221 ;;		_MPU6050_ReadGyroY
 10222 ;; This function uses a non-reentrant model
 10223 ;;
 10224                           
 10225                           	psect	text46
 10226   00349A                     __ptext46:
 10227                           	callstack 0
 10228   00349A                     _I2C_Read:
 10229                           	callstack 25
 10230                           
 10231                           ;incstack = 0
 10232                           ;I2C_Read@ack stored from wreg
 10233   00349A  6E02               	movwf	I2C_Read@ack^0,c
 10234   00349C                     
 10235                           ;./I2C.h: 61:     unsigned char data;;./I2C.h: 63:     I2C_Hold();
 10236   00349C  EC6A  F01B         	call	_I2C_Hold	;wreg free
 10237   0034A0                     
 10238                           ;./I2C.h: 64:     RCEN = 1;
 10239   0034A0  86C5               	bsf	4037,3,c	;volatile
 10240   0034A2                     l142:
 10241   0034A2  A0C7               	btfss	199,0,c	;volatile
 10242   0034A4  EF56  F01A         	goto	u4091
 10243   0034A8  EF58  F01A         	goto	u4090
 10244   0034AC                     u4091:
 10245   0034AC  EF51  F01A         	goto	l142
 10246   0034B0                     u4090:
 10247   0034B0                     
 10248                           ;./I2C.h: 67:     data = SSPBUF;
 10249   0034B0  CFC9 F003          	movff	4041,I2C_Read@data	;volatile
 10250   0034B4                     
 10251                           ;./I2C.h: 69:     I2C_Hold();
 10252   0034B4  EC6A  F01B         	call	_I2C_Hold	;wreg free
 10253   0034B8                     
 10254                           ;./I2C.h: 70:     ACKDT = (ack) ? 0 : 1;
 10255   0034B8  5002               	movf	I2C_Read@ack^0,w,c
 10256   0034BA  B4D8               	btfsc	status,2,c
 10257   0034BC  EF62  F01A         	goto	u4101
 10258   0034C0  EF65  F01A         	goto	u4100
 10259   0034C4                     u4101:
 10260   0034C4  8AC5               	bsf	4037,5,c	;volatile
 10261   0034C6  EF66  F01A         	goto	u4115
 10262   0034CA                     u4100:
 10263   0034CA  9AC5               	bcf	4037,5,c	;volatile
 10264   0034CC                     u4115:
 10265   0034CC                     
 10266                           ;./I2C.h: 71:     ACKEN = 1;
 10267   0034CC  88C5               	bsf	4037,4,c	;volatile
 10268   0034CE                     l145:
 10269   0034CE  B8C5               	btfsc	4037,4,c	;volatile
 10270   0034D0  EF6C  F01A         	goto	u4121
 10271   0034D4  EF6E  F01A         	goto	u4120
 10272   0034D8                     u4121:
 10273   0034D8  EF67  F01A         	goto	l145
 10274   0034DC                     u4120:
 10275   0034DC                     
 10276                           ;./I2C.h: 74:     return data;
 10277   0034DC  5003               	movf	I2C_Read@data^0,w,c
 10278   0034DE  0012               	return		;funcret
 10279   0034E0                     __end_of_I2C_Read:
 10280                           	callstack 0
 10281                           
 10282 ;; *************** function _I2C_Hold *****************
 10283 ;; Defined at:
 10284 ;;		line 31 in file "./I2C.h"
 10285 ;; Parameters:    Size  Location     Type
 10286 ;;		None
 10287 ;; Auto vars:     Size  Location     Type
 10288 ;;		None
 10289 ;; Return value:  Size  Location     Type
 10290 ;;                  1    wreg      void 
 10291 ;; Registers used:
 10292 ;;		wreg, status,2, status,0
 10293 ;; Tracked objects:
 10294 ;;		On entry : 0/0
 10295 ;;		On exit  : 0/0
 10296 ;;		Unchanged: 0/0
 10297 ;; Data sizes:     COMRAM   BANK0   BANK1   BANK2   BANK3   BANK4   BANK5
 10298 ;;      Params:         0       0       0       0       0       0       0
 10299 ;;      Locals:         0       0       0       0       0       0       0
 10300 ;;      Temps:          1       0       0       0       0       0       0
 10301 ;;      Totals:         1       0       0       0       0       0       0
 10302 ;;Total ram usage:        1 bytes
 10303 ;; Hardware stack levels used: 1
 10304 ;; Hardware stack levels required when called: 2
 10305 ;; This function calls:
 10306 ;;		Nothing
 10307 ;; This function is called by:
 10308 ;;		_I2C_Start
 10309 ;;		_I2C_RepeatedStart
 10310 ;;		_I2C_Stop
 10311 ;;		_I2C_Write
 10312 ;;		_I2C_Read
 10313 ;; This function uses a non-reentrant model
 10314 ;;
 10315                           
 10316                           	psect	text47
 10317   0036D4                     __ptext47:
 10318                           	callstack 0
 10319   0036D4                     _I2C_Hold:
 10320                           	callstack 25
 10321   0036D4                     l3593:
 10322   0036D4  CFC5 F001          	movff	4037,??_I2C_Hold	;volatile
 10323   0036D8  0E1F               	movlw	31
 10324   0036DA  1601               	andwf	??_I2C_Hold^0,f,c
 10325   0036DC  A4D8               	btfss	status,2,c
 10326   0036DE  EF73  F01B         	goto	u3651
 10327   0036E2  EF75  F01B         	goto	u3650
 10328   0036E6                     u3651:
 10329   0036E6  EF6A  F01B         	goto	l3593
 10330   0036EA                     u3650:
 10331   0036EA  B4C7               	btfsc	199,2,c	;volatile
 10332   0036EC  EF7A  F01B         	goto	u3661
 10333   0036F0  EF7C  F01B         	goto	u3660
 10334   0036F4                     u3661:
 10335   0036F4  EF6A  F01B         	goto	l3593
 10336   0036F8                     u3660:
 10337   0036F8  0012               	return		;funcret
 10338   0036FA                     __end_of_I2C_Hold:
 10339                           	callstack 0
 10340                           
 10341 ;; *************** function _I2C_Init *****************
 10342 ;; Defined at:
 10343 ;;		line 24 in file "./I2C.h"
 10344 ;; Parameters:    Size  Location     Type
 10345 ;;		None
 10346 ;; Auto vars:     Size  Location     Type
 10347 ;;		None
 10348 ;; Return value:  Size  Location     Type
 10349 ;;                  1    wreg      void 
 10350 ;; Registers used:
 10351 ;;		wreg, status,2
 10352 ;; Tracked objects:
 10353 ;;		On entry : 0/0
 10354 ;;		On exit  : 0/0
 10355 ;;		Unchanged: 0/0
 10356 ;; Data sizes:     COMRAM   BANK0   BANK1   BANK2   BANK3   BANK4   BANK5
 10357 ;;      Params:         0       0       0       0       0       0       0
 10358 ;;      Locals:         0       0       0       0       0       0       0
 10359 ;;      Temps:          0       0       0       0       0       0       0
 10360 ;;      Totals:         0       0       0       0       0       0       0
 10361 ;;Total ram usage:        0 bytes
 10362 ;; Hardware stack levels used: 1
 10363 ;; Hardware stack levels required when called: 2
 10364 ;; This function calls:
 10365 ;;		Nothing
 10366 ;; This function is called by:
 10367 ;;		_main
 10368 ;; This function uses a non-reentrant model
 10369 ;;
 10370                           
 10371                           	psect	text48
 10372   0037CA                     __ptext48:
 10373                           	callstack 0
 10374   0037CA                     _I2C_Init:
 10375                           	callstack 28
 10376   0037CA                     
 10377                           ;./I2C.h: 25:  SSPCON1 = 0b00101000;
 10378   0037CA  0E28               	movlw	40
 10379   0037CC  6EC6               	movwf	198,c	;volatile
 10380   0037CE                     
 10381                           ;./I2C.h: 26:  SSPCON2 = 0b00000000;
 10382   0037CE  6AC5               	clrf	197,c	;volatile
 10383                           
 10384                           ;./I2C.h: 27:  SSPADD = ((4000000 / 4) / 100000) - 1;
 10385   0037D0  0E09               	movlw	9
 10386   0037D2  6EC8               	movwf	200,c	;volatile
 10387   0037D4                     
 10388                           ;./I2C.h: 28:  SSPSTAT = 0b00000000;
 10389   0037D4  6AC7               	clrf	199,c	;volatile
 10390   0037D6  0012               	return		;funcret
 10391   0037D8                     __end_of_I2C_Init:
 10392                           	callstack 0
 10393                           
 10394 ;; *************** function _GetDistance *****************
 10395 ;; Defined at:
 10396 ;;		line 101 in file "main.c"
 10397 ;; Parameters:    Size  Location     Type
 10398 ;;		None
 10399 ;; Auto vars:     Size  Location     Type
 10400 ;;  pulseWidth      2   55[COMRAM] unsigned int 
 10401 ;;  distance_cm     2   53[COMRAM] unsigned int 
 10402 ;; Return value:  Size  Location     Type
 10403 ;;                  2   49[COMRAM] unsigned int 
 10404 ;; Registers used:
 10405 ;;		wreg, status,2, status,0, prodl, prodh, cstack
 10406 ;; Tracked objects:
 10407 ;;		On entry : 0/0
 10408 ;;		On exit  : 0/0
 10409 ;;		Unchanged: 0/0
 10410 ;; Data sizes:     COMRAM   BANK0   BANK1   BANK2   BANK3   BANK4   BANK5
 10411 ;;      Params:         2       0       0       0       0       0       0
 10412 ;;      Locals:         4       0       0       0       0       0       0
 10413 ;;      Temps:          2       0       0       0       0       0       0
 10414 ;;      Totals:         8       0       0       0       0       0       0
 10415 ;;Total ram usage:        8 bytes
 10416 ;; Hardware stack levels used: 1
 10417 ;; Hardware stack levels required when called: 3
 10418 ;; This function calls:
 10419 ;;		___flmul
 10420 ;;		___fltol
 10421 ;;		___xxtofl
 10422 ;; This function is called by:
 10423 ;;		_main
 10424 ;; This function uses a non-reentrant model
 10425 ;;
 10426                           
 10427                           	psect	text49
 10428   002E42                     __ptext49:
 10429                           	callstack 0
 10430   002E42                     _GetDistance:
 10431                           	callstack 27
 10432   002E42                     
 10433                           ;main.c: 103:     unsigned int pulseWidth = 0;
 10434   002E42  0E00               	movlw	0
 10435   002E44  6E39               	movwf	(GetDistance@pulseWidth+1)^0,c
 10436   002E46  0E00               	movlw	0
 10437   002E48  6E38               	movwf	GetDistance@pulseWidth^0,c
 10438   002E4A                     
 10439                           ;main.c: 105:     TMR1H = 0;
 10440   002E4A  6ACF               	clrf	207,c	;volatile
 10441   002E4C                     
 10442                           ;main.c: 106:     TMR1L = 0;
 10443   002E4C  6ACE               	clrf	206,c	;volatile
 10444   002E4E                     
 10445                           ;main.c: 107:     PIR1bits.TMR1IF = 0;
 10446   002E4E  909E               	bcf	158,0,c	;volatile
 10447   002E50                     
 10448                           ;main.c: 109:     LATDbits.LATD2 = 0;
 10449   002E50  948C               	bcf	140,2,c	;volatile
 10450   002E52                     
 10451                           ;main.c: 110:     _delay((unsigned long)((2)*(4000000/4000000.0)));
 10452   002E52  D000               	nop2		;2 cycle nop
 10453   002E54                     
 10454                           ;main.c: 111:     LATDbits.LATD2 = 1;
 10455   002E54  848C               	bsf	140,2,c	;volatile
 10456   002E56                     
 10457                           ;main.c: 112:     _delay((unsigned long)((11)*(4000000/4000000.0)));
 10458   002E56  0E03               	movlw	3
 10459   002E58                     u5297:
 10460   002E58  2EE8               	decfsz	wreg,f,c
 10461   002E5A  D7FE               	bra	u5297
 10462   002E5C  D000               	nop2	
 10463   002E5E                     
 10464                           ;main.c: 113:     LATDbits.LATD2 = 0;
 10465   002E5E  948C               	bcf	140,2,c	;volatile
 10466   002E60                     l254:
 10467   002E60  A683               	btfss	131,3,c	;volatile
 10468   002E62  EF35  F017         	goto	u4571
 10469   002E66  EF37  F017         	goto	u4570
 10470   002E6A                     u4571:
 10471   002E6A  EF30  F017         	goto	l254
 10472   002E6E                     u4570:
 10473   002E6E                     
 10474                           ;main.c: 116:     T1CONbits.TMR1ON = 1;
 10475   002E6E  80CD               	bsf	205,0,c	;volatile
 10476   002E70                     l257:
 10477   002E70  B683               	btfsc	131,3,c	;volatile
 10478   002E72  EF3D  F017         	goto	u4581
 10479   002E76  EF3F  F017         	goto	u4580
 10480   002E7A                     u4581:
 10481   002E7A  EF38  F017         	goto	l257
 10482   002E7E                     u4580:
 10483   002E7E                     
 10484                           ;main.c: 118:     T1CONbits.TMR1ON = 0;
 10485   002E7E  90CD               	bcf	205,0,c	;volatile
 10486   002E80                     
 10487                           ;main.c: 120:     pulseWidth = ((TMR1H << 8) | TMR1L);
 10488   002E80  50CE               	movf	206,w,c	;volatile
 10489   002E82  CFCF F034          	movff	4047,??_GetDistance	;volatile
 10490   002E86  6A35               	clrf	(??_GetDistance+1)^0,c
 10491   002E88  C034  F035         	movff	??_GetDistance,??_GetDistance+1
 10492   002E8C  6A34               	clrf	??_GetDistance^0,c
 10493   002E8E  1034               	iorwf	??_GetDistance^0,w,c
 10494   002E90  6E38               	movwf	GetDistance@pulseWidth^0,c
 10495   002E92  5035               	movf	(??_GetDistance+1)^0,w,c
 10496   002E94  6E39               	movwf	(GetDistance@pulseWidth+1)^0,c
 10497   002E96                     
 10498                           ;main.c: 121:     distance_cm = pulseWidth * 0.0343;
 10499   002E96  0E28               	movlw	40
 10500   002E98  6E13               	movwf	___flmul@a^0,c
 10501   002E9A  0E7E               	movlw	126
 10502   002E9C  6E14               	movwf	(___flmul@a+1)^0,c
 10503   002E9E  0E0C               	movlw	12
 10504   002EA0  6E15               	movwf	(___flmul@a+2)^0,c
 10505   002EA2  0E3D               	movlw	61
 10506   002EA4  6E16               	movwf	(___flmul@a+3)^0,c
 10507   002EA6  C038  F001         	movff	GetDistance@pulseWidth,___xxtofl@val
 10508   002EAA  C039  F002         	movff	GetDistance@pulseWidth+1,___xxtofl@val+1
 10509   002EAE  6A03               	clrf	(___xxtofl@val+2)^0,c
 10510   002EB0  6A04               	clrf	(___xxtofl@val+3)^0,c
 10511   002EB2  0E00               	movlw	0
 10512   002EB4  EC55  F010         	call	___xxtofl
 10513   002EB8  C001  F00F         	movff	?___xxtofl,___flmul@b
 10514   002EBC  C002  F010         	movff	?___xxtofl+1,___flmul@b+1
 10515   002EC0  C003  F011         	movff	?___xxtofl+2,___flmul@b+2
 10516   002EC4  C004  F012         	movff	?___xxtofl+3,___flmul@b+3
 10517   002EC8  EC5A  F007         	call	___flmul	;wreg free
 10518   002ECC  C00F  F028         	movff	?___flmul,___fltol@f1
 10519   002ED0  C010  F029         	movff	?___flmul+1,___fltol@f1+1
 10520   002ED4  C011  F02A         	movff	?___flmul+2,___fltol@f1+2
 10521   002ED8  C012  F02B         	movff	?___flmul+3,___fltol@f1+3
 10522   002EDC  ECE0  F013         	call	___fltol	;wreg free
 10523   002EE0  C028  F036         	movff	?___fltol,GetDistance@distance_cm
 10524   002EE4  C029  F037         	movff	?___fltol+1,GetDistance@distance_cm+1
 10525   002EE8                     
 10526                           ;main.c: 123:     return distance_cm;
 10527   002EE8  C036  F032         	movff	GetDistance@distance_cm,?_GetDistance
 10528   002EEC  C037  F033         	movff	GetDistance@distance_cm+1,?_GetDistance+1
 10529   002EF0  0012               	return		;funcret
 10530   002EF2                     __end_of_GetDistance:
 10531                           	callstack 0
 10532                           
 10533 ;; *************** function ___xxtofl *****************
 10534 ;; Defined at:
 10535 ;;		line 10 in file "C:\Program Files\Microchip\xc8\v3.00\pic\sources\c99\common\xxtofl.c"
 10536 ;; Parameters:    Size  Location     Type
 10537 ;;  sign            1    wreg     unsigned char 
 10538 ;;  val             4    0[COMRAM] long 
 10539 ;; Auto vars:     Size  Location     Type
 10540 ;;  sign            1    8[COMRAM] unsigned char 
 10541 ;;  arg             4   10[COMRAM] unsigned long 
 10542 ;;  exp             1    9[COMRAM] unsigned char 
 10543 ;; Return value:  Size  Location     Type
 10544 ;;                  4    0[COMRAM] unsigned char 
 10545 ;; Registers used:
 10546 ;;		wreg, status,2, status,0
 10547 ;; Tracked objects:
 10548 ;;		On entry : 0/0
 10549 ;;		On exit  : 0/0
 10550 ;;		Unchanged: 0/0
 10551 ;; Data sizes:     COMRAM   BANK0   BANK1   BANK2   BANK3   BANK4   BANK5
 10552 ;;      Params:         4       0       0       0       0       0       0
 10553 ;;      Locals:         6       0       0       0       0       0       0
 10554 ;;      Temps:          4       0       0       0       0       0       0
 10555 ;;      Totals:        14       0       0       0       0       0       0
 10556 ;;Total ram usage:       14 bytes
 10557 ;; Hardware stack levels used: 1
 10558 ;; Hardware stack levels required when called: 2
 10559 ;; This function calls:
 10560 ;;		Nothing
 10561 ;; This function is called by:
 10562 ;;		_updateYaw
 10563 ;;		_GetDistance
 10564 ;; This function uses a non-reentrant model
 10565 ;;
 10566                           
 10567                           	psect	text50
 10568   0020AA                     __ptext50:
 10569                           	callstack 0
 10570   0020AA                     ___xxtofl:
 10571                           	callstack 27
 10572                           
 10573                           ;incstack = 0
 10574                           ;___xxtofl@sign stored from wreg
 10575   0020AA  6E09               	movwf	___xxtofl@sign^0,c
 10576   0020AC  5009               	movf	___xxtofl@sign^0,w,c
 10577   0020AE  B4D8               	btfsc	status,2,c
 10578   0020B0  EF5C  F010         	goto	u4451
 10579   0020B4  EF5E  F010         	goto	u4450
 10580   0020B8                     u4451:
 10581   0020B8  EF80  F010         	goto	l972
 10582   0020BC                     u4450:
 10583   0020BC  BE04               	btfsc	(___xxtofl@val+3)^0,7,c
 10584   0020BE  EF65  F010         	goto	u4460
 10585   0020C2  EF63  F010         	goto	u4461
 10586   0020C6                     u4461:
 10587   0020C6  EF80  F010         	goto	l972
 10588   0020CA                     u4460:
 10589   0020CA  C001  F005         	movff	___xxtofl@val,??___xxtofl
 10590   0020CE  C002  F006         	movff	___xxtofl@val+1,??___xxtofl+1
 10591   0020D2  C003  F007         	movff	___xxtofl@val+2,??___xxtofl+2
 10592   0020D6  C004  F008         	movff	___xxtofl@val+3,??___xxtofl+3
 10593   0020DA  1E05               	comf	??___xxtofl^0,f,c
 10594   0020DC  1E06               	comf	(??___xxtofl+1)^0,f,c
 10595   0020DE  1E07               	comf	(??___xxtofl+2)^0,f,c
 10596   0020E0  1E08               	comf	(??___xxtofl+3)^0,f,c
 10597   0020E2  2A05               	incf	??___xxtofl^0,f,c
 10598   0020E4  0E00               	movlw	0
 10599   0020E6  2206               	addwfc	(??___xxtofl+1)^0,f,c
 10600   0020E8  2207               	addwfc	(??___xxtofl+2)^0,f,c
 10601   0020EA  2208               	addwfc	(??___xxtofl+3)^0,f,c
 10602   0020EC  C005  F00B         	movff	??___xxtofl,___xxtofl@arg
 10603   0020F0  C006  F00C         	movff	??___xxtofl+1,___xxtofl@arg+1
 10604   0020F4  C007  F00D         	movff	??___xxtofl+2,___xxtofl@arg+2
 10605   0020F8  C008  F00E         	movff	??___xxtofl+3,___xxtofl@arg+3
 10606   0020FC  EF88  F010         	goto	l4213
 10607   002100                     l972:
 10608   002100  C001  F00B         	movff	___xxtofl@val,___xxtofl@arg
 10609   002104  C002  F00C         	movff	___xxtofl@val+1,___xxtofl@arg+1
 10610   002108  C003  F00D         	movff	___xxtofl@val+2,___xxtofl@arg+2
 10611   00210C  C004  F00E         	movff	___xxtofl@val+3,___xxtofl@arg+3
 10612   002110                     l4213:
 10613   002110  5001               	movf	___xxtofl@val^0,w,c
 10614   002112  1002               	iorwf	(___xxtofl@val+1)^0,w,c
 10615   002114  1003               	iorwf	(___xxtofl@val+2)^0,w,c
 10616   002116  1004               	iorwf	(___xxtofl@val+3)^0,w,c
 10617   002118  A4D8               	btfss	status,2,c
 10618   00211A  EF91  F010         	goto	u4471
 10619   00211E  EF93  F010         	goto	u4470
 10620   002122                     u4471:
 10621   002122  EF9D  F010         	goto	l4219
 10622   002126                     u4470:
 10623   002126  0E00               	movlw	0
 10624   002128  6E01               	movwf	?___xxtofl^0,c
 10625   00212A  0E00               	movlw	0
 10626   00212C  6E02               	movwf	(?___xxtofl+1)^0,c
 10627   00212E  0E00               	movlw	0
 10628   002130  6E03               	movwf	(?___xxtofl+2)^0,c
 10629   002132  0E00               	movlw	0
 10630   002134  6E04               	movwf	(?___xxtofl+3)^0,c
 10631   002136  EF2E  F011         	goto	l975
 10632   00213A                     l4219:
 10633   00213A  0E96               	movlw	150
 10634   00213C  6E0A               	movwf	___xxtofl@exp^0,c
 10635   00213E  EFA7  F010         	goto	l4223
 10636   002142                     l4221:
 10637   002142  2A0A               	incf	___xxtofl@exp^0,f,c
 10638   002144  90D8               	bcf	status,0,c
 10639   002146  320E               	rrcf	(___xxtofl@arg+3)^0,f,c
 10640   002148  320D               	rrcf	(___xxtofl@arg+2)^0,f,c
 10641   00214A  320C               	rrcf	(___xxtofl@arg+1)^0,f,c
 10642   00214C  320B               	rrcf	___xxtofl@arg^0,f,c
 10643   00214E                     l4223:
 10644   00214E  0E00               	movlw	0
 10645   002150  140B               	andwf	___xxtofl@arg^0,w,c
 10646   002152  6E05               	movwf	??___xxtofl^0,c
 10647   002154  0E00               	movlw	0
 10648   002156  140C               	andwf	(___xxtofl@arg+1)^0,w,c
 10649   002158  6E06               	movwf	(??___xxtofl+1)^0,c
 10650   00215A  0E00               	movlw	0
 10651   00215C  140D               	andwf	(___xxtofl@arg+2)^0,w,c
 10652   00215E  6E07               	movwf	(??___xxtofl+2)^0,c
 10653   002160  0EFE               	movlw	254
 10654   002162  140E               	andwf	(___xxtofl@arg+3)^0,w,c
 10655   002164  6E08               	movwf	(??___xxtofl+3)^0,c
 10656   002166  5005               	movf	??___xxtofl^0,w,c
 10657   002168  1006               	iorwf	(??___xxtofl+1)^0,w,c
 10658   00216A  1007               	iorwf	(??___xxtofl+2)^0,w,c
 10659   00216C  1008               	iorwf	(??___xxtofl+3)^0,w,c
 10660   00216E  A4D8               	btfss	status,2,c
 10661   002170  EFBC  F010         	goto	u4481
 10662   002174  EFBE  F010         	goto	u4480
 10663   002178                     u4481:
 10664   002178  EFA1  F010         	goto	l4221
 10665   00217C                     u4480:
 10666   00217C  EFCC  F010         	goto	l979
 10667   002180                     l4225:
 10668   002180  2A0A               	incf	___xxtofl@exp^0,f,c
 10669   002182  0E01               	movlw	1
 10670   002184  260B               	addwf	___xxtofl@arg^0,f,c
 10671   002186  0E00               	movlw	0
 10672   002188  220C               	addwfc	(___xxtofl@arg+1)^0,f,c
 10673   00218A  220D               	addwfc	(___xxtofl@arg+2)^0,f,c
 10674   00218C  220E               	addwfc	(___xxtofl@arg+3)^0,f,c
 10675   00218E  90D8               	bcf	status,0,c
 10676   002190  320E               	rrcf	(___xxtofl@arg+3)^0,f,c
 10677   002192  320D               	rrcf	(___xxtofl@arg+2)^0,f,c
 10678   002194  320C               	rrcf	(___xxtofl@arg+1)^0,f,c
 10679   002196  320B               	rrcf	___xxtofl@arg^0,f,c
 10680   002198                     l979:
 10681   002198  0E00               	movlw	0
 10682   00219A  140B               	andwf	___xxtofl@arg^0,w,c
 10683   00219C  6E05               	movwf	??___xxtofl^0,c
 10684   00219E  0E00               	movlw	0
 10685   0021A0  140C               	andwf	(___xxtofl@arg+1)^0,w,c
 10686   0021A2  6E06               	movwf	(??___xxtofl+1)^0,c
 10687   0021A4  0E00               	movlw	0
 10688   0021A6  140D               	andwf	(___xxtofl@arg+2)^0,w,c
 10689   0021A8  6E07               	movwf	(??___xxtofl+2)^0,c
 10690   0021AA  0EFF               	movlw	255
 10691   0021AC  140E               	andwf	(___xxtofl@arg+3)^0,w,c
 10692   0021AE  6E08               	movwf	(??___xxtofl+3)^0,c
 10693   0021B0  5005               	movf	??___xxtofl^0,w,c
 10694   0021B2  1006               	iorwf	(??___xxtofl+1)^0,w,c
 10695   0021B4  1007               	iorwf	(??___xxtofl+2)^0,w,c
 10696   0021B6  1008               	iorwf	(??___xxtofl+3)^0,w,c
 10697   0021B8  A4D8               	btfss	status,2,c
 10698   0021BA  EFE1  F010         	goto	u4491
 10699   0021BE  EFE3  F010         	goto	u4490
 10700   0021C2                     u4491:
 10701   0021C2  EFC0  F010         	goto	l4225
 10702   0021C6                     u4490:
 10703   0021C6  EFEB  F010         	goto	l4233
 10704   0021CA                     l4231:
 10705   0021CA  060A               	decf	___xxtofl@exp^0,f,c
 10706   0021CC  90D8               	bcf	status,0,c
 10707   0021CE  360B               	rlcf	___xxtofl@arg^0,f,c
 10708   0021D0  360C               	rlcf	(___xxtofl@arg+1)^0,f,c
 10709   0021D2  360D               	rlcf	(___xxtofl@arg+2)^0,f,c
 10710   0021D4  360E               	rlcf	(___xxtofl@arg+3)^0,f,c
 10711   0021D6                     l4233:
 10712   0021D6  BE0D               	btfsc	(___xxtofl@arg+2)^0,7,c
 10713   0021D8  EFF0  F010         	goto	u4501
 10714   0021DC  EFF2  F010         	goto	u4500
 10715   0021E0                     u4501:
 10716   0021E0  EFFA  F010         	goto	l986
 10717   0021E4                     u4500:
 10718   0021E4  0E02               	movlw	2
 10719   0021E6  600A               	cpfslt	___xxtofl@exp^0,c
 10720   0021E8  EFF8  F010         	goto	u4511
 10721   0021EC  EFFA  F010         	goto	u4510
 10722   0021F0                     u4511:
 10723   0021F0  EFE5  F010         	goto	l4231
 10724   0021F4                     u4510:
 10725   0021F4                     l986:
 10726   0021F4  B00A               	btfsc	___xxtofl@exp^0,0,c
 10727   0021F6  EFFF  F010         	goto	u4521
 10728   0021FA  EF01  F011         	goto	u4520
 10729   0021FE                     u4521:
 10730   0021FE  EF02  F011         	goto	l4239
 10731   002202                     u4520:
 10732   002202  9E0D               	bcf	(___xxtofl@arg+2)^0,7,c
 10733   002204                     l4239:
 10734   002204  90D8               	bcf	status,0,c
 10735   002206  320A               	rrcf	___xxtofl@exp^0,f,c
 10736   002208  C00A  F005         	movff	___xxtofl@exp,??___xxtofl
 10737   00220C  6A06               	clrf	(??___xxtofl+1)^0,c
 10738   00220E  6A07               	clrf	(??___xxtofl+2)^0,c
 10739   002210  6A08               	clrf	(??___xxtofl+3)^0,c
 10740   002212  C005  F008         	movff	??___xxtofl,??___xxtofl+3
 10741   002216  6A07               	clrf	(??___xxtofl+2)^0,c
 10742   002218  6A06               	clrf	(??___xxtofl+1)^0,c
 10743   00221A  6A05               	clrf	??___xxtofl^0,c
 10744   00221C  5005               	movf	??___xxtofl^0,w,c
 10745   00221E  120B               	iorwf	___xxtofl@arg^0,f,c
 10746   002220  5006               	movf	(??___xxtofl+1)^0,w,c
 10747   002222  120C               	iorwf	(___xxtofl@arg+1)^0,f,c
 10748   002224  5007               	movf	(??___xxtofl+2)^0,w,c
 10749   002226  120D               	iorwf	(___xxtofl@arg+2)^0,f,c
 10750   002228  5008               	movf	(??___xxtofl+3)^0,w,c
 10751   00222A  120E               	iorwf	(___xxtofl@arg+3)^0,f,c
 10752   00222C  5009               	movf	___xxtofl@sign^0,w,c
 10753   00222E  B4D8               	btfsc	status,2,c
 10754   002230  EF1C  F011         	goto	u4531
 10755   002234  EF1E  F011         	goto	u4530
 10756   002238                     u4531:
 10757   002238  EF26  F011         	goto	l4249
 10758   00223C                     u4530:
 10759   00223C  BE04               	btfsc	(___xxtofl@val+3)^0,7,c
 10760   00223E  EF25  F011         	goto	u4540
 10761   002242  EF23  F011         	goto	u4541
 10762   002246                     u4541:
 10763   002246  EF26  F011         	goto	l4249
 10764   00224A                     u4540:
 10765   00224A  8E0E               	bsf	(___xxtofl@arg+3)^0,7,c
 10766   00224C                     l4249:
 10767   00224C  C00B  F001         	movff	___xxtofl@arg,?___xxtofl
 10768   002250  C00C  F002         	movff	___xxtofl@arg+1,?___xxtofl+1
 10769   002254  C00D  F003         	movff	___xxtofl@arg+2,?___xxtofl+2
 10770   002258  C00E  F004         	movff	___xxtofl@arg+3,?___xxtofl+3
 10771   00225C                     l975:
 10772   00225C  0012               	return		;funcret
 10773   00225E                     __end_of___xxtofl:
 10774                           	callstack 0
 10775                           
 10776 ;; *************** function ___fltol *****************
 10777 ;; Defined at:
 10778 ;;		line 43 in file "C:\Program Files\Microchip\xc8\v3.00\pic\sources\c99\common\fltol.c"
 10779 ;; Parameters:    Size  Location     Type
 10780 ;;  f1              4   39[COMRAM] unsigned char 
 10781 ;; Auto vars:     Size  Location     Type
 10782 ;;  exp1            1   48[COMRAM] unsigned char 
 10783 ;;  sign1           1   47[COMRAM] unsigned char 
 10784 ;; Return value:  Size  Location     Type
 10785 ;;                  4   39[COMRAM] long 
 10786 ;; Registers used:
 10787 ;;		wreg, status,2, status,0
 10788 ;; Tracked objects:
 10789 ;;		On entry : 0/0
 10790 ;;		On exit  : 0/0
 10791 ;;		Unchanged: 0/0
 10792 ;; Data sizes:     COMRAM   BANK0   BANK1   BANK2   BANK3   BANK4   BANK5
 10793 ;;      Params:         4       0       0       0       0       0       0
 10794 ;;      Locals:         2       0       0       0       0       0       0
 10795 ;;      Temps:          4       0       0       0       0       0       0
 10796 ;;      Totals:        10       0       0       0       0       0       0
 10797 ;;Total ram usage:       10 bytes
 10798 ;; Hardware stack levels used: 1
 10799 ;; Hardware stack levels required when called: 2
 10800 ;; This function calls:
 10801 ;;		Nothing
 10802 ;; This function is called by:
 10803 ;;		_GetDistance
 10804 ;;		_efgtoa
 10805 ;; This function uses a non-reentrant model
 10806 ;;
 10807                           
 10808                           	psect	text51
 10809   0027C0                     __ptext51:
 10810                           	callstack 0
 10811   0027C0                     ___fltol:
 10812                           	callstack 24
 10813   0027C0  342A               	rlcf	(___fltol@f1+2)^0,w,c
 10814   0027C2  342B               	rlcf	(___fltol@f1+3)^0,w,c
 10815   0027C4  6E31               	movwf	___fltol@exp1^0,c
 10816   0027C6  5031               	movf	___fltol@exp1^0,w,c
 10817   0027C8  A4D8               	btfss	status,2,c
 10818   0027CA  EFE9  F013         	goto	u3371
 10819   0027CE  EFEB  F013         	goto	u3370
 10820   0027D2                     u3371:
 10821   0027D2  EFF5  F013         	goto	l3479
 10822   0027D6                     u3370:
 10823   0027D6                     l3475:
 10824   0027D6  0E00               	movlw	0
 10825   0027D8  6E28               	movwf	?___fltol^0,c
 10826   0027DA  0E00               	movlw	0
 10827   0027DC  6E29               	movwf	(?___fltol+1)^0,c
 10828   0027DE  0E00               	movlw	0
 10829   0027E0  6E2A               	movwf	(?___fltol+2)^0,c
 10830   0027E2  0E00               	movlw	0
 10831   0027E4  6E2B               	movwf	(?___fltol+3)^0,c
 10832   0027E6  EF62  F014         	goto	l614
 10833   0027EA                     l3479:
 10834   0027EA  C028  F02C         	movff	___fltol@f1,??___fltol
 10835   0027EE  C029  F02D         	movff	___fltol@f1+1,??___fltol+1
 10836   0027F2  C02A  F02E         	movff	___fltol@f1+2,??___fltol+2
 10837   0027F6  C02B  F02F         	movff	___fltol@f1+3,??___fltol+3
 10838   0027FA  0E20               	movlw	32
 10839   0027FC  EF05  F014         	goto	u3380
 10840   002800                     u3385:
 10841   002800  90D8               	bcf	status,0,c
 10842   002802  322F               	rrcf	(??___fltol+3)^0,f,c
 10843   002804  322E               	rrcf	(??___fltol+2)^0,f,c
 10844   002806  322D               	rrcf	(??___fltol+1)^0,f,c
 10845   002808  322C               	rrcf	??___fltol^0,f,c
 10846   00280A                     u3380:
 10847   00280A  2EE8               	decfsz	wreg,f,c
 10848   00280C  EF00  F014         	goto	u3385
 10849   002810  502C               	movf	??___fltol^0,w,c
 10850   002812  6E30               	movwf	___fltol@sign1^0,c
 10851   002814  8E2A               	bsf	(___fltol@f1+2)^0,7,c
 10852   002816  0EFF               	movlw	255
 10853   002818  1628               	andwf	___fltol@f1^0,f,c
 10854   00281A  0EFF               	movlw	255
 10855   00281C  1629               	andwf	(___fltol@f1+1)^0,f,c
 10856   00281E  0EFF               	movlw	255
 10857   002820  162A               	andwf	(___fltol@f1+2)^0,f,c
 10858   002822  0E00               	movlw	0
 10859   002824  162B               	andwf	(___fltol@f1+3)^0,f,c
 10860   002826  0E96               	movlw	150
 10861   002828  5E31               	subwf	___fltol@exp1^0,f,c
 10862   00282A  BE31               	btfsc	___fltol@exp1^0,7,c
 10863   00282C  EF1C  F014         	goto	u3390
 10864   002830  EF1A  F014         	goto	u3391
 10865   002834                     u3391:
 10866   002834  EF32  F014         	goto	l3499
 10867   002838                     u3390:
 10868   002838  5031               	movf	___fltol@exp1^0,w,c
 10869   00283A  0A80               	xorlw	128
 10870   00283C  0F97               	addlw	151
 10871   00283E  B0D8               	btfsc	status,0,c
 10872   002840  EF24  F014         	goto	u3401
 10873   002844  EF26  F014         	goto	u3400
 10874   002848                     u3401:
 10875   002848  EF28  F014         	goto	l3495
 10876   00284C                     u3400:
 10877   00284C  EFEB  F013         	goto	l3475
 10878   002850                     l3495:
 10879   002850  90D8               	bcf	status,0,c
 10880   002852  322B               	rrcf	(___fltol@f1+3)^0,f,c
 10881   002854  322A               	rrcf	(___fltol@f1+2)^0,f,c
 10882   002856  3229               	rrcf	(___fltol@f1+1)^0,f,c
 10883   002858  3228               	rrcf	___fltol@f1^0,f,c
 10884   00285A  3E31               	incfsz	___fltol@exp1^0,f,c
 10885   00285C  EF28  F014         	goto	l3495
 10886   002860  EF4A  F014         	goto	l3509
 10887   002864                     l3499:
 10888   002864  0E1F               	movlw	31
 10889   002866  6431               	cpfsgt	___fltol@exp1^0,c
 10890   002868  EF38  F014         	goto	u3411
 10891   00286C  EF3A  F014         	goto	u3410
 10892   002870                     u3411:
 10893   002870  EF42  F014         	goto	l3507
 10894   002874                     u3410:
 10895   002874  EFEB  F013         	goto	l3475
 10896   002878                     l3505:
 10897   002878  90D8               	bcf	status,0,c
 10898   00287A  3628               	rlcf	___fltol@f1^0,f,c
 10899   00287C  3629               	rlcf	(___fltol@f1+1)^0,f,c
 10900   00287E  362A               	rlcf	(___fltol@f1+2)^0,f,c
 10901   002880  362B               	rlcf	(___fltol@f1+3)^0,f,c
 10902   002882  0631               	decf	___fltol@exp1^0,f,c
 10903   002884                     l3507:
 10904   002884  5031               	movf	___fltol@exp1^0,w,c
 10905   002886  A4D8               	btfss	status,2,c
 10906   002888  EF48  F014         	goto	u3421
 10907   00288C  EF4A  F014         	goto	u3420
 10908   002890                     u3421:
 10909   002890  EF3C  F014         	goto	l3505
 10910   002894                     u3420:
 10911   002894                     l3509:
 10912   002894  5030               	movf	___fltol@sign1^0,w,c
 10913   002896  B4D8               	btfsc	status,2,c
 10914   002898  EF50  F014         	goto	u3431
 10915   00289C  EF52  F014         	goto	u3430
 10916   0028A0                     u3431:
 10917   0028A0  EF5A  F014         	goto	l3513
 10918   0028A4                     u3430:
 10919   0028A4  1E2B               	comf	(___fltol@f1+3)^0,f,c
 10920   0028A6  1E2A               	comf	(___fltol@f1+2)^0,f,c
 10921   0028A8  1E29               	comf	(___fltol@f1+1)^0,f,c
 10922   0028AA  6C28               	negf	___fltol@f1^0,c
 10923   0028AC  0E00               	movlw	0
 10924   0028AE  2229               	addwfc	(___fltol@f1+1)^0,f,c
 10925   0028B0  222A               	addwfc	(___fltol@f1+2)^0,f,c
 10926   0028B2  222B               	addwfc	(___fltol@f1+3)^0,f,c
 10927   0028B4                     l3513:
 10928   0028B4  C028  F028         	movff	___fltol@f1,?___fltol
 10929   0028B8  C029  F029         	movff	___fltol@f1+1,?___fltol+1
 10930   0028BC  C02A  F02A         	movff	___fltol@f1+2,?___fltol+2
 10931   0028C0  C02B  F02B         	movff	___fltol@f1+3,?___fltol+3
 10932   0028C4                     l614:
 10933   0028C4  0012               	return		;funcret
 10934   0028C6                     __end_of___fltol:
 10935                           	callstack 0
 10936                           
 10937 ;; *************** function ___flmul *****************
 10938 ;; Defined at:
 10939 ;;		line 8 in file "C:\Program Files\Microchip\xc8\v3.00\pic\sources\c99\common\sprcmul.c"
 10940 ;; Parameters:    Size  Location     Type
 10941 ;;  b               4   14[COMRAM] long 
 10942 ;;  a               4   18[COMRAM] long 
 10943 ;; Auto vars:     Size  Location     Type
 10944 ;;  prod            4   33[COMRAM] struct .
 10945 ;;  grs             4   27[COMRAM] unsigned long 
 10946 ;;  temp            2   37[COMRAM] struct .
 10947 ;;  bexp            1   32[COMRAM] unsigned char 
 10948 ;;  aexp            1   31[COMRAM] unsigned char 
 10949 ;;  sign            1   26[COMRAM] unsigned char 
 10950 ;; Return value:  Size  Location     Type
 10951 ;;                  4   14[COMRAM] unsigned char 
 10952 ;; Registers used:
 10953 ;;		wreg, status,2, status,0, prodl, prodh
 10954 ;; Tracked objects:
 10955 ;;		On entry : 0/0
 10956 ;;		On exit  : 0/0
 10957 ;;		Unchanged: 0/0
 10958 ;; Data sizes:     COMRAM   BANK0   BANK1   BANK2   BANK3   BANK4   BANK5
 10959 ;;      Params:         8       0       0       0       0       0       0
 10960 ;;      Locals:        13       0       0       0       0       0       0
 10961 ;;      Temps:          4       0       0       0       0       0       0
 10962 ;;      Totals:        25       0       0       0       0       0       0
 10963 ;;Total ram usage:       25 bytes
 10964 ;; Hardware stack levels used: 1
 10965 ;; Hardware stack levels required when called: 2
 10966 ;; This function calls:
 10967 ;;		Nothing
 10968 ;; This function is called by:
 10969 ;;		_updateYaw
 10970 ;;		_GetDistance
 10971 ;;		_efgtoa
 10972 ;; This function uses a non-reentrant model
 10973 ;;
 10974                           
 10975                           	psect	text52
 10976   000EB4                     __ptext52:
 10977                           	callstack 0
 10978   000EB4                     ___flmul:
 10979                           	callstack 27
 10980   000EB4  5012               	movf	(___flmul@b+3)^0,w,c
 10981   000EB6  0B80               	andlw	128
 10982   000EB8  6E1B               	movwf	___flmul@sign^0,c
 10983   000EBA  5012               	movf	(___flmul@b+3)^0,w,c
 10984   000EBC  2412               	addwf	(___flmul@b+3)^0,w,c
 10985   000EBE  6E21               	movwf	___flmul@bexp^0,c
 10986   000EC0  AE11               	btfss	(___flmul@b+2)^0,7,c
 10987   000EC2  EF65  F007         	goto	u3091
 10988   000EC6  EF67  F007         	goto	u3090
 10989   000ECA                     u3091:
 10990   000ECA  EF68  F007         	goto	l3299
 10991   000ECE                     u3090:
 10992   000ECE  8021               	bsf	___flmul@bexp^0,0,c
 10993   000ED0                     l3299:
 10994   000ED0  5021               	movf	___flmul@bexp^0,w,c
 10995   000ED2  B4D8               	btfsc	status,2,c
 10996   000ED4  EF6E  F007         	goto	u3101
 10997   000ED8  EF70  F007         	goto	u3100
 10998   000EDC                     u3101:
 10999   000EDC  EF83  F007         	goto	l3307
 11000   000EE0                     u3100:
 11001   000EE0  2821               	incf	___flmul@bexp^0,w,c
 11002   000EE2  A4D8               	btfss	status,2,c
 11003   000EE4  EF76  F007         	goto	u3111
 11004   000EE8  EF78  F007         	goto	u3110
 11005   000EEC                     u3111:
 11006   000EEC  EF80  F007         	goto	l3305
 11007   000EF0                     u3110:
 11008   000EF0  0E00               	movlw	0
 11009   000EF2  6E0F               	movwf	___flmul@b^0,c
 11010   000EF4  0E00               	movlw	0
 11011   000EF6  6E10               	movwf	(___flmul@b+1)^0,c
 11012   000EF8  0E00               	movlw	0
 11013   000EFA  6E11               	movwf	(___flmul@b+2)^0,c
 11014   000EFC  0E00               	movlw	0
 11015   000EFE  6E12               	movwf	(___flmul@b+3)^0,c
 11016   000F00                     l3305:
 11017   000F00  8E11               	bsf	(___flmul@b+2)^0,7,c
 11018   000F02  EF8B  F007         	goto	l3309
 11019   000F06                     l3307:
 11020   000F06  0E00               	movlw	0
 11021   000F08  6E0F               	movwf	___flmul@b^0,c
 11022   000F0A  0E00               	movlw	0
 11023   000F0C  6E10               	movwf	(___flmul@b+1)^0,c
 11024   000F0E  0E00               	movlw	0
 11025   000F10  6E11               	movwf	(___flmul@b+2)^0,c
 11026   000F12  0E00               	movlw	0
 11027   000F14  6E12               	movwf	(___flmul@b+3)^0,c
 11028   000F16                     l3309:
 11029   000F16  5016               	movf	(___flmul@a+3)^0,w,c
 11030   000F18  0B80               	andlw	128
 11031   000F1A  1A1B               	xorwf	___flmul@sign^0,f,c
 11032   000F1C  5016               	movf	(___flmul@a+3)^0,w,c
 11033   000F1E  2416               	addwf	(___flmul@a+3)^0,w,c
 11034   000F20  6E20               	movwf	___flmul@aexp^0,c
 11035   000F22  AE15               	btfss	(___flmul@a+2)^0,7,c
 11036   000F24  EF96  F007         	goto	u3121
 11037   000F28  EF98  F007         	goto	u3120
 11038   000F2C                     u3121:
 11039   000F2C  EF99  F007         	goto	l3317
 11040   000F30                     u3120:
 11041   000F30  8020               	bsf	___flmul@aexp^0,0,c
 11042   000F32                     l3317:
 11043   000F32  5020               	movf	___flmul@aexp^0,w,c
 11044   000F34  B4D8               	btfsc	status,2,c
 11045   000F36  EF9F  F007         	goto	u3131
 11046   000F3A  EFA1  F007         	goto	u3130
 11047   000F3E                     u3131:
 11048   000F3E  EFB4  F007         	goto	l3325
 11049   000F42                     u3130:
 11050   000F42  2820               	incf	___flmul@aexp^0,w,c
 11051   000F44  A4D8               	btfss	status,2,c
 11052   000F46  EFA7  F007         	goto	u3141
 11053   000F4A  EFA9  F007         	goto	u3140
 11054   000F4E                     u3141:
 11055   000F4E  EFB1  F007         	goto	l3323
 11056   000F52                     u3140:
 11057   000F52  0E00               	movlw	0
 11058   000F54  6E13               	movwf	___flmul@a^0,c
 11059   000F56  0E00               	movlw	0
 11060   000F58  6E14               	movwf	(___flmul@a+1)^0,c
 11061   000F5A  0E00               	movlw	0
 11062   000F5C  6E15               	movwf	(___flmul@a+2)^0,c
 11063   000F5E  0E00               	movlw	0
 11064   000F60  6E16               	movwf	(___flmul@a+3)^0,c
 11065   000F62                     l3323:
 11066   000F62  8E15               	bsf	(___flmul@a+2)^0,7,c
 11067   000F64  EFBC  F007         	goto	l931
 11068   000F68                     l3325:
 11069   000F68  0E00               	movlw	0
 11070   000F6A  6E13               	movwf	___flmul@a^0,c
 11071   000F6C  0E00               	movlw	0
 11072   000F6E  6E14               	movwf	(___flmul@a+1)^0,c
 11073   000F70  0E00               	movlw	0
 11074   000F72  6E15               	movwf	(___flmul@a+2)^0,c
 11075   000F74  0E00               	movlw	0
 11076   000F76  6E16               	movwf	(___flmul@a+3)^0,c
 11077   000F78                     l931:
 11078   000F78  5020               	movf	___flmul@aexp^0,w,c
 11079   000F7A  B4D8               	btfsc	status,2,c
 11080   000F7C  EFC2  F007         	goto	u3151
 11081   000F80  EFC4  F007         	goto	u3150
 11082   000F84                     u3151:
 11083   000F84  EFCC  F007         	goto	l3329
 11084   000F88                     u3150:
 11085   000F88  5021               	movf	___flmul@bexp^0,w,c
 11086   000F8A  A4D8               	btfss	status,2,c
 11087   000F8C  EFCA  F007         	goto	u3161
 11088   000F90  EFCC  F007         	goto	u3160
 11089   000F94                     u3161:
 11090   000F94  EFD6  F007         	goto	l3333
 11091   000F98                     u3160:
 11092   000F98                     l3329:
 11093   000F98  0E00               	movlw	0
 11094   000F9A  6E0F               	movwf	?___flmul^0,c
 11095   000F9C  0E00               	movlw	0
 11096   000F9E  6E10               	movwf	(?___flmul+1)^0,c
 11097   000FA0  0E00               	movlw	0
 11098   000FA2  6E11               	movwf	(?___flmul+2)^0,c
 11099   000FA4  0E00               	movlw	0
 11100   000FA6  6E12               	movwf	(?___flmul+3)^0,c
 11101   000FA8  EF6C  F009         	goto	l935
 11102   000FAC                     l3333:
 11103   000FAC  5015               	movf	(___flmul@a+2)^0,w,c
 11104   000FAE  020F               	mulwf	___flmul@b^0,c
 11105   000FB0  CFF3 F026          	movff	prodl,___flmul@temp
 11106   000FB4  CFF4 F027          	movff	prodh,___flmul@temp+1
 11107   000FB8  5026               	movf	___flmul@temp^0,w,c
 11108   000FBA  6E1C               	movwf	___flmul@grs^0,c
 11109   000FBC  6A1D               	clrf	(___flmul@grs+1)^0,c
 11110   000FBE  6A1E               	clrf	(___flmul@grs+2)^0,c
 11111   000FC0  6A1F               	clrf	(___flmul@grs+3)^0,c
 11112   000FC2  5027               	movf	(___flmul@temp+1)^0,w,c
 11113   000FC4  6E22               	movwf	___flmul@prod^0,c
 11114   000FC6  6A23               	clrf	(___flmul@prod+1)^0,c
 11115   000FC8  6A24               	clrf	(___flmul@prod+2)^0,c
 11116   000FCA  6A25               	clrf	(___flmul@prod+3)^0,c
 11117   000FCC  5014               	movf	(___flmul@a+1)^0,w,c
 11118   000FCE  0210               	mulwf	(___flmul@b+1)^0,c
 11119   000FD0  CFF3 F026          	movff	prodl,___flmul@temp
 11120   000FD4  CFF4 F027          	movff	prodh,___flmul@temp+1
 11121   000FD8  5026               	movf	___flmul@temp^0,w,c
 11122   000FDA  261C               	addwf	___flmul@grs^0,f,c
 11123   000FDC  0E00               	movlw	0
 11124   000FDE  221D               	addwfc	(___flmul@grs+1)^0,f,c
 11125   000FE0  221E               	addwfc	(___flmul@grs+2)^0,f,c
 11126   000FE2  221F               	addwfc	(___flmul@grs+3)^0,f,c
 11127   000FE4  5027               	movf	(___flmul@temp+1)^0,w,c
 11128   000FE6  2622               	addwf	___flmul@prod^0,f,c
 11129   000FE8  0E00               	movlw	0
 11130   000FEA  2223               	addwfc	(___flmul@prod+1)^0,f,c
 11131   000FEC  2224               	addwfc	(___flmul@prod+2)^0,f,c
 11132   000FEE  2225               	addwfc	(___flmul@prod+3)^0,f,c
 11133   000FF0  5013               	movf	___flmul@a^0,w,c
 11134   000FF2  0211               	mulwf	(___flmul@b+2)^0,c
 11135   000FF4  CFF3 F026          	movff	prodl,___flmul@temp
 11136   000FF8  CFF4 F027          	movff	prodh,___flmul@temp+1
 11137   000FFC  5026               	movf	___flmul@temp^0,w,c
 11138   000FFE  261C               	addwf	___flmul@grs^0,f,c
 11139   001000  0E00               	movlw	0
 11140   001002  221D               	addwfc	(___flmul@grs+1)^0,f,c
 11141   001004  221E               	addwfc	(___flmul@grs+2)^0,f,c
 11142   001006  221F               	addwfc	(___flmul@grs+3)^0,f,c
 11143   001008  5027               	movf	(___flmul@temp+1)^0,w,c
 11144   00100A  2622               	addwf	___flmul@prod^0,f,c
 11145   00100C  0E00               	movlw	0
 11146   00100E  2223               	addwfc	(___flmul@prod+1)^0,f,c
 11147   001010  2224               	addwfc	(___flmul@prod+2)^0,f,c
 11148   001012  2225               	addwfc	(___flmul@prod+3)^0,f,c
 11149   001014  C01E  F01F         	movff	___flmul@grs+2,___flmul@grs+3
 11150   001018  C01D  F01E         	movff	___flmul@grs+1,___flmul@grs+2
 11151   00101C  C01C  F01D         	movff	___flmul@grs,___flmul@grs+1
 11152   001020  6A1C               	clrf	___flmul@grs^0,c
 11153   001022  5013               	movf	___flmul@a^0,w,c
 11154   001024  0210               	mulwf	(___flmul@b+1)^0,c
 11155   001026  CFF3 F026          	movff	prodl,___flmul@temp
 11156   00102A  CFF4 F027          	movff	prodh,___flmul@temp+1
 11157   00102E  5026               	movf	___flmul@temp^0,w,c
 11158   001030  261C               	addwf	___flmul@grs^0,f,c
 11159   001032  5027               	movf	(___flmul@temp+1)^0,w,c
 11160   001034  221D               	addwfc	(___flmul@grs+1)^0,f,c
 11161   001036  0E00               	movlw	0
 11162   001038  221E               	addwfc	(___flmul@grs+2)^0,f,c
 11163   00103A  0E00               	movlw	0
 11164   00103C  221F               	addwfc	(___flmul@grs+3)^0,f,c
 11165   00103E  5014               	movf	(___flmul@a+1)^0,w,c
 11166   001040  020F               	mulwf	___flmul@b^0,c
 11167   001042  CFF3 F026          	movff	prodl,___flmul@temp
 11168   001046  CFF4 F027          	movff	prodh,___flmul@temp+1
 11169   00104A  5026               	movf	___flmul@temp^0,w,c
 11170   00104C  261C               	addwf	___flmul@grs^0,f,c
 11171   00104E  5027               	movf	(___flmul@temp+1)^0,w,c
 11172   001050  221D               	addwfc	(___flmul@grs+1)^0,f,c
 11173   001052  0E00               	movlw	0
 11174   001054  221E               	addwfc	(___flmul@grs+2)^0,f,c
 11175   001056  0E00               	movlw	0
 11176   001058  221F               	addwfc	(___flmul@grs+3)^0,f,c
 11177   00105A  C01E  F01F         	movff	___flmul@grs+2,___flmul@grs+3
 11178   00105E  C01D  F01E         	movff	___flmul@grs+1,___flmul@grs+2
 11179   001062  C01C  F01D         	movff	___flmul@grs,___flmul@grs+1
 11180   001066  6A1C               	clrf	___flmul@grs^0,c
 11181   001068  5013               	movf	___flmul@a^0,w,c
 11182   00106A  020F               	mulwf	___flmul@b^0,c
 11183   00106C  CFF3 F026          	movff	prodl,___flmul@temp
 11184   001070  CFF4 F027          	movff	prodh,___flmul@temp+1
 11185   001074  5026               	movf	___flmul@temp^0,w,c
 11186   001076  261C               	addwf	___flmul@grs^0,f,c
 11187   001078  5027               	movf	(___flmul@temp+1)^0,w,c
 11188   00107A  221D               	addwfc	(___flmul@grs+1)^0,f,c
 11189   00107C  0E00               	movlw	0
 11190   00107E  221E               	addwfc	(___flmul@grs+2)^0,f,c
 11191   001080  0E00               	movlw	0
 11192   001082  221F               	addwfc	(___flmul@grs+3)^0,f,c
 11193   001084  5015               	movf	(___flmul@a+2)^0,w,c
 11194   001086  0210               	mulwf	(___flmul@b+1)^0,c
 11195   001088  CFF3 F026          	movff	prodl,___flmul@temp
 11196   00108C  CFF4 F027          	movff	prodh,___flmul@temp+1
 11197   001090  5026               	movf	___flmul@temp^0,w,c
 11198   001092  2622               	addwf	___flmul@prod^0,f,c
 11199   001094  5027               	movf	(___flmul@temp+1)^0,w,c
 11200   001096  2223               	addwfc	(___flmul@prod+1)^0,f,c
 11201   001098  0E00               	movlw	0
 11202   00109A  2224               	addwfc	(___flmul@prod+2)^0,f,c
 11203   00109C  0E00               	movlw	0
 11204   00109E  2225               	addwfc	(___flmul@prod+3)^0,f,c
 11205   0010A0  5014               	movf	(___flmul@a+1)^0,w,c
 11206   0010A2  0211               	mulwf	(___flmul@b+2)^0,c
 11207   0010A4  CFF3 F026          	movff	prodl,___flmul@temp
 11208   0010A8  CFF4 F027          	movff	prodh,___flmul@temp+1
 11209   0010AC  5026               	movf	___flmul@temp^0,w,c
 11210   0010AE  2622               	addwf	___flmul@prod^0,f,c
 11211   0010B0  5027               	movf	(___flmul@temp+1)^0,w,c
 11212   0010B2  2223               	addwfc	(___flmul@prod+1)^0,f,c
 11213   0010B4  0E00               	movlw	0
 11214   0010B6  2224               	addwfc	(___flmul@prod+2)^0,f,c
 11215   0010B8  0E00               	movlw	0
 11216   0010BA  2225               	addwfc	(___flmul@prod+3)^0,f,c
 11217   0010BC  5015               	movf	(___flmul@a+2)^0,w,c
 11218   0010BE  0211               	mulwf	(___flmul@b+2)^0,c
 11219   0010C0  CFF3 F026          	movff	prodl,___flmul@temp
 11220   0010C4  CFF4 F027          	movff	prodh,___flmul@temp+1
 11221   0010C8  5026               	movf	___flmul@temp^0,w,c
 11222   0010CA  6E17               	movwf	??___flmul^0,c
 11223   0010CC  5027               	movf	(___flmul@temp+1)^0,w,c
 11224   0010CE  6E18               	movwf	(??___flmul+1)^0,c
 11225   0010D0  6A19               	clrf	(??___flmul+2)^0,c
 11226   0010D2  6A1A               	clrf	(??___flmul+3)^0,c
 11227   0010D4  C019  F01A         	movff	??___flmul+2,??___flmul+3
 11228   0010D8  C018  F019         	movff	??___flmul+1,??___flmul+2
 11229   0010DC  C017  F018         	movff	??___flmul,??___flmul+1
 11230   0010E0  6A17               	clrf	??___flmul^0,c
 11231   0010E2  5017               	movf	??___flmul^0,w,c
 11232   0010E4  2622               	addwf	___flmul@prod^0,f,c
 11233   0010E6  5018               	movf	(??___flmul+1)^0,w,c
 11234   0010E8  2223               	addwfc	(___flmul@prod+1)^0,f,c
 11235   0010EA  5019               	movf	(??___flmul+2)^0,w,c
 11236   0010EC  2224               	addwfc	(___flmul@prod+2)^0,f,c
 11237   0010EE  501A               	movf	(??___flmul+3)^0,w,c
 11238   0010F0  2225               	addwfc	(___flmul@prod+3)^0,f,c
 11239   0010F2  C01C  F017         	movff	___flmul@grs,??___flmul
 11240   0010F6  C01D  F018         	movff	___flmul@grs+1,??___flmul+1
 11241   0010FA  C01E  F019         	movff	___flmul@grs+2,??___flmul+2
 11242   0010FE  C01F  F01A         	movff	___flmul@grs+3,??___flmul+3
 11243   001102  0E19               	movlw	25
 11244   001104  EF89  F008         	goto	u3170
 11245   001108                     u3175:
 11246   001108  90D8               	bcf	status,0,c
 11247   00110A  321A               	rrcf	(??___flmul+3)^0,f,c
 11248   00110C  3219               	rrcf	(??___flmul+2)^0,f,c
 11249   00110E  3218               	rrcf	(??___flmul+1)^0,f,c
 11250   001110  3217               	rrcf	??___flmul^0,f,c
 11251   001112                     u3170:
 11252   001112  2EE8               	decfsz	wreg,f,c
 11253   001114  EF84  F008         	goto	u3175
 11254   001118  5017               	movf	??___flmul^0,w,c
 11255   00111A  2622               	addwf	___flmul@prod^0,f,c
 11256   00111C  5018               	movf	(??___flmul+1)^0,w,c
 11257   00111E  2223               	addwfc	(___flmul@prod+1)^0,f,c
 11258   001120  5019               	movf	(??___flmul+2)^0,w,c
 11259   001122  2224               	addwfc	(___flmul@prod+2)^0,f,c
 11260   001124  501A               	movf	(??___flmul+3)^0,w,c
 11261   001126  2225               	addwfc	(___flmul@prod+3)^0,f,c
 11262   001128  C01E  F01F         	movff	___flmul@grs+2,___flmul@grs+3
 11263   00112C  C01D  F01E         	movff	___flmul@grs+1,___flmul@grs+2
 11264   001130  C01C  F01D         	movff	___flmul@grs,___flmul@grs+1
 11265   001134  6A1C               	clrf	___flmul@grs^0,c
 11266   001136  5020               	movf	___flmul@aexp^0,w,c
 11267   001138  C021  F017         	movff	___flmul@bexp,??___flmul
 11268   00113C  6A18               	clrf	(??___flmul+1)^0,c
 11269   00113E  2617               	addwf	??___flmul^0,f,c
 11270   001140  0E00               	movlw	0
 11271   001142  2218               	addwfc	(??___flmul+1)^0,f,c
 11272   001144  0E82               	movlw	130
 11273   001146  2417               	addwf	??___flmul^0,w,c
 11274   001148  6E26               	movwf	___flmul@temp^0,c
 11275   00114A  0EFF               	movlw	255
 11276   00114C  2018               	addwfc	(??___flmul+1)^0,w,c
 11277   00114E  6E27               	movwf	(___flmul@temp+1)^0,c
 11278   001150  EFBF  F008         	goto	l3381
 11279   001154                     l3375:
 11280   001154  90D8               	bcf	status,0,c
 11281   001156  3622               	rlcf	___flmul@prod^0,f,c
 11282   001158  3623               	rlcf	(___flmul@prod+1)^0,f,c
 11283   00115A  3624               	rlcf	(___flmul@prod+2)^0,f,c
 11284   00115C  3625               	rlcf	(___flmul@prod+3)^0,f,c
 11285   00115E  AE1F               	btfss	(___flmul@grs+3)^0,7,c
 11286   001160  EFB4  F008         	goto	u3181
 11287   001164  EFB6  F008         	goto	u3180
 11288   001168                     u3181:
 11289   001168  EFB7  F008         	goto	l938
 11290   00116C                     u3180:
 11291   00116C  8022               	bsf	___flmul@prod^0,0,c
 11292   00116E                     l938:
 11293   00116E  90D8               	bcf	status,0,c
 11294   001170  361C               	rlcf	___flmul@grs^0,f,c
 11295   001172  361D               	rlcf	(___flmul@grs+1)^0,f,c
 11296   001174  361E               	rlcf	(___flmul@grs+2)^0,f,c
 11297   001176  361F               	rlcf	(___flmul@grs+3)^0,f,c
 11298   001178  0626               	decf	___flmul@temp^0,f,c
 11299   00117A  A0D8               	btfss	status,0,c
 11300   00117C  0627               	decf	(___flmul@temp+1)^0,f,c
 11301   00117E                     l3381:
 11302   00117E  AE24               	btfss	(___flmul@prod+2)^0,7,c
 11303   001180  EFC4  F008         	goto	u3191
 11304   001184  EFC6  F008         	goto	u3190
 11305   001188                     u3191:
 11306   001188  EFAA  F008         	goto	l3375
 11307   00118C                     u3190:
 11308   00118C  6A20               	clrf	___flmul@aexp^0,c
 11309   00118E  AE1F               	btfss	(___flmul@grs+3)^0,7,c
 11310   001190  EFCC  F008         	goto	u3201
 11311   001194  EFCE  F008         	goto	u3200
 11312   001198                     u3201:
 11313   001198  EFF2  F008         	goto	l940
 11314   00119C                     u3200:
 11315   00119C  0EFF               	movlw	255
 11316   00119E  141C               	andwf	___flmul@grs^0,w,c
 11317   0011A0  6E17               	movwf	??___flmul^0,c
 11318   0011A2  0EFF               	movlw	255
 11319   0011A4  141D               	andwf	(___flmul@grs+1)^0,w,c
 11320   0011A6  6E18               	movwf	(??___flmul+1)^0,c
 11321   0011A8  0EFF               	movlw	255
 11322   0011AA  141E               	andwf	(___flmul@grs+2)^0,w,c
 11323   0011AC  6E19               	movwf	(??___flmul+2)^0,c
 11324   0011AE  0E7F               	movlw	127
 11325   0011B0  141F               	andwf	(___flmul@grs+3)^0,w,c
 11326   0011B2  6E1A               	movwf	(??___flmul+3)^0,c
 11327   0011B4  5017               	movf	??___flmul^0,w,c
 11328   0011B6  1018               	iorwf	(??___flmul+1)^0,w,c
 11329   0011B8  1019               	iorwf	(??___flmul+2)^0,w,c
 11330   0011BA  101A               	iorwf	(??___flmul+3)^0,w,c
 11331   0011BC  B4D8               	btfsc	status,2,c
 11332   0011BE  EFE3  F008         	goto	u3211
 11333   0011C2  EFE5  F008         	goto	u3210
 11334   0011C6                     u3211:
 11335   0011C6  EFE9  F008         	goto	l941
 11336   0011CA                     u3210:
 11337   0011CA                     l3385:
 11338   0011CA  0E01               	movlw	1
 11339   0011CC  6E20               	movwf	___flmul@aexp^0,c
 11340   0011CE  EFF2  F008         	goto	l940
 11341   0011D2                     l941:
 11342   0011D2  A022               	btfss	___flmul@prod^0,0,c
 11343   0011D4  EFEE  F008         	goto	u3221
 11344   0011D8  EFF0  F008         	goto	u3220
 11345   0011DC                     u3221:
 11346   0011DC  EFF2  F008         	goto	l940
 11347   0011E0                     u3220:
 11348   0011E0  EFE5  F008         	goto	l3385
 11349   0011E4                     l940:
 11350   0011E4  5020               	movf	___flmul@aexp^0,w,c
 11351   0011E6  B4D8               	btfsc	status,2,c
 11352   0011E8  EFF8  F008         	goto	u3231
 11353   0011EC  EFFA  F008         	goto	u3230
 11354   0011F0                     u3231:
 11355   0011F0  EF1E  F009         	goto	l3397
 11356   0011F4                     u3230:
 11357   0011F4  0E01               	movlw	1
 11358   0011F6  2622               	addwf	___flmul@prod^0,f,c
 11359   0011F8  0E00               	movlw	0
 11360   0011FA  2223               	addwfc	(___flmul@prod+1)^0,f,c
 11361   0011FC  2224               	addwfc	(___flmul@prod+2)^0,f,c
 11362   0011FE  2225               	addwfc	(___flmul@prod+3)^0,f,c
 11363   001200  A025               	btfss	(___flmul@prod+3)^0,0,c
 11364   001202  EF05  F009         	goto	u3241
 11365   001206  EF07  F009         	goto	u3240
 11366   00120A                     u3241:
 11367   00120A  EF1E  F009         	goto	l3397
 11368   00120E                     u3240:
 11369   00120E  C022  F017         	movff	___flmul@prod,??___flmul
 11370   001212  C023  F018         	movff	___flmul@prod+1,??___flmul+1
 11371   001216  C024  F019         	movff	___flmul@prod+2,??___flmul+2
 11372   00121A  C025  F01A         	movff	___flmul@prod+3,??___flmul+3
 11373   00121E  341A               	rlcf	(??___flmul+3)^0,w,c
 11374   001220  321A               	rrcf	(??___flmul+3)^0,f,c
 11375   001222  3219               	rrcf	(??___flmul+2)^0,f,c
 11376   001224  3218               	rrcf	(??___flmul+1)^0,f,c
 11377   001226  3217               	rrcf	??___flmul^0,f,c
 11378   001228  C017  F022         	movff	??___flmul,___flmul@prod
 11379   00122C  C018  F023         	movff	??___flmul+1,___flmul@prod+1
 11380   001230  C019  F024         	movff	??___flmul+2,___flmul@prod+2
 11381   001234  C01A  F025         	movff	??___flmul+3,___flmul@prod+3
 11382   001238  4A26               	infsnz	___flmul@temp^0,f,c
 11383   00123A  2A27               	incf	(___flmul@temp+1)^0,f,c
 11384   00123C                     l3397:
 11385   00123C  BE27               	btfsc	(___flmul@temp+1)^0,7,c
 11386   00123E  EF29  F009         	goto	u3251
 11387   001242  5027               	movf	(___flmul@temp+1)^0,w,c
 11388   001244  E108               	bnz	u3250
 11389   001246  2826               	incf	___flmul@temp^0,w,c
 11390   001248  A0D8               	btfss	status,0,c
 11391   00124A  EF29  F009         	goto	u3251
 11392   00124E  EF2B  F009         	goto	u3250
 11393   001252                     u3251:
 11394   001252  EF35  F009         	goto	l3401
 11395   001256                     u3250:
 11396   001256  0E00               	movlw	0
 11397   001258  6E22               	movwf	___flmul@prod^0,c
 11398   00125A  0E00               	movlw	0
 11399   00125C  6E23               	movwf	(___flmul@prod+1)^0,c
 11400   00125E  0E80               	movlw	128
 11401   001260  6E24               	movwf	(___flmul@prod+2)^0,c
 11402   001262  0E7F               	movlw	127
 11403   001264  6E25               	movwf	(___flmul@prod+3)^0,c
 11404   001266  EF62  F009         	goto	l3415
 11405   00126A                     l3401:
 11406   00126A  BE27               	btfsc	(___flmul@temp+1)^0,7,c
 11407   00126C  EF42  F009         	goto	u3260
 11408   001270  5027               	movf	(___flmul@temp+1)^0,w,c
 11409   001272  E106               	bnz	u3261
 11410   001274  0426               	decf	___flmul@temp^0,w,c
 11411   001276  B0D8               	btfsc	status,0,c
 11412   001278  EF40  F009         	goto	u3261
 11413   00127C  EF42  F009         	goto	u3260
 11414   001280                     u3261:
 11415   001280  EF4D  F009         	goto	l948
 11416   001284                     u3260:
 11417   001284  0E00               	movlw	0
 11418   001286  6E22               	movwf	___flmul@prod^0,c
 11419   001288  0E00               	movlw	0
 11420   00128A  6E23               	movwf	(___flmul@prod+1)^0,c
 11421   00128C  0E00               	movlw	0
 11422   00128E  6E24               	movwf	(___flmul@prod+2)^0,c
 11423   001290  0E00               	movlw	0
 11424   001292  6E25               	movwf	(___flmul@prod+3)^0,c
 11425   001294  6A1B               	clrf	___flmul@sign^0,c
 11426   001296  EF62  F009         	goto	l3415
 11427   00129A                     l948:
 11428   00129A  C026  F021         	movff	___flmul@temp,___flmul@bexp
 11429   00129E  0EFF               	movlw	255
 11430   0012A0  1622               	andwf	___flmul@prod^0,f,c
 11431   0012A2  0EFF               	movlw	255
 11432   0012A4  1623               	andwf	(___flmul@prod+1)^0,f,c
 11433   0012A6  0E7F               	movlw	127
 11434   0012A8  1624               	andwf	(___flmul@prod+2)^0,f,c
 11435   0012AA  0E00               	movlw	0
 11436   0012AC  1625               	andwf	(___flmul@prod+3)^0,f,c
 11437   0012AE  A021               	btfss	___flmul@bexp^0,0,c
 11438   0012B0  EF5C  F009         	goto	u3271
 11439   0012B4  EF5E  F009         	goto	u3270
 11440   0012B8                     u3271:
 11441   0012B8  EF5F  F009         	goto	l3413
 11442   0012BC                     u3270:
 11443   0012BC  8E24               	bsf	(___flmul@prod+2)^0,7,c
 11444   0012BE                     l3413:
 11445   0012BE  90D8               	bcf	status,0,c
 11446   0012C0  3021               	rrcf	___flmul@bexp^0,w,c
 11447   0012C2  6E25               	movwf	(___flmul@prod+3)^0,c
 11448   0012C4                     l3415:
 11449   0012C4  501B               	movf	___flmul@sign^0,w,c
 11450   0012C6  1225               	iorwf	(___flmul@prod+3)^0,f,c
 11451   0012C8  C022  F00F         	movff	___flmul@prod,?___flmul
 11452   0012CC  C023  F010         	movff	___flmul@prod+1,?___flmul+1
 11453   0012D0  C024  F011         	movff	___flmul@prod+2,?___flmul+2
 11454   0012D4  C025  F012         	movff	___flmul@prod+3,?___flmul+3
 11455   0012D8                     l935:
 11456   0012D8  0012               	return		;funcret
 11457   0012DA                     __end_of___flmul:
 11458                           	callstack 0
 11459                           
 11460 ;; *************** function __ISR *****************
 11461 ;; Defined at:
 11462 ;;		line 72 in file "main.c"
 11463 ;; Parameters:    Size  Location     Type
 11464 ;;		None
 11465 ;; Auto vars:     Size  Location     Type
 11466 ;;		None
 11467 ;; Return value:  Size  Location     Type
 11468 ;;                  1    wreg      void 
 11469 ;; Registers used:
 11470 ;;		wreg, status,2, status,0, cstack
 11471 ;; Tracked objects:
 11472 ;;		On entry : 0/0
 11473 ;;		On exit  : 0/0
 11474 ;;		Unchanged: 0/0
 11475 ;; Data sizes:     COMRAM   BANK0   BANK1   BANK2   BANK3   BANK4   BANK5
 11476 ;;      Params:         0       0       0       0       0       0       0
 11477 ;;      Locals:         0       0       0       0       0       0       0
 11478 ;;      Temps:          0       0       0       0       0       0       0
 11479 ;;      Totals:         0       0       0       0       0       0       0
 11480 ;;Total ram usage:        0 bytes
 11481 ;; Hardware stack levels used: 1
 11482 ;; Hardware stack levels required when called: 1
 11483 ;; This function calls:
 11484 ;;		_EUSART_Rx_InterruptHandler
 11485 ;; This function is called by:
 11486 ;;		Interrupt level 2
 11487 ;; This function uses a non-reentrant model
 11488 ;;
 11489                           
 11490                           	psect	intcode
 11491   000008                     __pintcode:
 11492                           	callstack 0
 11493   000008                     __ISR:
 11494                           	callstack 20
 11495                           
 11496                           ;incstack = 0
 11497   000008  825E               	bsf	int$flags,1,c	;set compiler interrupt flag (level 2)
 11498   00000A  EDDD  F019         	call	int_func,f	;refresh shadow registers
 11499                           
 11500                           	psect	intcode_body
 11501   0033BA                     __pintcode_body:
 11502                           	callstack 20
 11503   0033BA                     int_func:
 11504                           	callstack 20
 11505   0033BA  0006               	pop		; remove dummy address from shadow register refresh
 11506   0033BC                     
 11507                           ;main.c: 73:     if (PIR1bits.RCIF) {
 11508   0033BC  AA9E               	btfss	158,5,c	;volatile
 11509   0033BE  EFE3  F019         	goto	i2u465_41
 11510   0033C2  EFE5  F019         	goto	i2u465_40
 11511   0033C6                     i2u465_41:
 11512   0033C6  EFE7  F019         	goto	i2l4527
 11513   0033CA                     i2u465_40:
 11514   0033CA                     
 11515                           ;main.c: 74:         EUSART_Rx_InterruptHandler();
 11516   0033CA  ECEC  F01B         	call	_EUSART_Rx_InterruptHandler	;wreg free
 11517   0033CE                     i2l4527:
 11518                           
 11519                           ;main.c: 77:     if (PIR1bits.TMR2IF) {
 11520   0033CE  A29E               	btfss	158,1,c	;volatile
 11521   0033D0  EFEC  F019         	goto	i2u466_41
 11522   0033D4  EFEE  F019         	goto	i2u466_40
 11523   0033D8                     i2u466_41:
 11524   0033D8  EF05  F01A         	goto	i2l248
 11525   0033DC                     i2u466_40:
 11526   0033DC                     
 11527                           ;main.c: 78:         PIR1bits.TMR2IF = 0;
 11528   0033DC  929E               	bcf	158,1,c	;volatile
 11529   0033DE                     
 11530                           ;main.c: 80:         if (tone_toggle_count > 0) {
 11531   0033DE  0100               	movlb	0	; () banked
 11532   0033E0  51C3               	movf	_tone_toggle_count& (0+255),w,b	;volatile
 11533   0033E2  11C4               	iorwf	(_tone_toggle_count+1)& (0+255),w,b	;volatile
 11534   0033E4  11C5               	iorwf	(_tone_toggle_count+2)& (0+255),w,b	;volatile
 11535   0033E6  11C6               	iorwf	(_tone_toggle_count+3)& (0+255),w,b	;volatile
 11536   0033E8  B4D8               	btfsc	status,2,c
 11537   0033EA  EFF9  F019         	goto	i2u467_41
 11538   0033EE  EFFB  F019         	goto	i2u467_40
 11539   0033F2                     i2u467_41:
 11540   0033F2  EF03  F01A         	goto	i2l246
 11541   0033F6                     i2u467_40:
 11542   0033F6                     
 11543                           ; BSR set to: 0
 11544                           ;main.c: 81:             LATDbits.LATD1 ^= 1;
 11545   0033F6  728C               	btg	140,1,c	;volatile
 11546                           
 11547                           ;main.c: 82:             tone_toggle_count--;
 11548   0033F8  07C3               	decf	_tone_toggle_count& (0+255),f,b	;volatile
 11549   0033FA  0E00               	movlw	0
 11550   0033FC  5BC4               	subwfb	(_tone_toggle_count+1)& (0+255),f,b	;volatile
 11551   0033FE  5BC5               	subwfb	(_tone_toggle_count+2)& (0+255),f,b	;volatile
 11552   003400  5BC6               	subwfb	(_tone_toggle_count+3)& (0+255),f,b	;volatile
 11553                           
 11554                           ;main.c: 83:         } else {
 11555   003402  EF05  F01A         	goto	i2l248
 11556   003406                     i2l246:
 11557                           
 11558                           ; BSR set to: 0
 11559                           ;main.c: 84:             T2CONbits.TMR2ON = 0;
 11560   003406  94CA               	bcf	202,2,c	;volatile
 11561                           
 11562                           ;main.c: 85:             LATDbits.LATD1 = 0;
 11563   003408  928C               	bcf	140,1,c	;volatile
 11564   00340A                     i2l248:
 11565   00340A  925E               	bcf	int$flags,1,c	;clear compiler interrupt flag (level 2)
 11566   00340C  0011               	retfie		f
 11567   00340E                     __end_of__ISR:
 11568                           	callstack 0
 11569                           
 11570 ;; *************** function _EUSART_Rx_InterruptHandler *****************
 11571 ;; Defined at:
 11572 ;;		line 71 in file "./EUSART.h"
 11573 ;; Parameters:    Size  Location     Type
 11574 ;;		None
 11575 ;; Auto vars:     Size  Location     Type
 11576 ;;		None
 11577 ;; Return value:  Size  Location     Type
 11578 ;;                  1    wreg      void 
 11579 ;; Registers used:
 11580 ;;		wreg, status,2
 11581 ;; Tracked objects:
 11582 ;;		On entry : 0/0
 11583 ;;		On exit  : 0/0
 11584 ;;		Unchanged: 0/0
 11585 ;; Data sizes:     COMRAM   BANK0   BANK1   BANK2   BANK3   BANK4   BANK5
 11586 ;;      Params:         0       0       0       0       0       0       0
 11587 ;;      Locals:         0       0       0       0       0       0       0
 11588 ;;      Temps:          0       0       0       0       0       0       0
 11589 ;;      Totals:         0       0       0       0       0       0       0
 11590 ;;Total ram usage:        0 bytes
 11591 ;; Hardware stack levels used: 1
 11592 ;; This function calls:
 11593 ;;		Nothing
 11594 ;; This function is called by:
 11595 ;;		__ISR
 11596 ;; This function uses a non-reentrant model
 11597 ;;
 11598                           
 11599                           	psect	text54
 11600   0037D8                     __ptext54:
 11601                           	callstack 0
 11602   0037D8                     _EUSART_Rx_InterruptHandler:
 11603                           	callstack 20
 11604   0037D8                     
 11605                           ;./EUSART.h: 72:     rxData = RCREG;
 11606   0037D8  CFAE F0CF          	movff	4014,_rxData	;volatile
 11607   0037DC                     
 11608                           ;./EUSART.h: 73:     rxFlag = 1;
 11609   0037DC  0E01               	movlw	1
 11610   0037DE  0100               	movlb	0	; () banked
 11611   0037E0  6FCE               	movwf	_rxFlag& (0+255),b	;volatile
 11612   0037E2                     
 11613                           ; BSR set to: 0
 11614   0037E2  0012               	return		;funcret
 11615   0037E4                     __end_of_EUSART_Rx_InterruptHandler:
 11616                           	callstack 0
 11617                           
 11618                           	psect	rparam
 11619   000001                     ___rparam_used  equ	1
 11620   000000                     ___param_bank   equ	0
 11621   000000                     __Lparam        equ	__Lrparam
 11622   000000                     __Hparam        equ	__Hrparam
 11623                           
 11624                           	psect	temp
 11625   00005E                     btemp:
 11626                           	callstack 0
 11627   00005E                     	ds	1
 11628   00005E                     int$flags       set	btemp
 11629   00005F                     wtemp8          set	btemp+1
 11630   00005F                     ttemp5          set	btemp+1
 11631   000062                     ttemp6          set	btemp+4
 11632   000066                     ttemp7          set	btemp+8
 11633                           
 11634                           	psect	config
 11635                           
 11636                           ; Padding undefined space
 11637   300000                     	org	3145728
 11638   300000  FF                 	db	255
 11639                           
 11640                           ;Config register CONFIG1H @ 0x300001
 11641                           ;	Oscillator Selection bits
 11642                           ;	OSC = IRCIO67, Internal oscillator block, port function on RA6 and RA7
 11643                           ;	Fail-Safe Clock Monitor Enable bit
 11644                           ;	FCMEN = OFF, Fail-Safe Clock Monitor disabled
 11645                           ;	Internal/External Oscillator Switchover bit
 11646                           ;	IESO = OFF, Oscillator Switchover mode disabled
 11647   300001                     	org	3145729
 11648   300001  08                 	db	8
 11649                           
 11650                           ;Config register CONFIG2L @ 0x300002
 11651                           ;	Power-up Timer Enable bit
 11652                           ;	PWRT = OFF, PWRT disabled
 11653                           ;	Brown-out Reset Enable bits
 11654                           ;	BOREN = OFF, Brown-out Reset disabled in hardware and software
 11655                           ;	Brown-out Reset Voltage bits
 11656                           ;	BORV = 3, VBOR set to 2.1V
 11657   300002                     	org	3145730
 11658   300002  19                 	db	25
 11659                           
 11660                           ;Config register CONFIG2H @ 0x300003
 11661                           ;	Watchdog Timer Enable bit
 11662                           ;	WDT = OFF, WDT disabled (control is placed on the SWDTEN bit)
 11663                           ;	Watchdog Timer Postscale Select bits
 11664                           ;	WDTPS = 32768, 1:32768
 11665   300003                     	org	3145731
 11666   300003  1E                 	db	30
 11667                           
 11668                           ; Padding undefined space
 11669   300004                     	org	3145732
 11670   300004  FF                 	db	255
 11671                           
 11672                           ;Config register CONFIG3H @ 0x300005
 11673                           ;	PORTB A/D Enable bit
 11674                           ;	PBADEN = ON, PORTB<4:0> pins are configured as analog input channels on Reset
 11675                           ;	Low-Power Timer 1 Oscillator Enable bit
 11676                           ;	LPT1OSC = OFF, Timer1 configured for higher power operation
 11677                           ;	MCLR Pin Enable bit
 11678                           ;	MCLRE = OFF, RE3 input pin enabled; MCLR disabled
 11679   300005                     	org	3145733
 11680   300005  02                 	db	2
 11681                           
 11682                           ;Config register CONFIG4L @ 0x300006
 11683                           ;	Stack Full/Underflow Reset Enable bit
 11684                           ;	STVREN = ON, Stack full/underflow will cause Reset
 11685                           ;	Single-Supply ICSP Enable bit
 11686                           ;	LVP = OFF, Single-Supply ICSP disabled
 11687                           ;	Boot Block Size Select bit
 11688                           ;	BBSIZ = 1024, 1K words (2K bytes) boot block
 11689                           ;	Extended Instruction Set Enable bit
 11690                           ;	XINST = OFF, Instruction set extension and Indexed Addressing mode disabled (Legacy mo
      +                          de)
 11691                           ;	Background Debugger Enable bit
 11692                           ;	DEBUG = 0x1, unprogrammed default
 11693   300006                     	org	3145734
 11694   300006  81                 	db	129
 11695                           
 11696                           ; Padding undefined space
 11697   300007                     	org	3145735
 11698   300007  FF                 	db	255
 11699                           
 11700                           ;Config register CONFIG5L @ 0x300008
 11701                           ;	Code Protection bit
 11702                           ;	CP0 = OFF, Block 0 (000800-001FFFh) not code-protected
 11703                           ;	Code Protection bit
 11704                           ;	CP1 = OFF, Block 1 (002000-003FFFh) not code-protected
 11705                           ;	Code Protection bit
 11706                           ;	CP2 = OFF, Block 2 (004000-005FFFh) not code-protected
 11707                           ;	Code Protection bit
 11708                           ;	CP3 = OFF, Block 3 (006000-007FFFh) not code-protected
 11709   300008                     	org	3145736
 11710   300008  0F                 	db	15
 11711                           
 11712                           ;Config register CONFIG5H @ 0x300009
 11713                           ;	Boot Block Code Protection bit
 11714                           ;	CPB = OFF, Boot block (000000-0007FFh) not code-protected
 11715                           ;	Data EEPROM Code Protection bit
 11716                           ;	CPD = OFF, Data EEPROM not code-protected
 11717   300009                     	org	3145737
 11718   300009  C0                 	db	192
 11719                           
 11720                           ;Config register CONFIG6L @ 0x30000A
 11721                           ;	Write Protection bit
 11722                           ;	WRT0 = OFF, Block 0 (000800-001FFFh) not write-protected
 11723                           ;	Write Protection bit
 11724                           ;	WRT1 = OFF, Block 1 (002000-003FFFh) not write-protected
 11725                           ;	Write Protection bit
 11726                           ;	WRT2 = OFF, Block 2 (004000-005FFFh) not write-protected
 11727                           ;	Write Protection bit
 11728                           ;	WRT3 = OFF, Block 3 (006000-007FFFh) not write-protected
 11729   30000A                     	org	3145738
 11730   30000A  0F                 	db	15
 11731                           
 11732                           ;Config register CONFIG6H @ 0x30000B
 11733                           ;	Configuration Register Write Protection bit
 11734                           ;	WRTC = OFF, Configuration registers (300000-3000FFh) not write-protected
 11735                           ;	Boot Block Write Protection bit
 11736                           ;	WRTB = OFF, Boot block (000000-0007FFh) not write-protected
 11737                           ;	Data EEPROM Write Protection bit
 11738                           ;	WRTD = OFF, Data EEPROM not write-protected
 11739   30000B                     	org	3145739
 11740   30000B  E0                 	db	224
 11741                           
 11742                           ;Config register CONFIG7L @ 0x30000C
 11743                           ;	Table Read Protection bit
 11744                           ;	EBTR0 = OFF, Block 0 (000800-001FFFh) not protected from table reads executed in other
      +                           blocks
 11745                           ;	Table Read Protection bit
 11746                           ;	EBTR1 = OFF, Block 1 (002000-003FFFh) not protected from table reads executed in other
      +                           blocks
 11747                           ;	Table Read Protection bit
 11748                           ;	EBTR2 = OFF, Block 2 (004000-005FFFh) not protected from table reads executed in other
      +                           blocks
 11749                           ;	Table Read Protection bit
 11750                           ;	EBTR3 = OFF, Block 3 (006000-007FFFh) not protected from table reads executed in other
      +                           blocks
 11751   30000C                     	org	3145740
 11752   30000C  0F                 	db	15
 11753                           
 11754                           ;Config register CONFIG7H @ 0x30000D
 11755                           ;	Boot Block Table Read Protection bit
 11756                           ;	EBTRB = OFF, Boot block (000000-0007FFh) not protected from table reads executed in ot
      +                          her blocks
 11757   30000D                     	org	3145741
 11758   30000D  40                 	db	64
 11759                           tosu	equ	0xFFF
 11760                           tosh	equ	0xFFE
 11761                           tosl	equ	0xFFD
 11762                           stkptr	equ	0xFFC
 11763                           pclatu	equ	0xFFB
 11764                           pclath	equ	0xFFA
 11765                           pcl	equ	0xFF9
 11766                           tblptru	equ	0xFF8
 11767                           tblptrh	equ	0xFF7
 11768                           tblptrl	equ	0xFF6
 11769                           tablat	equ	0xFF5
 11770                           prodh	equ	0xFF4
 11771                           prodl	equ	0xFF3
 11772                           indf0	equ	0xFEF
 11773                           postinc0	equ	0xFEE
 11774                           postdec0	equ	0xFED
 11775                           preinc0	equ	0xFEC
 11776                           plusw0	equ	0xFEB
 11777                           fsr0h	equ	0xFEA
 11778                           fsr0l	equ	0xFE9
 11779                           wreg	equ	0xFE8
 11780                           indf1	equ	0xFE7
 11781                           postinc1	equ	0xFE6
 11782                           postdec1	equ	0xFE5
 11783                           preinc1	equ	0xFE4
 11784                           plusw1	equ	0xFE3
 11785                           fsr1h	equ	0xFE2
 11786                           fsr1l	equ	0xFE1
 11787                           bsr	equ	0xFE0
 11788                           indf2	equ	0xFDF
 11789                           postinc2	equ	0xFDE
 11790                           postdec2	equ	0xFDD
 11791                           preinc2	equ	0xFDC
 11792                           plusw2	equ	0xFDB
 11793                           fsr2h	equ	0xFDA
 11794                           fsr2l	equ	0xFD9
 11795                           status	equ	0xFD8

Data Sizes:
    Strings     16
    Constant    480
    Data        0
    BSS         105
    Persistent  0
    Stack       0

Auto Spaces:
    Space          Size  Autos    Used
    COMRAM           94     89      93
    BANK0           160     91     112
    BANK1           256      0      80
    BANK2           256      0       0
    BANK3           256      0       0
    BANK4           256      0       0
    BANK5           256      0       0

Pointer List with Targets:

    efgtoa@fp	PTR struct _IO_FILE size(1) Largest target is 11
		 -> sprintf@f(BANK0[11]), 

    f$.$buffer	PTR unsigned char  size(1) Largest target is 10
		 -> main@a(BANK0[10]), UpdateScreen@a(BANK0[7]), 

    f$.$source	PTR const unsigned char  size(2) Largest target is 0

    fputc@fp	PTR struct _IO_FILE size(1) Largest target is 11
		 -> sprintf@f(BANK0[11]), 

    fputc@fp$.$buffer	PTR unsigned char  size(1) Largest target is 10
		 -> main@a(BANK0[10]), UpdateScreen@a(BANK0[7]), 

    fputc@fp$.$source	PTR const unsigned char  size(2) Largest target is 0

    fputs@fp	PTR struct _IO_FILE size(1) Largest target is 11
		 -> sprintf@f(BANK0[11]), 

    fputs@s	PTR const unsigned char  size(2) Largest target is 80
		 -> dbuf(BANK1[80]), 

    memcpy@d	PTR unsigned char  size(2) Largest target is 80
		 -> dbuf(BANK1[80]), SSD1306_String@pixData(COMRAM[5]), 

    memcpy@d1	PTR void  size(2) Largest target is 80
		 -> dbuf(BANK1[80]), SSD1306_String@pixData(COMRAM[5]), 

    memcpy@s	PTR const unsigned char  size(2) Largest target is 480
		 -> dbuf(BANK1[80]), TEXT5x8(CODE[480]), 

    memcpy@s1	PTR const void  size(2) Largest target is 480
		 -> dbuf(BANK1[80]), TEXT5x8(CODE[480]), 

    pad@buf	PTR unsigned char  size(2) Largest target is 80
		 -> dbuf(BANK1[80]), 

    pad@fp	PTR struct _IO_FILE size(1) Largest target is 11
		 -> sprintf@f(BANK0[11]), 

    S1261$buffer	PTR unsigned char  size(1) Largest target is 10
		 -> main@a(BANK0[10]), UpdateScreen@a(BANK0[7]), 

    S1261$source	PTR const unsigned char  size(2) Largest target is 0

    SendString@str	PTR unsigned char  size(1) Largest target is 7
		 -> UpdateScreen@a(BANK0[7]), 

    sp__memcpy	PTR void  size(2) Largest target is 80
		 -> dbuf(BANK1[80]), SSD1306_String@pixData(COMRAM[5]), 

    sp__strcpy	PTR unsigned char  size(2) Largest target is 80
		 -> dbuf(BANK1[80]), 

    sprintf@ap	PTR void [1] size(1) Largest target is 2
		 -> ?_sprintf(BANK0[2]), 

    sprintf@fmt	PTR const unsigned char  size(2) Largest target is 4
		 -> STR_1(CODE[4]), STR_2(CODE[4]), 

    sprintf@s	PTR unsigned char  size(1) Largest target is 10
		 -> main@a(BANK0[10]), UpdateScreen@a(BANK0[7]), 

    SSD1306_String@data	PTR const unsigned char  size(1) Largest target is 10
		 -> main@a(BANK0[10]), UpdateScreen@a(BANK0[7]), 

    strcpy@d	PTR unsigned char  size(2) Largest target is 80
		 -> dbuf(BANK1[80]), 

    strcpy@dest	PTR unsigned char  size(2) Largest target is 80
		 -> dbuf(BANK1[80]), 

    strcpy@src	PTR const unsigned char  size(2) Largest target is 4
		 -> STR_3(CODE[4]), STR_6(CODE[4]), 

    vfpfcnvrt@ap	PTR PTR void  size(1) Largest target is 1
		 -> sprintf@ap(BANK0[1]), 

    vfpfcnvrt@cp	PTR unsigned char  size(2) Largest target is 4
		 -> STR_1(CODE[4]), STR_2(CODE[4]), 

    vfpfcnvrt@fmt	PTR PTR unsigned char  size(1) Largest target is 2
		 -> vfprintf@cfmt(COMRAM[2]), 

    vfpfcnvrt@fp	PTR struct _IO_FILE size(1) Largest target is 11
		 -> sprintf@f(BANK0[11]), 

    vfprintf@ap	PTR PTR void  size(1) Largest target is 1
		 -> sprintf@ap(BANK0[1]), 

    vfprintf@cfmt	PTR unsigned char  size(2) Largest target is 4
		 -> STR_1(CODE[4]), STR_2(CODE[4]), 

    vfprintf@fmt	PTR const unsigned char  size(2) Largest target is 4
		 -> STR_1(CODE[4]), STR_2(CODE[4]), 

    vfprintf@fp	PTR struct _IO_FILE size(1) Largest target is 11
		 -> sprintf@f(BANK0[11]), 


Critical Paths under _main in COMRAM

    _updateYaw->___flsub
    _playNotes->_tone
    _playConfusedTone->_tone
    _noise->_tone
    _tone->___lldiv
    ___lldiv->___lmul
    _sprintf->_vfprintf
    _vfprintf->_vfpfcnvrt
    _vfpfcnvrt->_efgtoa
    _efgtoa->___flsub
    _pad->_fputs
    _fputs->_fputc
    _floorf->___fldiv
    ___flsub->___fladd
    ___fladd->___flmul
    ___flge->___flmul
    ___fldiv->___xxtofl
    _SendString->_SendByte
    _SSD1306_String->_memcpy
    _SSD1306_GotoStart->_I2C_Write
    _SSD1306_ClearScreen->_I2C_Write
    _SSD1306_Init->_SSD1306_WriteCommand
    _SSD1306_WriteCommand->_I2C_Write
    _MPU6050_Init->_CalibrateGyro
    _CalibrateGyro->___aldiv
    _MPU6050_ReadGyroZ->_I2C_Read
    _I2C_Write->_I2C_Hold
    _I2C_Stop->_I2C_Hold
    _I2C_Start->_I2C_Hold
    _I2C_RepeatedStart->_I2C_Hold
    _I2C_Read->_I2C_Hold
    _GetDistance->___fltol
    ___fltol->___flmul
    ___flmul->___xxtofl

Critical Paths under __ISR in COMRAM

    None.

Critical Paths under _main in BANK0

    _main->_UpdateScreen
    _UpdateScreen->_sprintf
    _vfpfcnvrt->_efgtoa

Critical Paths under __ISR in BANK0

    None.

Critical Paths under _main in BANK1

    None.

Critical Paths under __ISR in BANK1

    None.

Critical Paths under _main in BANK2

    None.

Critical Paths under __ISR in BANK2

    None.

Critical Paths under _main in BANK3

    None.

Critical Paths under __ISR in BANK3

    None.

Critical Paths under _main in BANK4

    None.

Critical Paths under __ISR in BANK4

    None.

Critical Paths under _main in BANK5

    None.

Critical Paths under __ISR in BANK5

    None.

Call Graph Tables:

 ---------------------------------------------------------------------------------
 (Depth) Function   	        Calls       Base Space   Used Autos Params    Refs
 ---------------------------------------------------------------------------------
 (0) _main                                                19    19      0   39360
                                             72 BANK0     19    19      0
                        _GetDistance
                           _I2C_Init
                       _MPU6050_Init
                _SSD1306_ClearScreen
                  _SSD1306_GotoStart
                       _SSD1306_Init
                     _SSD1306_String
                           _SendByte
                         _USART_Init
                       _UpdateScreen
                              _noise
                   _playConfusedTone
                          _playNotes
                            _sprintf
                          _updateYaw
 ---------------------------------------------------------------------------------
 (1) _updateYaw                                            8     8      0    7378
                                             63 COMRAM     8     8      0
                  _MPU6050_ReadGyroZ
                            ___fladd
                            ___fldiv
                             ___flge
                            ___flmul
                            ___flsub
                           ___xxtofl
 ---------------------------------------------------------------------------------
 (1) _playNotes                                            2     2      0     618
                                             42 COMRAM     2     2      0
                               _tone
 ---------------------------------------------------------------------------------
 (1) _playConfusedTone                                     1     1      0     618
                                             42 COMRAM     1     1      0
                               _tone
 ---------------------------------------------------------------------------------
 (1) _noise                                               14    14      0    1026
                                             42 COMRAM    14    14      0
                               _tone
 ---------------------------------------------------------------------------------
 (2) _tone                                                17    13      4     618
                                             25 COMRAM    17    13      4
                            ___lldiv
                             ___lmul
 ---------------------------------------------------------------------------------
 (3) ___lmul                                              12     4      8      94
                                              0 COMRAM    12     4      8
 ---------------------------------------------------------------------------------
 (3) ___lldiv                                             13     5      8     166
                                             12 COMRAM    13     5      8
                             ___lmul (ARG)
 ---------------------------------------------------------------------------------
 (1) _UpdateScreen                                         9     7      2   13344
                                             63 BANK0      9     7      2
                _SSD1306_ClearScreen
                  _SSD1306_GotoStart
                     _SSD1306_String
                         _SendString
                            _sprintf
 ---------------------------------------------------------------------------------
 (1) _sprintf                                             21    14      7   12567
                                             44 BANK0     19    12      7
                           _vfprintf
 ---------------------------------------------------------------------------------
 (2) _vfprintf                                             6     2      4   12360
                                             83 COMRAM     6     2      4
                          _vfpfcnvrt
 ---------------------------------------------------------------------------------
 (3) _vfpfcnvrt                                           13    10      3   12232
                                             71 COMRAM    12     9      3
                            ___lwdiv
                            ___lwmod
                             _efgtoa
                              _fputc
 ---------------------------------------------------------------------------------
 (4) _efgtoa                                              53    47      6   10932
                                             63 COMRAM     8     2      6
                                              0 BANK0     44    44      0
                            ___fladd
                            ___fldiv
                             ___fleq
                             ___flge
                            ___flmul
                            ___flneg
                            ___flsub
                            ___fltol
                      ___fpclassifyf
                             _floorf
                               _labs
                             _memcpy
                                _pad
                             _strcpy
 ---------------------------------------------------------------------------------
 (5) _strcpy                                               6     2      4      77
                                              0 COMRAM     6     2      4
 ---------------------------------------------------------------------------------
 (5) _pad                                                  8     3      5     711
                                             14 COMRAM     8     3      5
                              _fputc
                              _fputs
 ---------------------------------------------------------------------------------
 (6) _fputs                                                6     3      3     333
                                              8 COMRAM     6     3      3
                              _fputc
 ---------------------------------------------------------------------------------
 (4) _fputc                                                8     5      3     234
                                              0 COMRAM     8     5      3
                              _putch
 ---------------------------------------------------------------------------------
 (5) _putch                                                1     1      0       0
 ---------------------------------------------------------------------------------
 (5) _labs                                                 8     4      4      69
                                              0 COMRAM     8     4      4
 ---------------------------------------------------------------------------------
 (5) _floorf                                              20    16      4     340
                                             39 COMRAM    20    16      4
                            ___fldiv (ARG)
 ---------------------------------------------------------------------------------
 (5) ___fpclassifyf                                       14    10      4     137
                                              0 COMRAM    14    10      4
 ---------------------------------------------------------------------------------
 (2) ___flsub                                              8     0      8    2043
                                             55 COMRAM     8     0      8
                            ___fladd
                            ___flmul (ARG)
 ---------------------------------------------------------------------------------
 (3) ___fladd                                             16     8      8    1992
                                             39 COMRAM    16     8      8
                            ___flmul (ARG)
 ---------------------------------------------------------------------------------
 (5) ___flneg                                              4     0      4      46
                                              0 COMRAM     4     0      4
 ---------------------------------------------------------------------------------
 (2) ___flge                                              12     4      8     192
                                             39 COMRAM    12     4      8
                            ___flmul (ARG)
 ---------------------------------------------------------------------------------
 (5) ___fleq                                              12     4      8      94
                                              0 COMRAM    12     4      8
 ---------------------------------------------------------------------------------
 (2) ___fldiv                                             25    17      8    1133
                                             14 COMRAM    25    17      8
                           ___xxtofl (ARG)
 ---------------------------------------------------------------------------------
 (4) ___lwmod                                              5     1      4     161
                                              0 COMRAM     5     1      4
 ---------------------------------------------------------------------------------
 (4) ___lwdiv                                              7     3      4     164
                                              0 COMRAM     7     3      4
 ---------------------------------------------------------------------------------
 (2) _SendString                                           1     0      1      75
                                              1 COMRAM     1     0      1
                           _SendByte
 ---------------------------------------------------------------------------------
 (3) _SendByte                                             1     1      0      29
                                              0 COMRAM     1     1      0
 ---------------------------------------------------------------------------------
 (2) _SSD1306_String                                      15    14      1     454
                                             11 COMRAM    15    14      1
                          _I2C_Start
                           _I2C_Stop
                          _I2C_Write
                             _memcpy
 ---------------------------------------------------------------------------------
 (5) _memcpy                                              11     5      6     152
                                              0 COMRAM    11     5      6
 ---------------------------------------------------------------------------------
 (2) _SSD1306_GotoStart                                    0     0      0      29
                          _I2C_Start
                           _I2C_Stop
                          _I2C_Write
 ---------------------------------------------------------------------------------
 (2) _SSD1306_ClearScreen                                  4     4      0     121
                                              2 COMRAM     4     4      0
                          _I2C_Start
                           _I2C_Stop
                          _I2C_Write
 ---------------------------------------------------------------------------------
 (1) _USART_Init                                           0     0      0       0
 ---------------------------------------------------------------------------------
 (1) _SSD1306_Init                                         2     2      0      87
                                              3 COMRAM     2     2      0
                          _I2C_Start
                           _I2C_Stop
                          _I2C_Write
               _SSD1306_WriteCommand
 ---------------------------------------------------------------------------------
 (2) _SSD1306_WriteCommand                                 1     1      0      58
                                              2 COMRAM     1     1      0
                          _I2C_Start
                           _I2C_Stop
                          _I2C_Write
 ---------------------------------------------------------------------------------
 (1) _MPU6050_Init                                         0     0      0     528
                      _CalibrateGyro
                          _I2C_Start
                           _I2C_Stop
                          _I2C_Write
 ---------------------------------------------------------------------------------
 (2) _CalibrateGyro                                       10    10      0     499
                                             14 COMRAM    10    10      0
                  _MPU6050_ReadGyroZ
                            ___aldiv
 ---------------------------------------------------------------------------------
 (3) ___aldiv                                             14     6      8     302
                                              0 COMRAM    14     6      8
 ---------------------------------------------------------------------------------
 (2) _MPU6050_ReadGyroZ                                    6     4      2     127
                                              3 COMRAM     6     4      2
                           _I2C_Read
                  _I2C_RepeatedStart
                          _I2C_Start
                           _I2C_Stop
                          _I2C_Write
 ---------------------------------------------------------------------------------
 (3) _I2C_Write                                            1     1      0      29
                                              1 COMRAM     1     1      0
                           _I2C_Hold
 ---------------------------------------------------------------------------------
 (3) _I2C_Stop                                             0     0      0       0
                           _I2C_Hold
 ---------------------------------------------------------------------------------
 (3) _I2C_Start                                            0     0      0       0
                           _I2C_Hold
 ---------------------------------------------------------------------------------
 (3) _I2C_RepeatedStart                                    0     0      0       0
                           _I2C_Hold
 ---------------------------------------------------------------------------------
 (3) _I2C_Read                                             2     2      0      52
                                              1 COMRAM     2     2      0
                           _I2C_Hold
 ---------------------------------------------------------------------------------
 (4) _I2C_Hold                                             1     1      0       0
                                              0 COMRAM     1     1      0
 ---------------------------------------------------------------------------------
 (1) _I2C_Init                                             0     0      0       0
 ---------------------------------------------------------------------------------
 (1) _GetDistance                                          8     6      2    2101
                                             49 COMRAM     8     6      2
                            ___flmul
                            ___fltol
                           ___xxtofl
 ---------------------------------------------------------------------------------
 (2) ___xxtofl                                            14    10      4     338
                                              0 COMRAM    14    10      4
 ---------------------------------------------------------------------------------
 (5) ___fltol                                             10     6      4     233
                                             39 COMRAM    10     6      4
                            ___flmul (ARG)
                           ___xxtofl (ARG)
 ---------------------------------------------------------------------------------
 (2) ___flmul                                             25    17      8    1482
                                             14 COMRAM    25    17      8
                           ___xxtofl (ARG)
 ---------------------------------------------------------------------------------
 Estimated maximum stack depth 6
 ---------------------------------------------------------------------------------
 (Depth) Function   	        Calls       Base Space   Used Autos Params    Refs
 ---------------------------------------------------------------------------------
 (10) __ISR                                                0     0      0       0
         _EUSART_Rx_InterruptHandler
 ---------------------------------------------------------------------------------
 (11) _EUSART_Rx_InterruptHandler                          0     0      0       0
 ---------------------------------------------------------------------------------
 Estimated maximum stack depth 11
 ---------------------------------------------------------------------------------

 Call Graph Graphs:

 _main (ROOT)
   _GetDistance
     ___flmul
       ___xxtofl (ARG)
     ___fltol
       ___flmul (ARG)
       ___xxtofl (ARG)
     ___xxtofl
   _I2C_Init
   _MPU6050_Init
     _CalibrateGyro
       _MPU6050_ReadGyroZ
         _I2C_Read
           _I2C_Hold
         _I2C_RepeatedStart
           _I2C_Hold
         _I2C_Start
           _I2C_Hold
         _I2C_Stop
           _I2C_Hold
         _I2C_Write
           _I2C_Hold
       ___aldiv
     _I2C_Start
     _I2C_Stop
     _I2C_Write
   _SSD1306_ClearScreen
     _I2C_Start
     _I2C_Stop
     _I2C_Write
   _SSD1306_GotoStart
     _I2C_Start
     _I2C_Stop
     _I2C_Write
   _SSD1306_Init
     _I2C_Start
     _I2C_Stop
     _I2C_Write
     _SSD1306_WriteCommand
       _I2C_Start
       _I2C_Stop
       _I2C_Write
   _SSD1306_String
     _I2C_Start
     _I2C_Stop
     _I2C_Write
     _memcpy
   _SendByte
   _USART_Init
   _UpdateScreen
     _SSD1306_ClearScreen
     _SSD1306_GotoStart
     _SSD1306_String
     _SendString
       _SendByte
     _sprintf
       _vfprintf
         _vfpfcnvrt
           ___lwdiv
           ___lwmod
           _efgtoa
             ___fladd
               ___flmul (ARG)
             ___fldiv
               ___xxtofl (ARG)
             ___fleq
             ___flge
               ___flmul (ARG)
             ___flmul
             ___flneg
             ___flsub
               ___fladd
               ___flmul (ARG)
             ___fltol
             ___fpclassifyf
             _floorf
               ___fldiv (ARG)
             _labs
             _memcpy
             _pad
               _fputc
                 _putch
               _fputs
                 _fputc
             _strcpy
           _fputc
   _noise
     _tone
       ___lldiv
         ___lmul (ARG)
       ___lmul
   _playConfusedTone
     _tone
   _playNotes
     _tone
   _sprintf
   _updateYaw
     _MPU6050_ReadGyroZ
     ___fladd
     ___fldiv
     ___flge
     ___flmul
     ___flsub
     ___xxtofl

 __ISR (ROOT)
   _EUSART_Rx_InterruptHandler

Address spaces:
Name               Size   Autos  Total    Usage
BIGRAM            1535      0       0      0.0%
BITBIGSFRllll      643      0       0      0.0%
BITBANK5           256      0       0      0.0%
BANK5              256      0       0      0.0%
BITBANK4           256      0       0      0.0%
BANK4              256      0       0      0.0%
BITBANK3           256      0       0      0.0%
BANK3              256      0       0      0.0%
BITBANK2           256      0       0      0.0%
BANK2              256      0       0      0.0%
BITBANK1           256      0       0      0.0%
BANK1              256      0      80     31.2%
BITBANK0           160      0       0      0.0%
BANK0              160     91     112     70.0%
BITCOMRAM           94      0       0      0.0%
COMRAM              94     89      93     98.9%
BITBIGSFRh          82      0       0      0.0%
BITBIGSFRllh        17      0       0      0.0%
BITBIGSFRlh         14      0       0      0.0%
BITBIGSFRlllh        8      0       0      0.0%
STACK                0      0       0      0.0%
DATA                 0      0     284      0.0%


Microchip Technology PIC18 Macro Assembler V3.00 build 20241204225717 
Symbol Table                                                                                   Sun Nov 16 22:48:06 2025

                      ___fldiv@aexp 0027                        ___fldiv@bexp 0026  
                      ___fldiv@sign 001F                         _SSPSTATbits 0FC7  
               __end_of_GetDistance 2EF2                                 l121 37B2  
                               l130 378E                                 l115 36F8  
                               l124 37BA                                 l109 37D6  
                               l133 379C                                 l142 34A2  
                               l118 37A4                                 l222 3786  
                               l127 37C8                                 l151 3754  
                               l144 34B0                                 l136 3760  
                               l216 3736                                 l145 34CE  
                               l209 3498                                 l138 376E  
                               l154 2BC0                                 l306 1E00  
                               l139 3770                                 l219 3774  
                               l251 367A                                 l260 2EF0  
                               l148 34DE                                 l228 36D2  
                               l157 35D6                                 l254 2E60  
                               l174 31C8                                 l167 2CAC  
                               l351 30E8                                 l263 2274  
                               l191 2578                                 l256 2E6E  
                               l184 2E40                                 l344 30D8  
                               l328 3222                                 l264 2400  
                               l257 2E70                                 l329 3232  
                               l273 26B4                                 l259 2E7E  
                               l179 3718                                 l276 2D76  
                               l614 28C4                                 l294 1982  
                               l396 27BE                                 l901 14CC  
                               l910 1512                                 l582 2982  
                               l815 315C                                 l911 1530  
                               l591 3646                                 l808 3154  
                               l912 1588                                 l904 1490  
                               l576 3044                                 l825 3362  
                               l913 1576                                 l818 335A  
                               l931 0F78                                 l587 29C8  
                               l940 11E4                                 l941 11D2  
                               l845 0BE6                                 l862 0D00  
                               l854 0EB2                                 l846 0BD4  
                               l935 12D8                                 l871 0DCE  
                               l847 0B9A                                 l872 0DBC  
                               l938 116E                                 l939 118C  
                               l859 0D8E                                 l948 129A  
                               l972 2100                                 l878 0E76  
                               l975 225C                                 l887 3452  
                               l986 21F4                                 l994 32FE  
                               l979 2198                                 l899 1668  
                               _PR2 0FCB                                 _PEN 7E2A  
                               _SEN 7E28                                 _RX9 7D5E  
                               _TX9 7D66        __end_of_SSD1306_WriteCommand 3756  
                               _pad 3234                                 wreg 0FE8  
                      ___flmul@aexp 0020                        ___flmul@bexp 0021  
                      ___flmul@sign 001B                        ___flmul@temp 0026  
                      ___flmul@prod 0022                        ___fltol@exp1 0031  
                              l1001 359C                                l1100 1C4C  
                              l1032 3298                                l1043 09FC  
                              l1107 1B10                                l1123 3520  
                              l1140 20A8                                l1028 324A  
                              l1133 2AC6                                l1046 039E  
                              l1143 1FEC                                l1048 01E4  
                              l3001 0B12                                l1154 33B8  
                              l3011 0B26                                l3003 0B16  
                              l1076 07E4                                l3101 0D9E  
                              l3013 0B2A                                l3005 0B1A  
                              l3021 0B3A                                l1166 2F9A  
                              l1174 3560                                l3111 0DF8  
                              l3103 0DB4                                l3031 0BB4  
                              l3023 0B66                                l3015 0B2E  
                              l3007 0B1E                                l1183 360E  
                              l3201 13D0                                l3121 0E74  
                              l3113 0E32                                l3041 0BF4  
                              l3033 0BB8                                l3025 0B82  
                              l3017 0B32                                l3009 0B22  
                              l1177 37E4                                l4001 30C8  
                              l4011 26D6                                l3211 13F8  
                              l3203 13D4                                l3131 0EA0  
                              l3123 0E84                                l3107 0DDE  
                              l3115 0E34                                l3051 0C36  
                              l3043 0C04                                l3035 0BC6  
                              l3027 0B92                                l3019 0B36  
                              l4003 30D2                                l3301 0EE0  
                              l4021 270C                                l4013 26DA  
                              l4005 26B6                                l3221 1446  
                              l3133 0EA2                                l3125 0E8A  
                              l3117 0E44                                l3109 0DEA  
                              l3061 0C64                                l3053 0C44  
                              l3037 0BC8                                l3029 0BA8  
                              l3141 353C                                l3311 0F1C  
                              l3303 0EF0                                l4031 274E  
                              l4023 2722                                l4015 26E8  
                              l4007 26B8                                l4111 3184  
                              l4103 3176                                l3151 32D4  
                              l3231 148E                                l3223 1456  
                              l3215 140C                                l3207 13E8  
                              l3127 0E8C                                l3119 0E54  
                              l3071 0CD0                                l3063 0C6E  
                              l3055 0C50                                l3047 0C18  
                              l3039 0BD2                                l3143 3540  
                              l3401 126A                                l3321 0F52  
                              l3313 0F22                                l3305 0F00  
                              l4033 276C                                l4025 272A  
                              l4041 278E                                l4017 26F8  
                              l4009 26C6                                l4121 2D78  
                              l4113 3188                                l3153 32E0  
                              l3145 329A                                l3241 14DC  
                              l3233 149A                                l3225 145C  
                              l3217 1426                                l3209 13F8  
                              l3161 12F4                                l3129 0E92  
                              l3073 0CE0                                l3057 0C54  
                              l3049 0C28                                l3065 0C74  
                              l3137 3522                                l4201 23A6  
                              l3411 12BC                                l3403 1284  
                              l3323 0F62                                l3315 0F30  
                              l3307 0F06                                l4211 20CA  
                              l4043 279E                                l4035 277C  
                              l4027 2736                                l4019 26FC  
                              l4131 2DA8                                l4123 2D88  
                              l4115 31A4                                l3147 32AE  
                              l3155 32E4                                l3243 14F2  
                              l3251 1522                                l3235 14B8  
                              l3227 146C                                l3219 1436  
                              l3171 1328                                l3163 12F6  
                              l3091 0D62                                l3083 0D3A  
                              l3067 0C9A                                l3075 0CF0  
                              l3059 0C62                                l3139 352E  
                              l4051 34EC                                l4203 23F6  
                              l3413 12BE                                l3405 1294  
                              l3341 0FE4                                l3333 0FAC  
                              l3325 0F68                                l3317 0F32  
                              l3309 0F16                                l4221 2142  
                              l4213 2110                                l4045 27AE  
                              l4037 277E                                l4029 2744  
                              l4141 2E28                                l4133 2DCE  
                              l4125 2DA0                                l4117 31A8  
                              l4109 317E                                l4061 359E  
                              l3149 32D0                                l3261 15A4  
                              l3253 1540                                l3245 14F8  
                              l3237 14BA                                l3229 1480  
                              l3181 1358                                l3165 1306  
                              l3173 132E                                l3157 12DA  
                              l3093 0D6A                                l3085 0D44  
                              l3077 0D16                                l3069 0CCE  
                              l3421 340E                                l4053 34FC  
                              l4205 23FE                                l4301 2544  
                              l3407 129E                                l3415 12C4  
                              l3351 102E                                l3343 0FFC  
                              l3335 0FB8                                l3327 0F88  
                              l3319 0F42                                l3511 28A4  
                              l4231 21CA                                l4223 214E  
                              l4215 2126                                l4207 20AC  
                              l4039 2788                                l4135 2DDC  
                              l4311 3724                                l4303 371A  
                              l4119 31C4                                l4071 2C46  
                              l4063 2BC2                                l4143 36AA  
                              l3271 1610                                l3263 15B2  
                              l3255 156E                                l3247 1502  
                              l3239 14CA                                l3191 138C  
                              l3183 135A                                l3175 133E  
                              l3167 1316                                l3159 12E6  
                              l3431 2FDA                                l3095 0D6E  
                              l3087 0D52                                l3079 0D26  
                              l3423 341E                                l4055 3518  
                              l4151 3562                                l3417 12C8  
                              l3409 12AE                                l3361 1084  
                              l3353 103E                                l3345 1008  
                              l3337 0FC2                                l3329 0F98  
                              l3513 28B4                                l3505 2878  
                              l4241 2208                                l4233 21D6  
                              l4225 2180                                l4209 20BC  
                              l4137 2DE0                                l4321 372E  
                              l4313 3726                                l4305 371E  
                              l4073 2C4A                                l4065 2BCE  
                              l4145 36AE                                l3601 3104  
                              l3281 1656                                l3273 162A  
                              l3265 15DC                                l3249 1510  
                              l3185 136A                                l3193 1392  
                              l3177 1344                                l3169 1326  
                              l3433 3008                                l3097 0D7E  
                              l3089 0D54                                l3521 3256  
                              l4049 34E0                                l4153 356C  
                              l4401 2D3E                                l3371 1128  
                              l3363 10A0                                l3355 104A  
                              l3347 1014                                l3339 0FD8  
                              l3507 2884                                l4243 222C  
                              l4235 21E4                                l4227 2182  
                              l4219 213A                                l4139 2DFC  
                              l4059 373A                                l4323 3730  
                              l4315 3728                                l4307 3720  
                              l4091 2C90                                l4083 2C5E  
                              l4075 2C50                                l4067 2BE6  
                              l4147 36BA                                l3611 313E  
                              l3603 310C                                l3283 165C  
                              l3275 1642                                l3259 1598  
                              l3267 15E0                                l3195 13A2  
                              l3187 137A                                l3179 134A  
                              l3435 3018                                l3427 2F9C  
                              l3451 2942                                l3443 28C6  
                              l3099 0D80                                l3531 29EA  
                              l3523 3266                                l4155 3574  
                              l4171 22CA                                l4163 225E  
                              l4411 1672                                l4403 2D62  
                              l3381 117E                                l3373 1136  
                              l3365 10AC                                l3357 105A  
                              l3349 1022                                l3293 0EB4  
                              l3509 2894                                l4245 223C  
                              l4237 2202                                l4229 218E  
                              l4341 2E42                                l4253 37CA  
                              l4261 2B72                                l4325 3732  
                              l4317 372A                                l4309 3722  
                              l4085 2C6C                                l4077 2C56  
                              l4069 2C2C                                l4093 2C94  
                              l4149 36BC                                l3613 3146  
                              l3605 3114                                l3621 3312  
                              l3285 165E                                l3277 1644  
                              l3269 15FA                                l3197 13B8  
                              l3189 138A                                l3437 303C  
                              l3429 2FCA                                l3461 29C6  
                              l3453 2950                                l3445 28F4  
                              l3533 2A28                                l3541 2A68  
                              l3525 326A                                l3517 3234  
                              l3701 01FA                                l4157 357C  
                              l4333 3648                                l4181 22F0  
                              l4173 22CA                                l4501 1962  
                              l4421 16E6                                l4413 1686  
                              l4405 166A                                l3391 1200  
                              l3383 119C                                l3375 1154  
                              l3367 10C8                                l3359 1074  
                              l3295 0EC0                                l4247 224A  
                              l4239 2204                                l4351 2E52  
                              l4343 2E4A                                l4255 37CE  
                              l4271 2B9E                                l4263 2B88  
                              l4327 3734                                l4319 372C  
                              l4095 315E                                l4087 2C70  
                              l3615 3148                                l3607 3122  
                              l3631 334E                                l3623 331A  
                              l3279 1648                                l3199 13C8  
                              l3439 3042                                l3455 2962  
                              l3447 2904                                l3543 2A7A  
                              l3535 2A50                                l3527 3288  
                              l3519 3242                                l3551 35D8  
                              l3711 02F0                                l3703 022E  
                              l4159 3590                                l4335 3650  
                              l4191 2370                                l4183 2318  
                              l4175 22CA                                l4167 2278  
                              l4431 1718                                l4423 16FC  
                              l4415 1696                                l3393 120E  
                              l3385 11CA                                l3377 115E  
                              l3369 10F2                                l3297 0ECE  
                              l3481 2814                                l3473 27C0  
                              l4249 224C                                l4361 2E96  
                              l4353 2E54                                l4345 2E4C  
                              l4257 37D4                                l4281 2BBC  
                              l4273 2BA4                                l4265 2B8C  
                              l4097 316E                                l4089 2C8C  
                              l3617 314E                                l3609 3128  
                              l3633 3354                                l3625 3322  
                              l3457 2970                                l3449 2932  
                              l3465 3610                                l3537 2A5C  
                              l3529 29CA                                l3553 35E0  
                              l3801 0814                                l3721 03A6  
                              l3713 0324                                l3705 026C  
                              l3641 0038                                l4337 366A  
                              l4185 231C                                l4193 2394  
                              l4177 22DE                                l4169 22A8  
                              l4441 178E                                l4433 1728  
                              l4417 16BE                                l3395 1238  
                              l3379 116C                                l3299 0ED0  
                              l3483 2816                                l3475 27D6  
                              l4363 2EE8                                l4355 2E56  
                              l4347 2E4E                                l4283 36FA  
                              l4275 2BAA                                l4267 2B92  
                              l4259 2AC8                                l3627 3330  
                              l3619 3300                                l3459 29C0  
                              l3467 3626                                l3547 2ABE  
                              l3571 1F30                                l3563 1E98  
                              l3555 3364                                l2931 2F02  
                              l3811 083A                                l3803 0818  
                              l3731 03D6                                l3723 03B6  
                              l3715 032C                                l3707 029E  
                              l3651 008E                                l3643 005C  
                              l3635 0012                                l4339 3672  
                              l4195 239E                                l4187 2340  
                              l4179 22E0                                l4451 17BA  
                              l4435 1750                                l4419 16CA  
                              l4371 25A4                                l4291 242C  
                              l3389 11F4                                l3397 123C  
                              l3485 2826                                l4357 2E5E  
                              l4349 2E50                                l4277 2BB0  
                              l4269 2B98                                l3629 3346  
                              l3469 3636                                l3581 204C  
                              l3565 1EB8                                l3557 3372  
                              l2933 2F12                                l3821 086E  
                              l3813 0840                                l3805 081E  
                              l3733 03E8                                l3741 0428  
                              l3725 03C2                                l3709 02DC  
                              l3661 00DE                                l3653 009A  
                              l3645 0066                                l3637 0026  
                              l3901 1A24                                l4197 23A2  
                              l4189 236C                                l4453 17DE  
                              l4437 175C                                l4429 1704  
                              l4381 264C                                l4373 25CE  
                              l4293 2478                                l4285 2402  
                              l4701 1CB2                                ?_pad 000F  
                              l3399 1256                                l3495 2850  
                              l3487 282A                                l3479 27EA  
                              l4359 2E80                                l3591 36D4  
                              l4279 2BB6                                l2951 0A2A  
                              l2943 09FE                                l3583 2060  
                              l3575 1FA0                                l3567 1F0E  
                              l3559 3386                                l2935 2F1C  
                              l3823 0874                                l3807 0826  
                              l3815 0846                                l3831 090C  
                              l3751 0510                                l3743 0430  
                              l3735 03F6                                l3727 03CA  
                              l3719 036C                                l3671 0112  
                              l3663 00E2                                l3655 00A2  
                              l3647 006E                                l3639 0034  
                              l3911 1A92                                l3903 1A28  
                              l4199 23A4                                l4471 187E  
                              l4463 1816                                l4455 17FE  
                              l4447 1796                                l4439 1778  
                              l4391 2CC2                                l4383 2660  
                              l4375 25E2                                l4367 257A  
                              l4295 24D0                                l4287 2412  
                              l4711 1D00                                l4703 1CCC  
                              l3497 285A                                l3489 2838  
                              l3593 36D4                                l2961 0A62  
                              l2953 0A3A                                l2945 0A0A  
                              l3585 2088                                l3577 1FDC  
                              l3569 1F22                                l2937 2F38  
                              l2929 2EF2                                l3841 098C  
                              l3833 092A                                l3825 08CC  
                              l3817 0858                                l3809 0836  
                              l3761 05CE                                l3753 0544  
                              l3745 0440                                l3737 040E  
                              l3729 03D2                                l3681 016A  
                              l3665 00E8                                l3649 007E  
                              l3657 00A6                                l3913 1AB0  
                              l3905 1A50                                l3921 1AE0  
                              l4481 18B0                                l4473 1894  
                              l4465 182A                                l4457 180E  
                              l4449 17AA                                l4393 2CD2  
                              l4385 268A                                l4377 260C  
                              l4369 258E                                l4297 2502  
                              l4289 241E                                l4721 1D26  
                              l4713 1D04                                l4705 1CD0  
                              l3499 2864                                l3595 36EA  
                              l2971 0A90                                l2963 0A68  
                              l2955 0A4A                                l2947 0A18  
                              l3587 2098                                l3579 2010  
                              l2939 2F6A                                l3851 09E0  
                              l3843 099A                                l3835 0946  
                              l3827 0900                                l3819 086A  
                              l3771 066A                                l3763 05E4  
                              l3747 0454                                l3755 054A  
                              l3739 0420                                l3683 0170  
                              l3667 00F0                                l3659 00CC  
                              l3675 012E                                l3931 1B16  
                              l3923 1AEE                                l3915 1AB2  
                              l3907 1A6C                                l4483 18C0  
                              l4467 183A                                l4395 2CF6  
                              l4387 26A0                                l4379 2622  
                              l4299 2536                                l4731 1D60  
                              l4723 1D2E                                l4715 1D1E  
                              l4707 1CEA                                l3861 37B8  
                              l3597 30EA                                l2981 0AC4  
                              l2973 0A92                                l2965 0A7A  
                              l2957 0A4C                                l2949 0A1A  
                              l3845 09B2                                l3837 094E  
                              l3829 0908                                l3773 06C0  
                              l3781 0712                                l3765 0616  
                              l3757 0568                                l3749 04B8  
                              l3685 0178                                l3677 0154  
                              l3693 0194                                l3669 0108  
                              l3941 1BA4                                l3933 1B34  
                              l3925 1B00                                l3909 1A7E  
                              l4485 18E4                                l4469 185E  
                              l4397 2D0A                                l4389 2CAE  
                              l4741 1DA2                                l4733 1D64  
                              l4725 1D36                                l4717 1D22  
                              l4709 1CEE                                l3871 349C  
                              l3855 379E                                l3863 3788  
                              l3599 30F2                                l2991 0AFE  
                              l2975 0AA2                                l2983 0ACA  
                              l2967 0A7C                                l2959 0A52  
                              l3847 09C2                                l3839 095C  
                              l3791 0742                                l3783 0722  
                              l3775 06C6                                l3767 0626  
                              l3759 059C                                l3695 01AE  
                              l3679 0166                                l3951 1C02  
                              l3943 1BBA                                l3935 1B54  
                              l3927 1B08                                l3919 1AC8  
                              l4495 191A                                l4487 1904  
                              l4479 189C                                l4399 2D2E  
                              l4751 1DE6                                l4743 1DB2  
                              l4735 1D72                                l4727 1D44  
                              l4719 1D24                                l4671 1C5C  
                              l3881 34DC                                l3873 34A0  
                              l3857 37A2                                l3865 378C  
                              l2993 0B02                                l2985 0ADA  
                              l2977 0AB2                                l2969 0A82  
                              l3849 09D8                                l3793 07BA  
                              l3785 072A                                l3777 06FA  
                              l3769 0636                                l3945 1BD8  
                              l3937 1B7C                                l3953 1C1A  
                              l4497 192E                                l4489 1912  
                              l4761 1E1A                                l4753 1DF8  
                              l4745 1DC4                                l4737 1D7C  
                              l4729 1D58                                l4681 1C66  
                              l4673 1C5E                                l3875 34B4  
                              l3859 37B4                                l3867 3758  
                              l3963 3454                                l3971 3782  
                              l2995 0B06                                l2987 0AEC  
                              l2979 0AC2                                l3795 07DA  
                              l3787 072E                                l3779 070E  
                              l3699 01F4                                l3891 19C0  
                              l4499 193E                                l4771 1E44  
                              l4763 1E26                                l4747 1DCC  
                              l4755 1E00                                l4739 1D90  
                              l4691 1C74                                l4683 1C6C  
                              l4675 1C60                                l4667 1C4E  
                              l3877 34B8                                l3869 375C  
                              l3965 3482                                l2997 0B0A  
                              l2989 0AFA                                l3797 07F6  
                              l3789 0736                                l3893 19C4  
                              l3957 1C2A                                l3885 1984  
                              l3981 3202                                l3973 31CA  
                              l4781 1E76                                l4773 1E48  
                              l4765 1E2A                                l4757 1E04  
                              l4749 1DDE                                l4693 1C76  
                              l4685 1C6E                                l4677 1C62  
                              l4669 1C5A                                l3879 34CC  
                              l2999 0B0E                                l3799 0804  
                              l3895 19D2                                l3887 19A6  
                              l3991 3080                                l3983 3046  
                              l3975 31DA                                l4783 1E7E  
                              l4775 1E4C                                l4767 1E3A  
                              l4759 1E0A                                l4695 1C90  
                              l4687 1C70                                l4679 1C64  
                              l3969 3774                                l3897 19EE  
                              l3889 19B2                                l3993 308E  
                              l3985 3056                                l3977 31E8  
                              l4777 1E50                                l4769 1E3E  
                              l4697 1C94                                l4689 1C72  
                              l3899 1A06                                l3995 3098  
                              l3987 306C                                l3979 31F8  
                              l4779 1E54                                l4699 1CAE  
                              l3997 30B6                                l3989 3074  
                              l3999 30C6                                STR_1 7FFB  
                              STR_2 7FF7                                STR_3 7FEF  
                              STR_6 7FF3                                _BRGH 7D62  
                              _CREN 7D5C                                u3000 1530  
                              u3001 152C                                u3010 1540  
                              u3011 153C                                u3100 0EE0  
                              u3020 156E                                u3101 0EDC  
                              u3021 156A                                u3110 0EF0  
                              u3030 1584                                u3111 0EEC  
                              u3031 1580                                u3200 119C  
                              u3120 0F30                                u3040 1598  
                              u2400 2F02                                u4000 092A  
                              u3201 1198                                u3121 0F2C  
                              u3041 1594                                u2401 2EFE  
                              u4001 0926                                u3210 11CA  
                              u3130 0F42                                u3050 15B2  
                              u2410 2F12                                u4010 0946  
                              u3211 11C6                                u3131 0F3E  
                              u3051 15AE                                u2411 2F0E  
                              u4011 0942                                u3220 11E0  
                              u3140 0F52                                u4100 34CA  
                              u3060 15FA                                u3300 303C  
                              u2500 0AB2                                u2420 2F38  
                              u4020 09AC                                u3221 11DC  
                              u3141 0F4E                                u4101 34C4  
                              u3061 15F6                                u3301 3038  
                              u2501 0AAE                                u2421 2F34  
                              u4021 09A6                                u3230 11F4  
                              u3150 0F88                                u3070 162A  
                              u3310 28F4                                u2510 0AEC  
                              u2430 2F6A                                u4030 09AE  
                              u3231 11F0                                u3151 0F84  
                              u3071 1626                                u3311 28F0  
                              u2511 0AE8                                u2431 2F66  
                              u3240 120E                                u3160 0F98  
                              u3400 284C                                u4120 34DC  
                              u3080 1656                                u3320 2932  
                              u2600 0C04                                u2520 0AFA  
                              u2440 0A18                                u4040 09C2  
                              u4200 31E8                                u3241 120A  
                              u3161 0F94                                u3401 2848  
                              u4121 34D8                                u3081 1652  
                              u3321 292E                                u2601 0C00  
                              u2521 0AF6                                u2441 0A14  
                              u4041 09BE                                u4201 31E4  
                              u3250 1256                                u3170 1112  
                              u3090 0ECE                                u3410 2874  
                              u4050 37B2                                u3330 2950  
                              u2610 0C36                                u2530 0B66  
                              u2450 0A2A                                u4130 19A6  
                              u4210 3222                                u3251 1252  
                              u3091 0ECA                                u3411 2870  
                              u4115 34CC                                u4051 37AE  
                              u3331 294C                                u2611 0C32  
                              u2531 0B62                                u2451 0A26  
                              u4131 19A2                                u4211 321E  
                              u3260 1284                                u3180 116C  
                              u3420 2894                                u4060 37C8  
                              u4300 279E                                u3340 2970  
                              u2700 0D7E                                u2620 0C44  
                              u2540 0B7E                                u2460 0A3A  
                              u4140 19EE                                u4220 306C  
                              u3261 1280                                u3181 1168  
                              u3421 2890                                u4061 37C4  
                              u4301 279A                                u3341 296C  
                              u2701 0D7A                                u2621 0C40  
                              u2541 0B78                                u2461 0A36  
                              u4141 19EA                                u4221 3068  
                              u3270 12BC                                u3190 118C  
                              u3430 28A4                                u4070 379C  
                              u3350 29C0                                u2710 0D8E  
                              u2630 0C62                                u2550 0B80  
                              u2470 0A7A                                u3510 2AB4  
                              u4150 1A7E                                u4310 3518  
                              u4230 308E                                u3271 12B8  
                              u3191 1188                                u3175 1108  
                              u3431 28A0                                u4071 3798  
                              u3351 29BC                                u2711 0D8A  
                              u2631 0C5E                                u2471 0A76  
                              u3511 2AAE                                u4151 1A7A  
                              u4311 3514                                u4231 308A  
                              u5007 266A                                u4080 376E  
                              u4320 2BE6                                u3280 2FCA  
                              u3360 3626                                u2800 0E74  
                              u2720 0D9E                                u2640 0C9A  
                              u2560 0BA8                                u2480 0A90  
                              u3520 2AB6                                u3600 1FC0  
                              u3440 3242                                u4160 1A8E  
                              u4240 30B6                                u4400 22DE  
                              u4081 376A                                u4321 2BE2  
                              u3281 2FC6                                u3361 3622  
                              u2801 0E70                                u2721 0D9A  
                              u2641 0C96                                u2561 0BA4  
                              u2481 0A8C                                u3505 2A8C  
                              u3441 323E                                u4161 1A8A  
                              u4241 30B2                                u4401 22DA  
                              u5017 2694                                u3370 27D6  
                              u4090 34B0                                u4250 26C6  
                              u4330 2C8C                                u3290 3008  
                              u2810 0E84                                u2730 0DB4  
                              u2650 0CE0                                u2570 0BC6  
                              u2490 0AA2                                u3610 1FDC  
                              u3450 3288                                u3530 360E  
                              u4170 1AC4                                u4410 2318  
                              u3371 27D2                                u4091 34AC  
                              u4251 26C2                                u4331 2C88  
                              u3291 3004                                u2811 0E80  
                              u2731 0DB0                                u2651 0CDC  
                              u2571 0BC2                                u2491 0A9E  
                              u3611 1FD8                                u3451 3284  
                              u3531 360A                                u4171 1AC0  
                              u4411 2314                                u5107 171E  
                              u5027 2CC8                                u3380 280A  
                              u4500 21E4                                u4260 26E8  
                              u4340 2CAC                                u3700 3312  
                              u2900 136A                                u2820 0EA0  
                              u2740 0DCA                                u2660 0D16  
                              u2580 0BE6                                u3460 2A0A  
                              u3620 2030                                u3540 3372  
                              u4180 1B50                                u4501 21E0  
                              u4261 26E4                                u4341 2CA8  
                              u3701 330E                                u2901 1366  
                              u2821 0E9C                                u2741 0DC6  
                              u2661 0D12                                u2581 0BE2  
                              u3605 1FB6                                u3541 336E  
                              u4181 1B4C                                u5117 1746  
                              u5037 2CEC                                u3390 2838  
                              u4510 21F4                                u4270 2722  
                              u4350 31A4                                u4190 3782  
                              u3710 3330                                u2910 137A  
                              u2750 0DDE                                u2670 0D26  
                              u2590 0BF4                                u3470 2A28  
                              u3630 204C                                u3550 1EE0  
                              u2830 3560                                u4430 236C  
                              u3391 2834                                u4511 21F0  
                              u4271 271E                                u4351 31A0  
                              u4191 377E                                u3711 332C  
                              u2911 1376                                u2751 0DDA  
                              u2671 0D22                                u2591 0BF0  
                              u3471 2A24                                u3631 2048  
                              u2831 355C                                u4431 2368  
                              u5207 18DA                                u5127 1782  
                              u5047 2D10                                u4520 2202  
                              u4280 2744                                u4360 31C4  
                              u2840 32CE                                u3720 3346  
                              u2920 13B8                                u2760 0DF8  
                              u2680 0D52                                u3480 2A50  
                              u3640 2088                                u3560 1F0E  
                              u3800 01E0                                u4600 1778  
                              u3385 2800                                u4521 21FE  
                              u4281 2740                                u4361 31C0  
                              u3721 3342                                u2921 13B4  
                              u2761 0DF4                                u2681 0D4E  
                              u3481 2A4C                                u3465 2A00  
                              u3641 2084                                u3625 2026  
                              u3561 1F0A                                u3801 01DC  
                              u4425 234C                                u5217 190A  
                              u5137 17B0                                u4601 1774  
                              u5057 2D34                                u4530 223C  
                              u4450 20BC                                u3650 36EA  
                              u4290 276C                                u4370 2DFC  
                              u2850 32FE                                u2930 13F8  
                              u2770 0E32                                u2690 0D62  
                              u3490 2A7A                                u3570 1F30  
                              u3810 026C                                u3730 0034  
                              u4610 17FE                                u4531 2238  
                              u4451 20B8                                u3651 36E6  
                              u4291 2768                                u4371 2DF8  
                              u2851 32FA                                u2931 13F4  
                              u2771 0E2E                                u2691 0D5E  
                              u3491 2A76                                u3571 1F2C  
                              u3555 1ED6                                u3811 0268  
                              u3731 0030                                u5227 1934  
                              u4611 17FA                                u5147 17D4  
                              u5067 2D58                                u4540 224A  
                              u4460 20CA                                u3660 36F8  
                              u4380 36D2                                u2940 146C  
                              u2860 12F4                                u2780 0E44  
                              u3900 0568                                u3820 029E  
                              u3740 007E                                u4620 187E  
                              u4541 2246                                u4461 20C6  
                              u3661 36F4                                u4381 36CE  
                              u2941 1468                                u2861 12F0  
                              u2781 0E40                                u3901 0564  
                              u3821 029A                                u3741 007A  
                              u4445 237C                                u5237 1958  
                              u4621 187A                                u5157 1804  
                              u5077 168C                                u4470 2126  
                              u3670 3104                                u2950 148E  
                              u2870 1306                                u2790 0E54  
                              u3590 1F9C                                u3910 05CE  
                              u3830 02DC                                u3750 008E  
                              u4390 2270                                u4630 1904  
                              u4550 2502                                u4471 2122  
                              u2847 32C4                                u3671 3100  
                              u2951 148A                                u2871 1302  
                              u2791 0E50                                u3591 1F98  
                              u3911 05CA                                u3831 02D8  
                              u3751 008A                                u5247 23F8  
                              u4391 226C                                u4631 1900  
                              u5167 1830                                u5087 16B4  
                              u4551 24FE                                u4480 217C  
                              u3680 3122                                u2960 14B8  
                              u2880 1316                                u3920 0616  
                              u3840 0368                                u3760 00CC  
                              u4640 1982                                u4560 2544  
                              u4800 1D72                                u4481 2178  
                              u5257 2B7C                                u3681 311E  
                              u2961 14B4                                u2881 1312  
                              u3585 1F44                                u3921 0612  
                              u3841 0364                                u3761 00C8  
                              u4641 197E                                u5177 1854  
                              u5097 16F0                                u4561 2540  
                              u4801 1D6E                                u4490 21C6  
                              u4570 2E6E                                u3690 313E  
                              u2970 14DC                                u2890 1358  
                              u3586 1F4E                                u3930 0626  
                              u3850 039E                                u3770 00DE  
                              u4810 1D90                                u4491 21C2  
                              u4571 2E6A                                u5267 2D92  
                              u3691 313A                                u2971 14D8  
                              u2891 1354                                u3587 1F5E  
                              u3931 0622                                u3851 039A  
                              u3771 00DA                                u5187 1888  
                              u4811 1D8C                                u4580 2E7E  
                              u2980 14F2                                u3940 06C0  
                              u3860 03B6                                u3780 0154  
                              u4820 1DA2                                _RCEN 7E2B  
                              _RCIF 7CF5                                u4581 2E7A  
                              u5277 2DD4                                u2981 14EE  
                              u3941 06BC                                u3861 03B2  
                              u3781 0150                                u5197 18B6  
                              u4821 1D9E                                u2990 1510  
                              u3950 070E                                u3870 03E8  
                              u3790 0166                                u4590 16E6  
                              u4830 1DC4                                u5287 2E32  
                              u2991 150C                                u3951 070A  
                              u3871 03E4                                u3791 0162  
                              u4591 16E2                                u4831 1DC0  
                              u3960 07BA                                u3880 03F6  
                              u4840 1DDE                                u5297 2E58  
                              u3961 07B6                                u3881 03F2  
                              u4841 1DDA                                u3970 07F6  
                              u3890 0420                                u4850 1DF8  
                              u3971 07F2                                u3891 041C  
                              u4851 1DF4                                u4907 1CBE  
                              u3980 0804                                u4860 1E1A  
                              u4780 1D44                                u3981 0800  
                              u4861 1E16                                u4781 1D40  
                              u4917 1CDC                                u3990 0858  
                              u4870 1E3A                                u4790 1D58  
                              u3991 0854                                u4871 1E36  
                              u4791 1D54                                u4927 1CF6  
                              u4937 1D10                                u4947 1E86  
                              u4957 2598                                u4967 25C2  
                              u4887 1C82                                u4977 25EC  
                              u4897 1CA0                                u4987 2616  
                              u4997 2640                                _TMR2 0FCC  
                              _SPEN 7D5F                                _RSEN 7E29  
                              _TXEN 7D65                                _TXIF 7CF4  
                              _SYNC 7D64                                __ISR 0008  
                   __end_of_TEXT5x8 7FEF                                _dbuf 0100  
                  ??_SSD1306_String 000D                                _labs 3364  
                              _main 1C4E                    __end_of_I2C_Hold 36FA  
                              _prec 00C9                    __end_of_I2C_Init 37D8  
                  __end_of_I2C_Read 34E0                                pad@i 0015  
                              pad@p 0012                                fsr1h 0FE2  
                              fsr2h 0FDA                                _tone 225E  
                              indf1 0FE7                                indf2 0FDF  
                              fsr1l 0FE1                                fsr2l 0FD9  
                              btemp 005E                    __end_of_I2C_Stop 379E  
                     ___fpclassifyf 29CA                                prodh 0FF4  
                              prodl 0FF3                                start 000E  
                   ___fldiv@new_exp 0020                        ___param_bank 0000  
                             ??_pad 0014                               ?__ISR 0001  
                     ___fltol@sign1 0030                     __end_of___aldiv 27C0  
                             ?_labs 0001                     __end_of___fladd 0EB4  
                             ?_main 0001                               _ACKEN 7E2C  
                             _ACKDT 7E2D                     __end_of___fldiv 166A  
                   __end_of___flneg 3648                               _BRG16 7DC3  
                   __end_of___flmul 12DA                     __end_of___flsub 3454  
                   __end_of___fltol 28C6                               ?_tone 001A  
                             _CMCON 0FB4                     __end_of___lldiv 30EA  
                             _T1CON 0FCD                               _T2CON 0FCA  
                   __end_of___lwdiv 315E                     __end_of___lwmod 3364  
                             i2l237 37E2                               i2l246 3406  
                             i2l248 340A                               _RCREG 0FAE  
                      vfpfcnvrt@fmt 0049                               _TMR1H 0FCF  
                             _TMR1L 0FCE                               _SPBRG 0FAF  
                             _TRISC 0F94                               _TRISD 0F95  
                             _SSPIF 7CF3                   _tone_toggle_count 00C3  
                             _TXREG 0FAD                 ___lmul@multiplicand 0005  
                     tone@frequency 001A                               _flags 00CD  
                     ?_MPU6050_Init 0001                               _fputc 2EF2  
                             _fputs 3522                               _noise 166A  
                             labs@a 0001                               pad@fp 000F  
                             _width 00C7                               _putch 37E4  
                             main@a 00AA                   __end_of_I2C_Start 37B4  
                 __end_of_I2C_Write 3772                               tablat 0FF5  
                             ttemp5 005F                               ttemp6 0062  
                             ttemp7 0066                               status 0FD8  
                     tone@period_us 0022                               wtemp8 005F  
                   __end_of_sprintf 359E                      ?___fpclassifyf 0001  
                        SendByte@ch 0001                         ?_USART_Init 0001  
                      __end_of__ISR 340E                     __initialization 367C  
                       _GetDistance 2E42                        __end_of_labs 33BA  
                      __end_of_main 1E98                        __end_of_tone 2402  
                            ??__ISR 0001                       SendString@str 0002  
                  _playConfusedTone 2CAE                              ??_labs 0005  
                            ??_main 00A8                    __end_of_SendByte 3788  
                            ??_tone 001E                       __activetblptr 0002  
                    ??_MPU6050_Init 0019                 _SSD1306_ClearScreen 315E  
                            _ADCON1 0FC1                              ?_fputc 0001  
                            ?_fputs 0009                              ?_noise 0001  
                            ?_putch 0001                          _SendString 36AA  
                            i2l4331 37DC                              i2l4329 37D8  
                            i2l4531 33DE                              i2l4523 33BC  
                            i2l4533 33F6                              i2l4525 33CA  
                            i2l4527 33CE                              i2l4529 33DC  
                            _OSCCON 0FD3                              _SPBRGH 0FB0  
                            _SSPADD 0FC8                              _SSPBUF 0FC9  
                  __end_of___xxtofl 225E                _SSD1306_WriteCommand 3738  
                     ?_SSD1306_Init 0001                        vfprintf@cfmt 0058  
              ?_SSD1306_ClearScreen 0001                              ___flge 28C6  
                            ___fleq 2F9C                              ___lmul 31CA  
                         ??___aldiv 0009                           ??___fladd 0030  
                         ??___fldiv 0017                           ??___flneg 0005  
                         ??___flmul 0017                           ??___flsub 0040  
                         ??___fltol 002C                           ??___lldiv 0015  
                            _efgtoa 0012                           ??___lwdiv 0005  
                         ??___lwmod 0005                              _floorf 1E98  
                            _memcpy 329A                              clear_0 3682  
                            clear_1 368E                              _rxData 00CF  
                            _rxFlag 00CE                              isa$std 0001  
                            pad@buf 0010                  SSD1306_String@data 000C  
                            _strcpy 35D8                MPU6050_ReadGyroZ@low 0009  
                            fputc@c 0001                              fputs@c 000C  
                            fputs@i 000D                              fputs@s 0009  
                         ?_I2C_Hold 0001                           ?_I2C_Init 0001  
                         ?_I2C_Read 0001                           ?_I2C_Stop 0001  
                   ___fpclassifyf@e 0009                     ___fpclassifyf@u 000B  
                   ___fpclassifyf@x 0001                              noise@i 0035  
                      __mediumconst 7E0E                       main@updateScn 00B9  
                            tblptrh 0FF7                              tblptrl 0FF6  
                            tblptru 0FF8                              tone@pr 0026  
                            putch@c 0001                    __end_of_vfprintf 3522  
                         ??_sprintf 005A                          ___flge@ff1 0028  
                        ___flge@ff2 002C                     ??___fpclassifyf 0005  
                      ___xxtofl@arg 000B                        ___xxtofl@exp 000A  
                      ___xxtofl@val 0001                          ___fleq@ff1 0001  
                        ___fleq@ff2 0005                SSD1306_ClearScreen@i 0003  
              SSD1306_ClearScreen@j 0005                          __accesstop 0060  
           __end_of__initialization 369C                          ___flneg@f1 0001  
                     ___rparam_used 0001               ?_SSD1306_WriteCommand 0001  
                        ___fltol@f1 0028                      ??_SSD1306_Init 0004  
             ??_SSD1306_ClearScreen 0003                      __pcstackCOMRAM 0001  
                     _CalibrateGyro 2D78                       __end_of_fputc 2F9C  
                     __end_of_fputs 3562                       __end_of_noise 1984  
                     __end_of_putch 37E6                          ??_I2C_Hold 0001  
                        ??_I2C_Init 0001                          ??_I2C_Read 0002  
                        ??_I2C_Stop 0002                             ??_fputc 0004  
                           ??_fputs 000C                             ??_noise 002B  
                           ??_putch 0001                          __pbssBANK0 00BB  
                        __pbssBANK1 0100                         ?_SendString 0002  
                         ?_SendByte 0001        ??_EUSART_Rx_InterruptHandler 0001  
                      I2C_Read@data 0003                   _SSD1306_GotoStart 359E  
                           ?___flge 0028                      ?_CalibrateGyro 0001  
                           ?___fleq 0001                             ?___lmul 0001  
              __end_of_MPU6050_Init 371A                             ?_efgtoa 0040  
                ?_SSD1306_GotoStart 0001                             ?_floorf 0028  
                           ?_memcpy 0001                      ___lmul@product 0009  
                tone@prescaler_bits 0028                   _MPU6050_ReadGyroZ 3454  
                           ?_strcpy 0001                 ??_SSD1306_GotoStart 0003  
             GetDistance@pulseWidth 0038                           ?___xxtofl 0001  
                ?_MPU6050_ReadGyroZ 0004                             _TEXT5x8 7E0F  
                           _SSPCON1 0FC6                             _SSPCON2 0FC5  
                           _SSPSTAT 0FC7                 ??_MPU6050_ReadGyroZ 0006  
          __end_of_playConfusedTone 2D78              ??_SSD1306_WriteCommand 0003  
                         _I2C_Start 379E                           _I2C_Write 3756  
                        ??_SendByte 0001           __end_of_SSD1306_GotoStart 35D8  
                      ??_USART_Init 0001                             __Hparam 0000  
                  UpdateScreen@dist 009F                             __Lparam 0000  
                      ?_GetDistance 0032                             ___aldiv 26B6  
                           ___fladd 09FE                     tone@duration_ms 001C  
                           ___fldiv 12DA                             ___flneg 3610  
                           ___flmul 0EB4                             ___flsub 340E  
                           ___fltol 27C0                             ___lldiv 3046  
                           ___lwdiv 30EA                             ___lwmod 3300  
                         ?_vfprintf 0054           __end_of_MPU6050_ReadGyroZ 349A  
                           __pcinit 367C                             __ramtop 0600  
                updateYaw@corrected 0040                             __ptext0 1C4E  
                           __ptext1 2402                             __ptext2 257A  
                           __ptext3 2CAE                             __ptext4 166A  
                           __ptext5 225E                             __ptext6 31CA  
                           __ptext7 3046                             __ptext8 3648  
                           __ptext9 3562                           _T1CONbits 0FCD  
                         _T2CONbits 0FCA                          ??___xxtofl 0005  
                  ___aldiv@dividend 0001                __end_of_SSD1306_Init 2BC2  
                           efgtoa@c 0045                             efgtoa@d 006B  
                           efgtoa@e 006F                             efgtoa@f 0041  
                           efgtoa@g 0084                             efgtoa@h 0079  
                           efgtoa@i 0077                             efgtoa@l 007D  
                           efgtoa@m 006D                             efgtoa@n 0082  
                           efgtoa@p 0062                             efgtoa@t 0064  
                           efgtoa@u 0088                             efgtoa@w 0071  
                __end_of_USART_Init 3738                             main@cmd 00BA  
                           _sprintf 3562                      __pintcode_body 33BA  
              end_of_initialization 369C                   __end_of_playNotes 26B6  
                     ?_UpdateScreen 009F                             floorf@e 0036  
                           floorf@m 0032                             floorf@u 0038  
                           floorf@x 0028               MPU6050_ReadGyroZ@high 0008  
                           memcpy@d 0007                             memcpy@n 0005  
                           memcpy@s 0009                             fputc@fp 0003  
                     __Lmediumconst 7E0E                             int_func 33BA  
                           fputs@fp 000B              GetDistance@distance_cm 0036  
                        ?_I2C_Start 0001                          ?_I2C_Write 0001  
                   ___lldiv@divisor 0011                     ??_CalibrateGyro 000F  
                   ___lldiv@counter 0019                   __end_of_vfpfcnvrt 1C4E  
                        efgtoa@mode 0069                          efgtoa@sign 0081  
                  ___aldiv@quotient 000B                   __end_of_updateYaw 257A  
                           postdec2 0FDD                             postinc0 0FEE  
                           postinc1 0FE6                             postinc2 0FDE  
                  vfpfcnvrt@convarg 004D                          ??_vfprintf 0058  
                           strcpy@d 0005                           _PORTDbits 0F83  
                       ___fladd@grs 0037                       ___xxtofl@sign 0009  
                         _TRISCbits 0F94                           _TRISDbits 0F95  
                       ___fldiv@grs 0022                         ___fldiv@rem 001B  
                    ??_UpdateScreen 005A                         ___flmul@grs 001C  
                        main@oldCmd 00B6  __end_of_EUSART_Rx_InterruptHandler 37E4  
        _EUSART_Rx_InterruptHandler 37D8                    CalibrateGyro@sum 0013  
                    __end_of___flge 29CA                      __end_of___fleq 3046  
                    __end_of___lmul 3234                         vfpfcnvrt@ap 004A  
                       vfpfcnvrt@cp 0052                         vfpfcnvrt@fp 0048  
                    __end_of_efgtoa 09FE                      __end_of_floorf 20AA  
                    __end_of_memcpy 3300                          floorf@F521 00BB  
                    __end_of_strcpy 3610                 start_initialization 367C  
                       __end_of_pad 329A                        _MPU6050_Init 36FA  
                      ??_SendString 0003         __end_of_SSD1306_ClearScreen 31CA  
             __end_of___fpclassifyf 2AC8                         ??_I2C_Start 0002  
                       ??_I2C_Write 0002                         vfprintf@fmt 0055  
                          ??___flge 0030                            ??___fleq 0009  
                          ??___lmul 0009                            ??_efgtoa 0046  
                 _I2C_RepeatedStart 37B4                            ??_floorf 002C  
                          ??_memcpy 0007                  ?_I2C_RepeatedStart 0001  
                          ??_strcpy 0005                  __end_of_SendString 36D4  
                         ___fladd@a 002C                           ___fladd@b 0028  
                         ___fldiv@a 0013                           ___fldiv@b 000F  
                         ___flmul@a 0013                           ___flmul@b 000F  
                       __pbssCOMRAM 005A                           ___flsub@a 003C  
                         ___flsub@b 0038                       __pcstackBANK0 0060  
               ??_I2C_RepeatedStart 0002                      CalibrateGyro@i 0017  
                tone@toggle_time_us 0029                   ?_playConfusedTone 0001  
                       _efgtoa$1381 0066                  ??_playConfusedTone 002B  
                  ___lwdiv@dividend 0001                         I2C_Read@ack 0002  
                      _SSD1306_Init 2AC8           __end_of_I2C_RepeatedStart 37CA  
                         __pintcode 0008                       __pmediumconst 7E0E  
                          ?___aldiv 0001                            ?___fladd 0028  
                          ?___fldiv 000F                            ?___flneg 0001  
                          ?___flmul 000F                            ?___flsub 0038  
                          ?___fltol 0028                      _SSD1306_String 2BC2  
                          ?___lldiv 000D                            ?___lwdiv 0001  
                          ?___lwmod 0001             SSD1306_WriteCommand@cmd 0003  
                        noise@i_774 0037                          noise@i_775 002D  
                        noise@i_776 002F                          noise@i_777 0031  
                        noise@i_778 0033                __end_of_UpdateScreen 367C  
                     _gyro_z_offset 00CB                         __smallconst 7E0E  
                          _I2C_Hold 36D4                            _I2C_Init 37CA  
                          _I2C_Read 349A                            _I2C_Stop 3788  
                  ___lwdiv@quotient 0005                            ?_sprintf 008C  
                   ___aldiv@divisor 0005                     ___aldiv@counter 0009  
                          _LATDbits 0F8C                           _playNotes 257A  
                          _PIE1bits 0F9D                            _PIR1bits 0F9E  
            __end_of_SSD1306_String 2CAE                            i2u465_40 33CA  
                          i2u465_41 33C6                            i2u466_40 33DC  
                          i2u466_41 33D8                            i2u467_40 33F6  
                          i2u467_41 33F2                           _vfpfcnvrt 1984  
                         _updateYaw 2402                           _yaw_angle 005A  
             SSD1306_String@pixData 0012                          vfpfcnvrt@c 0051  
                 ___lmul@multiplier 0001                     SSD1306_String@a 0017  
                   SSD1306_String@i 0019                          ?_playNotes 0001  
                          _SendByte 3772         ?_EUSART_Rx_InterruptHandler 0001  
                          __Hrparam 0000                           memcpy@tmp 000B  
                        vfprintf@ap 0057                            __Lrparam 0000  
                        vfprintf@fp 0054                     ?_SSD1306_String 000C  
             __end_of_CalibrateGyro 2E42                       I2C_Write@data 0002  
                        ?_vfpfcnvrt 0048                          ?_updateYaw 0001  
                ___fpclassifyf@F465 00BF                          sprintf@fmt 008D  
                          ___xxtofl 20AA                     ___lwdiv@divisor 0003  
                   ___lwdiv@counter 0007                            __ptext10 34E0  
                          __ptext11 1984                            __ptext20 29CA  
                          __ptext12 0012                            __ptext21 340E  
                          __ptext13 35D8                            __ptext30 3772  
                          __ptext22 09FE                            __ptext14 3234  
                          __ptext31 2BC2                            __ptext23 3610  
                          __ptext15 3522                            __ptext40 26B6  
                          __ptext32 329A                            __ptext24 28C6  
                          __ptext16 2EF2                            __ptext41 3454  
                          __ptext33 359E                            __ptext25 2F9C  
                          __ptext17 37E4                            __ptext50 20AA  
                          __ptext42 3756                            __ptext34 315E  
                          __ptext26 12DA                            __ptext18 3364  
                          __ptext51 27C0                            __ptext43 3788  
                          __ptext35 371A                            __ptext27 3300  
                          __ptext19 1E98                            __ptext52 0EB4  
                          __ptext44 379E                            __ptext36 2AC8  
                          __ptext28 30EA                            __ptext45 37B4  
                          __ptext37 3738                            __ptext29 36AA  
                          __ptext54 37D8                            __ptext46 349A  
                          __ptext38 36FA                            __ptext47 36D4  
                          __ptext39 2D78                            __ptext48 37CA  
                          __ptext49 2E42                          strcpy@dest 0001  
                          efgtoa@fp 0040                            efgtoa@ne 0060  
                          efgtoa@pp 0068                            efgtoa@ou 0073  
                          isa$xinst 0000                            int$flags 005E  
                          _vfprintf 34E0                            main@dist 00B4  
                   main@sensorTouch 00B7                          _INTCONbits 0FF2  
                          memcpy@d1 0001                            memcpy@s1 0003  
               updateYaw@gyro_z_dps 0042                 updateYaw@gyro_z_raw 0046  
                          intlevel2 0000                           sprintf@ap 0093  
                      _UpdateScreen 3648                    ___lwmod@dividend 0001  
                  ___lldiv@dividend 000D                         ??_playNotes 002B  
                     UpdateScreen@a 00A1                           strcpy@src 0003  
                     ??_GetDistance 0034                         efgtoa@nmode 006A  
                       ??_vfpfcnvrt 004B                         ??_updateYaw 0040  
                          sprintf@f 0094                            sprintf@s 008C  
                  ___lldiv@quotient 0015                     ___lwmod@divisor 0003  
                   ___lwmod@counter 0005                        ___aldiv@sign 000A  
                     ___fladd@signs 0034                        ___fladd@aexp 0035  
                      ___fladd@bexp 0036                          _USART_Init 371A  
